 PhysX_32

 Timestamp is 608bdbfc (Fri Apr 30 12:29:16 2021)

 Preferred load address is 10000000

 Start         Length     Name                   Class
 0001:00000000 00004c00H .text$di                CODE
 0001:00004c00 0015912fH .text$mn                CODE
 0001:0015dd2f 00000047H .text$x                 CODE
 0002:00000000 00000138H .idata$5                DATA
 0002:00000138 00000004H .00cfg                  DATA
 0002:0000013c 00000004H .CRT$XCA                DATA
 0002:00000140 00000b4cH .CRT$XCU                DATA
 0002:00000c8c 00000004H .CRT$XCZ                DATA
 0002:00000c90 00000004H .CRT$XIA                DATA
 0002:00000c94 0000000cH .CRT$XIC                DATA
 0002:00000ca0 00000004H .CRT$XIZ                DATA
 0002:00000ca4 00000004H .CRT$XPA                DATA
 0002:00000ca8 00000008H .CRT$XPX                DATA
 0002:00000cb0 00000004H .CRT$XPXA               DATA
 0002:00000cb4 00000004H .CRT$XPZ                DATA
 0002:00000cb8 00000004H .CRT$XTA                DATA
 0002:00000cbc 00000004H .CRT$XTZ                DATA
 0002:00000cc0 00000000H .gfids$y                DATA
 0002:00000cc0 00016d20H .rdata                  DATA
 0002:000179e0 0000028cH .rdata$r                DATA
 0002:00017c6c 0000001cH .rdata$sxdata           DATA
 0002:00017c88 000003d0H .rdata$zzzdbg           DATA
 0002:00018058 00000004H .rtc$IAA                DATA
 0002:0001805c 00000004H .rtc$IZZ                DATA
 0002:00018060 00000004H .rtc$TAA                DATA
 0002:00018064 00000004H .rtc$TZZ                DATA
 0002:00018068 00000544H .xdata$x                DATA
 0002:000185ac 00000040H .didat$2                DATA
 0002:000185ec 00000020H .didat$3                DATA
 0002:0001860c 00000338H .didat$4                DATA
 0002:00018944 000045bcH .didat$6                DATA
 0002:0001cf00 00000340H .didat$7                DATA
 0002:0001d240 0000280cH .edata                  DATA
 0002:0001fa4c 00000014H .idata$2                DATA
 0002:0001fa60 00000014H .idata$3                DATA
 0002:0001fa74 00000138H .idata$4                DATA
 0002:0001fbac 000005a6H .idata$6                DATA
 0003:00000000 00000d20H .data                   DATA
 0003:00000d20 00002650H .data$r                 DATA
 0003:00003370 00000340H .didat$5                DATA
 0003:000036b0 000038a0H .bss                    DATA
 0004:00000000 00002608H _RDATA                  DATA
 0005:00000000 000000a0H .rsrc$01                DATA
 0005:000000a0 00000488H .rsrc$02                DATA

  Address         Publics by Value              Rva+Base       Lib:Object

 0000:00000000       ___guard_fids_table        00000000     <absolute>
 0000:00000000       ___guard_iat_table         00000000     <absolute>
 0000:00000000       ___volatile_metadata       00000000     <absolute>
 0000:00000000       ___hybrid_auxiliary_iat    00000000     <absolute>
 0000:00000000       ___arm64x_native_entrypoint 00000000     <absolute>
 0000:00000000       ___AbsoluteZero            00000000     <absolute>
 0000:00000000       ___hybrid_code_map_count   00000000     <absolute>
 0000:00000000       ___arm64x_redirection_metadata_count 00000000     <absolute>
 0000:00000000       ___x64_code_ranges_to_entry_points_count 00000000     <absolute>
 0000:00000000       ___enclave_config          00000000     <absolute>
 0000:00000000       ___guard_longjmp_table     00000000     <absolute>
 0000:00000000       ___guard_fids_count        00000000     <absolute>
 0000:00000000       ___guard_longjmp_count     00000000     <absolute>
 0000:00000000       ___x64_code_ranges_to_entry_points 00000000     <absolute>
 0000:00000000       ___guard_eh_cont_table     00000000     <absolute>
 0000:00000000       ___guard_eh_cont_count     00000000     <absolute>
 0000:00000000       ___arm64x_redirection_metadata 00000000     <absolute>
 0000:00000000       ___arm64x_extra_rfe_table_size 00000000     <absolute>
 0000:00000000       ___arm64x_extra_rfe_table  00000000     <absolute>
 0000:00000000       __except_list              00000000     <absolute>
 0000:00000000       ___guard_iat_count         00000000     <absolute>
 0000:00000000       ___hybrid_code_map         00000000     <absolute>
 0000:00000000       ___dynamic_value_reloc_table 00000000     <absolute>
 0000:00000007       ___safe_se_handler_count   00000007     <absolute>
 0000:00000100       ___guard_flags             00000100     <absolute>
 0000:00000000       ___ImageBase               10000000     <linker-defined>
 0001:00004c00       ??0PxActorGeneratedInfo@physx@@QAE@XZ 10005c00 f   PxAutoGeneratedMetaDataObjects.obj
 0001:00004cc0       ??0PxActorGeneratedValues@physx@@QAE@PBVPxActor@1@@Z 10005cc0 f   PxAutoGeneratedMetaDataObjects.obj
 0001:00004d20       ??0PxAggregateGeneratedInfo@physx@@QAE@XZ 10005d20 f   PxAutoGeneratedMetaDataObjects.obj
 0001:00004d80       ??0PxAggregateGeneratedValues@physx@@QAE@PBVPxAggregate@1@@Z 10005d80 f   PxAutoGeneratedMetaDataObjects.obj
 0001:00004db0       ??0PxArticulationBaseGeneratedInfo@physx@@QAE@XZ 10005db0 f   PxAutoGeneratedMetaDataObjects.obj
 0001:00004ee0       ??0PxArticulationBaseGeneratedValues@physx@@QAE@PBVPxArticulationBase@1@@Z 10005ee0 f   PxAutoGeneratedMetaDataObjects.obj
 0001:00004f60       ??0PxArticulationGeneratedInfo@physx@@QAE@XZ 10005f60 f   PxAutoGeneratedMetaDataObjects.obj
 0001:00005010       ??0PxArticulationGeneratedValues@physx@@QAE@PBVPxArticulation@1@@Z 10006010 f   PxAutoGeneratedMetaDataObjects.obj
 0001:00005060       ??0PxArticulationJointBaseGeneratedInfo@physx@@QAE@XZ 10006060 f   PxAutoGeneratedMetaDataObjects.obj
 0001:000050a0       ??0PxArticulationJointBaseGeneratedValues@physx@@QAE@PBVPxArticulationJointBase@1@@Z 100060a0 f   PxAutoGeneratedMetaDataObjects.obj
 0001:000050d0       ??0PxArticulationJointGeneratedInfo@physx@@QAE@XZ 100060d0 f   PxAutoGeneratedMetaDataObjects.obj
 0001:00005360       ??0PxArticulationJointGeneratedValues@physx@@QAE@PBVPxArticulationJoint@1@@Z 10006360 f   PxAutoGeneratedMetaDataObjects.obj
 0001:00005470       ??0PxArticulationJointReducedCoordinateGeneratedInfo@physx@@QAE@XZ 10006470 f   PxAutoGeneratedMetaDataObjects.obj
 0001:00005530       ??0PxArticulationJointReducedCoordinateGeneratedValues@physx@@QAE@PBVPxArticulationJointReducedCoordinate@1@@Z 10006530 f   PxAutoGeneratedMetaDataObjects.obj
 0001:000055a0       ??0PxArticulationLinkGeneratedInfo@physx@@QAE@XZ 100065a0 f   PxAutoGeneratedMetaDataObjects.obj
 0001:00005650       ??0PxArticulationLinkGeneratedValues@physx@@QAE@PBVPxArticulationLink@1@@Z 10006650 f   PxAutoGeneratedMetaDataObjects.obj
 0001:000056b0       ??0PxArticulationReducedCoordinateGeneratedInfo@physx@@QAE@XZ 100066b0 f   PxAutoGeneratedMetaDataObjects.obj
 0001:00005740       ??0PxArticulationReducedCoordinateGeneratedValues@physx@@QAE@PBVPxArticulationReducedCoordinate@1@@Z 10006740 f   PxAutoGeneratedMetaDataObjects.obj
 0001:00005790       ??0PxBoxGeometryGeneratedInfo@physx@@QAE@XZ 10006790 f   PxAutoGeneratedMetaDataObjects.obj
 0001:000057b0       ??0PxBoxGeometryGeneratedValues@physx@@QAE@PBVPxBoxGeometry@1@@Z 100067b0 f   PxAutoGeneratedMetaDataObjects.obj
 0001:000057d0       ??0PxCapsuleGeometryGeneratedInfo@physx@@QAE@XZ 100067d0 f   PxAutoGeneratedMetaDataObjects.obj
 0001:00005810       ??0PxCapsuleGeometryGeneratedValues@physx@@QAE@PBVPxCapsuleGeometry@1@@Z 10006810 f   PxAutoGeneratedMetaDataObjects.obj
 0001:00005830       ??0PxConstraintGeneratedInfo@physx@@QAE@XZ 10006830 f   PxAutoGeneratedMetaDataObjects.obj
 0001:00005900       ??0PxConstraintGeneratedValues@physx@@QAE@PBVPxConstraint@1@@Z 10006900 f   PxAutoGeneratedMetaDataObjects.obj
 0001:00005970       ??0PxConvexMeshGeometryGeneratedInfo@physx@@QAE@XZ 10006970 f   PxAutoGeneratedMetaDataObjects.obj
 0001:000059d0       ??0PxConvexMeshGeometryGeneratedValues@physx@@QAE@PBVPxConvexMeshGeometry@1@@Z 100069d0 f   PxAutoGeneratedMetaDataObjects.obj
 0001:00005a10       ??0PxGeometryGeneratedInfo@physx@@QAE@XZ 10006a10 f   PxAutoGeneratedMetaDataObjects.obj
 0001:00005a10       ??0PxPlaneGeometryGeneratedInfo@physx@@QAE@XZ 10006a10 f   PxAutoGeneratedMetaDataObjects.obj
 0001:00005a20       ??4Allocator@shdfnd@physx@@QAEAAV012@$$QAV012@@Z 10006a20 f   PxMetaDataObjects.obj
 0001:00005a20       ??0PxPlaneGeometryGeneratedValues@physx@@QAE@PBVPxPlaneGeometry@1@@Z 10006a20 f   PxAutoGeneratedMetaDataObjects.obj
 0001:00005a20       ??4Allocator@shdfnd@physx@@QAEAAV012@ABV012@@Z 10006a20 f   PxMetaDataObjects.obj
 0001:00005a20       ??0Allocator@shdfnd@physx@@QAE@PBD@Z 10006a20 f   PxMetaDataObjects.obj
 0001:00005a20       ??0PxGeometryGeneratedValues@physx@@QAE@PBVPxGeometry@1@@Z 10006a20 f   PxAutoGeneratedMetaDataObjects.obj
 0001:00005a20       ??4ThreadImpl@shdfnd@physx@@QAEAAV012@ABV012@@Z 10006a20 f   NpActor.obj
 0001:00005a20       ??4MutexImpl@shdfnd@physx@@QAEAAV012@ABV012@@Z 10006a20 f   PxMetaDataObjects.obj
 0001:00005a20       ??4PxFoundation@physx@@QAEAAV01@ABV01@@Z 10006a20 f   PxMetaDataObjects.obj
 0001:00005a20       ??4SyncImpl@shdfnd@physx@@QAEAAV012@ABV012@@Z 10006a20 f   NpActor.obj
 0001:00005a30       ??0PxHeightFieldDescGeneratedInfo@physx@@QAE@XZ 10006a30 f   PxAutoGeneratedMetaDataObjects.obj
 0001:00005ae0       ??0PxHeightFieldDescGeneratedValues@physx@@QAE@PBVPxHeightFieldDesc@1@@Z 10006ae0 f   PxAutoGeneratedMetaDataObjects.obj
 0001:00005b20       ??0PxHeightFieldGeometryGeneratedInfo@physx@@QAE@XZ 10006b20 f   PxAutoGeneratedMetaDataObjects.obj
 0001:00005bb0       ??0PxHeightFieldGeometryGeneratedValues@physx@@QAE@PBVPxHeightFieldGeometry@1@@Z 10006bb0 f   PxAutoGeneratedMetaDataObjects.obj
 0001:00005be0       ??0PxMaterialGeneratedInfo@physx@@QAE@XZ 10006be0 f   PxAutoGeneratedMetaDataObjects.obj
 0001:00005ce0       ??0PxMaterialGeneratedValues@physx@@QAE@PBVPxMaterial@1@@Z 10006ce0 f   PxAutoGeneratedMetaDataObjects.obj
 0001:00005d50       ??0PxMeshScaleGeneratedInfo@physx@@QAE@XZ 10006d50 f   PxAutoGeneratedMetaDataObjects.obj
 0001:00005d90       ??0PxMeshScaleGeneratedValues@physx@@QAE@PBVPxMeshScale@1@@Z 10006d90 f   PxAutoGeneratedMetaDataObjects.obj
 0001:00005dd0       ??0PxPhysicsGeneratedInfo@physx@@QAE@XZ 10006dd0 f   PxAutoGeneratedMetaDataObjects.obj
 0001:00005ee0       ??0PxPhysicsGeneratedValues@physx@@QAE@PBVPxPhysics@1@@Z 10006ee0 f   PxAutoGeneratedMetaDataObjects.obj
 0001:00005f00       ??0PxPruningStructureGeneratedInfo@physx@@QAE@XZ 10006f00 f   PxAutoGeneratedMetaDataObjects.obj
 0001:00005f40       ??0PxPruningStructureGeneratedValues@physx@@QAE@PBVPxPruningStructure@1@@Z 10006f40 f   PxAutoGeneratedMetaDataObjects.obj
 0001:00005f60       ??0PxRigidActorGeneratedInfo@physx@@QAE@XZ 10006f60 f   PxAutoGeneratedMetaDataObjects.obj
 0001:00005fe0       ??0PxRigidActorGeneratedValues@physx@@QAE@PBVPxRigidActor@1@@Z 10006fe0 f   PxAutoGeneratedMetaDataObjects.obj
 0001:00006040       ??0PxRigidBodyGeneratedInfo@physx@@QAE@XZ 10007040 f   PxAutoGeneratedMetaDataObjects.obj
 0001:00006290       ??0PxRigidBodyGeneratedValues@physx@@QAE@PBVPxRigidBody@1@@Z 10007290 f   PxAutoGeneratedMetaDataObjects.obj
 0001:00006390       ??0PxRigidDynamicGeneratedInfo@physx@@QAE@XZ 10007390 f   PxAutoGeneratedMetaDataObjects.obj
 0001:000064e0       ??0PxRigidDynamicGeneratedValues@physx@@QAE@PBVPxRigidDynamic@1@@Z 100074e0 f   PxAutoGeneratedMetaDataObjects.obj
 0001:00006590       ??0PxRigidStaticGeneratedInfo@physx@@QAE@XZ 10007590 f   PxAutoGeneratedMetaDataObjects.obj
 0001:000065c0       ??0PxRigidStaticGeneratedValues@physx@@QAE@PBVPxRigidStatic@1@@Z 100075c0 f   PxAutoGeneratedMetaDataObjects.obj
 0001:000065e0       ??0PxSceneDescGeneratedInfo@physx@@QAE@XZ 100075e0 f   PxAutoGeneratedMetaDataObjects.obj
 0001:00006be0       ??0PxSceneDescGeneratedValues@physx@@QAE@PBVPxSceneDesc@1@@Z 10007be0 f   PxAutoGeneratedMetaDataObjects.obj
 0001:00006da0       ??0PxSceneGeneratedInfo@physx@@QAE@XZ 10007da0 f   PxAutoGeneratedMetaDataObjects.obj
 0001:000072b0       ??0PxSceneGeneratedValues@physx@@QAE@PBVPxScene@1@@Z 100082b0 f   PxAutoGeneratedMetaDataObjects.obj
 0001:000075a0       ??0PxSceneLimitsGeneratedInfo@physx@@QAE@XZ 100085a0 f   PxAutoGeneratedMetaDataObjects.obj
 0001:00007690       ??0PxSceneLimitsGeneratedValues@physx@@QAE@PBVPxSceneLimits@1@@Z 10008690 f   PxAutoGeneratedMetaDataObjects.obj
 0001:00007690       ??0PxgDynamicsMemoryConfigGeneratedValues@physx@@QAE@PBUPxgDynamicsMemoryConfig@1@@Z 10008690 f   PxAutoGeneratedMetaDataObjects.obj
 0001:000076d0       ??0PxShapeGeneratedInfo@physx@@QAE@XZ 100086d0 f   PxAutoGeneratedMetaDataObjects.obj
 0001:000078c0       ??0PxShapeGeneratedValues@physx@@QAE@PBVPxShape@1@@Z 100088c0 f   PxAutoGeneratedMetaDataObjects.obj
 0001:00007990       ??0PxSimulationStatisticsGeneratedInfo@physx@@QAE@XZ 10008990 f   PxAutoGeneratedMetaDataObjects.obj
 0001:00007ce0       ??0PxSimulationStatisticsGeneratedValues@physx@@QAE@PBVPxSimulationStatistics@1@@Z 10008ce0 f   PxAutoGeneratedMetaDataObjects.obj
 0001:00007de0       ??0PxSphereGeometryGeneratedInfo@physx@@QAE@XZ 10008de0 f   PxAutoGeneratedMetaDataObjects.obj
 0001:00007e00       ??0PxSphereGeometryGeneratedValues@physx@@QAE@PBVPxSphereGeometry@1@@Z 10008e00 f   PxAutoGeneratedMetaDataObjects.obj
 0001:00007e10       ??0PxTolerancesScaleGeneratedInfo@physx@@QAE@XZ 10008e10 f   PxAutoGeneratedMetaDataObjects.obj
 0001:00007e60       ??0PxTolerancesScaleGeneratedValues@physx@@QAE@PBVPxTolerancesScale@1@@Z 10008e60 f   PxAutoGeneratedMetaDataObjects.obj
 0001:00007e90       ??0PxTriangleMeshGeometryGeneratedInfo@physx@@QAE@XZ 10008e90 f   PxAutoGeneratedMetaDataObjects.obj
 0001:00007ef0       ??0PxTriangleMeshGeometryGeneratedValues@physx@@QAE@PBVPxTriangleMeshGeometry@1@@Z 10008ef0 f   PxAutoGeneratedMetaDataObjects.obj
 0001:00007f30       ??0PxgDynamicsMemoryConfigGeneratedInfo@physx@@QAE@XZ 10008f30 f   PxAutoGeneratedMetaDataObjects.obj
 0001:00008020       ?createPxPhysics_BVHStructures@@YAPAVPxBVHStructure@physx@@PAVPxPhysics@2@AAVPxInputStream@2@@Z 10009020 f   PxAutoGeneratedMetaDataObjects.obj
 0001:00008030       ?createPxPhysics_ConvexMeshes@@YAPAVPxConvexMesh@physx@@PAVPxPhysics@2@AAVPxInputStream@2@@Z 10009030 f   PxAutoGeneratedMetaDataObjects.obj
 0001:00008040       ?setPxShape_Geometry@@YAXPAVPxShape@physx@@ABVPxGeometry@2@@Z 10009040 f   PxAutoGeneratedMetaDataObjects.obj
 0001:00008040       ?createPxPhysics_HeightFields@@YAPAVPxHeightField@physx@@PAVPxPhysics@2@AAVPxInputStream@2@@Z 10009040 f   PxAutoGeneratedMetaDataObjects.obj
 0001:00008050       ?createPxPhysics_Scenes@@YAPAVPxScene@physx@@PAVPxPhysics@2@ABVPxSceneDesc@2@@Z 10009050 f   PxAutoGeneratedMetaDataObjects.obj
 0001:00008050       ?setPxArticulationJoint_DriveType@@YAXPAVPxArticulationJoint@physx@@W4Enum@PxArticulationJointDriveType@2@@Z 10009050 f   PxAutoGeneratedMetaDataObjects.obj
 0001:00008060       ?createPxPhysics_TriangleMeshes@@YAPAVPxTriangleMesh@physx@@PAVPxPhysics@2@AAVPxInputStream@2@@Z 10009060 f   PxAutoGeneratedMetaDataObjects.obj
 0001:00008070       ?getNbPxPhysics_HeightFields@@YAIPBVPxPhysics@physx@@@Z 10009070 f   PxAutoGeneratedMetaDataObjects.obj
 0001:00008070       ?getNbPxAggregate_Actors@@YAIPBVPxAggregate@physx@@@Z 10009070 f   PxAutoGeneratedMetaDataObjects.obj
 0001:00008080       ?getNbPxArticulationBase_Links@@YAIPBVPxArticulationBase@physx@@@Z 10009080 f   PxAutoGeneratedMetaDataObjects.obj
 0001:00008080       ?getNbPxPhysics_Scenes@@YAIPBVPxPhysics@physx@@@Z 10009080 f   PxAutoGeneratedMetaDataObjects.obj
 0001:00008080       ?getPxArticulationJoint_DriveType@@YA?AW4Enum@PxArticulationJointDriveType@physx@@PBVPxArticulationJoint@3@@Z 10009080 f   PxAutoGeneratedMetaDataObjects.obj
 0001:00008090       ?getNbPxArticulationLink_Children@@YAIPBVPxArticulationLink@physx@@@Z 10009090 f   PxAutoGeneratedMetaDataObjects.obj
 0001:00008090       ?getPxScene_CCDMaxPasses@@YAIPBVPxScene@physx@@@Z 10009090 f   PxAutoGeneratedMetaDataObjects.obj
 0001:000080a0       ?getNbPxPhysics_BVHStructures@@YAIPBVPxPhysics@physx@@@Z 100090a0 f   PxAutoGeneratedMetaDataObjects.obj
 0001:000080b0       ?getNbPxPhysics_ConvexMeshes@@YAIPBVPxPhysics@physx@@@Z 100090b0 f   PxAutoGeneratedMetaDataObjects.obj
 0001:000080c0       ?getPxScene_CudaContextManager@@YAPAVPxCudaContextManager@physx@@PBVPxScene@2@@Z 100090c0 f   PxAutoGeneratedMetaDataObjects.obj
 0001:000080c0       ?getNbPxPhysics_Materials@@YAIPBVPxPhysics@physx@@@Z 100090c0 f   PxAutoGeneratedMetaDataObjects.obj
 0001:000080d0       ?getNbPxRigidActor_Constraints@@YAIPBVPxRigidActor@physx@@@Z 100090d0 f   PxAutoGeneratedMetaDataObjects.obj
 0001:000080d0       ?getNbPxPhysics_Shapes@@YAIPBVPxPhysics@physx@@@Z 100090d0 f   PxAutoGeneratedMetaDataObjects.obj
 0001:000080e0       ?getNbPxPhysics_TriangleMeshes@@YAIPBVPxPhysics@physx@@@Z 100090e0 f   PxAutoGeneratedMetaDataObjects.obj
 0001:000080e0       ?getNbPxPruningStructure_RigidActors@@YAIPBVPxPruningStructure@physx@@@Z 100090e0 f   PxAutoGeneratedMetaDataObjects.obj
 0001:000080e0       ?getPxActor_Scene@@YAPAVPxScene@physx@@PBVPxActor@2@@Z 100090e0 f   PxAutoGeneratedMetaDataObjects.obj
 0001:000080f0       ?getNbPxRigidActor_Shapes@@YAIPBVPxRigidActor@physx@@@Z 100090f0 f   PxAutoGeneratedMetaDataObjects.obj
 0001:00008100       ?getNbPxScene_Actors@@YAIPBVPxScene@physx@@V?$PxFlags@W4Enum@PxActorTypeFlag@physx@@G@2@@Z 10009100 f   PxAutoGeneratedMetaDataObjects.obj
 0001:00008120       ?getNbPxScene_Aggregates@@YAIPBVPxScene@physx@@@Z 10009120 f   PxAutoGeneratedMetaDataObjects.obj
 0001:00008130       ?getNbPxScene_Articulations@@YAIPBVPxScene@physx@@@Z 10009130 f   PxAutoGeneratedMetaDataObjects.obj
 0001:00008130       ?getPxArticulationBase_Name@@YAPBDPBVPxArticulationBase@physx@@@Z 10009130 f   PxAutoGeneratedMetaDataObjects.obj
 0001:00008140       ?getNbPxScene_BroadPhaseRegions@@YAIPBVPxScene@physx@@@Z 10009140 f   PxAutoGeneratedMetaDataObjects.obj
 0001:00008150       ?getPxArticulationBase_Aggregate@@YAPAVPxAggregate@physx@@PBVPxArticulationBase@2@@Z 10009150 f   PxAutoGeneratedMetaDataObjects.obj
 0001:00008150       ?getNbPxScene_Constraints@@YAIPBVPxScene@physx@@@Z 10009150 f   PxAutoGeneratedMetaDataObjects.obj
 0001:00008160       ?getNbPxShape_Materials@@YAIPBVPxShape@physx@@@Z 10009160 f   PxAutoGeneratedMetaDataObjects.obj
 0001:00008170       ?getPxSimulationStatisticsNbActiveKinematicBodies@@YAIPBVPxSimulationStatistics@physx@@@Z 10009170 f i PxAutoGeneratedMetaDataObjects.obj
 0001:00008170       ?getPxSceneLimitsMaxNbStaticShapes@@YAIPBVPxSceneLimits@physx@@@Z 10009170 f i PxAutoGeneratedMetaDataObjects.obj
 0001:00008170       ?getPxgDynamicsMemoryConfigTempBufferCapacity@@YAIPBUPxgDynamicsMemoryConfig@physx@@@Z 10009170 f i PxAutoGeneratedMetaDataObjects.obj
 0001:00008170       ?getPxArticulationBaseUserData@@YAPAXPBVPxArticulationBase@physx@@@Z 10009170 f i PxAutoGeneratedMetaDataObjects.obj
 0001:00008170       ?getPxHeightFieldDescFormat@@YA?AW4Enum@PxHeightFieldFormat@physx@@PBVPxHeightFieldDesc@3@@Z 10009170 f i PxAutoGeneratedMetaDataObjects.obj
 0001:00008170       ?getPxShapeUserData@@YAPAXPBVPxShape@physx@@@Z 10009170 f i PxAutoGeneratedMetaDataObjects.obj
 0001:00008170       ?getPxActorUserData@@YAPAXPBVPxActor@physx@@@Z 10009170 f i PxAutoGeneratedMetaDataObjects.obj
 0001:00008170       ?getPxMaterialUserData@@YAPAXPBVPxMaterial@physx@@@Z 10009170 f i PxAutoGeneratedMetaDataObjects.obj
 0001:00008180       ?getPxActor_ActorFlags@@YA?AV?$PxFlags@W4Enum@PxActorFlag@physx@@E@physx@@PBVPxActor@2@@Z 10009180 f   PxAutoGeneratedMetaDataObjects.obj
 0001:000081a0       ?getPxMaterial_FrictionCombineMode@@YA?AW4Enum@PxCombineMode@physx@@PBVPxMaterial@3@@Z 100091a0 f   PxAutoGeneratedMetaDataObjects.obj
 0001:000081a0       ?getPxActor_Aggregate@@YAPAVPxAggregate@physx@@PBVPxActor@2@@Z 100091a0 f   PxAutoGeneratedMetaDataObjects.obj
 0001:000081b0       ?getPxActor_DominanceGroup@@YAEPBVPxActor@physx@@@Z 100091b0 f   PxAutoGeneratedMetaDataObjects.obj
 0001:000081b0       ?getPxArticulationBase_WakeCounter@@YAMPBVPxArticulationBase@physx@@@Z 100091b0 f   PxAutoGeneratedMetaDataObjects.obj
 0001:000081c0       ?getPxActor_Name@@YAPBDPBVPxActor@physx@@@Z 100091c0 f   PxAutoGeneratedMetaDataObjects.obj
 0001:000081d0       ?getPxActor_OwnerClient@@YAEPBVPxActor@physx@@@Z 100091d0 f   PxAutoGeneratedMetaDataObjects.obj
 0001:000081e0       ?getPxAggregate_Actors@@YAIPBVPxAggregate@physx@@PAPAVPxActor@2@I@Z 100091e0 f   PxAutoGeneratedMetaDataObjects.obj
 0001:00008200       ?getPxArticulationJoint_ConcreteTypeName@@YAPBDPBVPxArticulationJoint@physx@@@Z 10009200 f   PxAutoGeneratedMetaDataObjects.obj
 0001:00008200       ?getPxArticulationJointReducedCoordinate_ConcreteTypeName@@YAPBDPBVPxArticulationJointReducedCoordinate@physx@@@Z 10009200 f   PxAutoGeneratedMetaDataObjects.obj
 0001:00008200       ?getPxRigidStatic_ConcreteTypeName@@YAPBDPBVPxRigidStatic@physx@@@Z 10009200 f   PxAutoGeneratedMetaDataObjects.obj
 0001:00008200       ?getPxPruningStructure_ConcreteTypeName@@YAPBDPBVPxPruningStructure@physx@@@Z 10009200 f   PxAutoGeneratedMetaDataObjects.obj
 0001:00008200       ?getPxMaterial_ConcreteTypeName@@YAPBDPBVPxMaterial@physx@@@Z 10009200 f   PxAutoGeneratedMetaDataObjects.obj
 0001:00008200       ?getPxConstraint_ConcreteTypeName@@YAPBDPBVPxConstraint@physx@@@Z 10009200 f   PxAutoGeneratedMetaDataObjects.obj
 0001:00008200       ?getPxShape_ConcreteTypeName@@YAPBDPBVPxShape@physx@@@Z 10009200 f   PxAutoGeneratedMetaDataObjects.obj
 0001:00008200       ?getPxAggregate_ConcreteTypeName@@YAPBDPBVPxAggregate@physx@@@Z 10009200 f   PxAutoGeneratedMetaDataObjects.obj
 0001:00008200       ?getPxArticulationLink_ConcreteTypeName@@YAPBDPBVPxArticulationLink@physx@@@Z 10009200 f   PxAutoGeneratedMetaDataObjects.obj
 0001:00008200       ?getPxRigidDynamic_ConcreteTypeName@@YAPBDPBVPxRigidDynamic@physx@@@Z 10009200 f   PxAutoGeneratedMetaDataObjects.obj
 0001:00008210       ?getPxAggregate_MaxNbActors@@YAIPBVPxAggregate@physx@@@Z 10009210 f   PxAutoGeneratedMetaDataObjects.obj
 0001:00008220       ?getPxAggregate_SelfCollision@@YA_NPBVPxAggregate@physx@@@Z 10009220 f   PxAutoGeneratedMetaDataObjects.obj
 0001:00008220       ?getPxConstraint_IsValid@@YA_NPBVPxConstraint@physx@@@Z 10009220 f   PxAutoGeneratedMetaDataObjects.obj
 0001:00008230       ?getPxMaterial_DynamicFriction@@YAMPBVPxMaterial@physx@@@Z 10009230 f   PxAutoGeneratedMetaDataObjects.obj
 0001:00008230       ?getPxArticulationBase_IsSleeping@@YA_NPBVPxArticulationBase@physx@@@Z 10009230 f   PxAutoGeneratedMetaDataObjects.obj
 0001:00008240       ?getPxArticulationBase_Links@@YAIPBVPxArticulationBase@physx@@PAPAVPxArticulationLink@2@I@Z 10009240 f   PxAutoGeneratedMetaDataObjects.obj
 0001:00008240       ?getPxPhysics_Scenes@@YAIPBVPxPhysics@physx@@PAPAVPxScene@2@I@Z 10009240 f   PxAutoGeneratedMetaDataObjects.obj
 0001:00008260       ?getPxMaterial_ReferenceCount@@YAIPBVPxMaterial@physx@@@Z 10009260 f   PxAutoGeneratedMetaDataObjects.obj
 0001:00008260       ?getPxArticulationBase_Scene@@YAPAVPxScene@physx@@PBVPxArticulationBase@2@@Z 10009260 f   PxAutoGeneratedMetaDataObjects.obj
 0001:00008260       ?getPxConstraint_Scene@@YAPAVPxScene@physx@@PBVPxConstraint@2@@Z 10009260 f   PxAutoGeneratedMetaDataObjects.obj
 0001:00008260       ?getPxShape_ReferenceCount@@YAIPBVPxShape@physx@@@Z 10009260 f   PxAutoGeneratedMetaDataObjects.obj
 0001:00008270       ?getPxMaterial_StaticFriction@@YAMPBVPxMaterial@physx@@@Z 10009270 f   PxAutoGeneratedMetaDataObjects.obj
 0001:00008270       ?getPxArticulationBase_SleepThreshold@@YAMPBVPxArticulationBase@physx@@@Z 10009270 f   PxAutoGeneratedMetaDataObjects.obj
 0001:00008280       ?setPxConstraint_Actors@@YAXPAVPxConstraint@physx@@PAVPxRigidActor@2@1@Z 10009280 f   PxAutoGeneratedMetaDataObjects.obj
 0001:00008280       ?getPxArticulationBase_SolverIterationCounts@@YAXPBVPxArticulationBase@physx@@AAI1@Z 10009280 f   PxAutoGeneratedMetaDataObjects.obj
 0001:000082a0       ?getPxMaterial_Restitution@@YAMPBVPxMaterial@physx@@@Z 100092a0 f   PxAutoGeneratedMetaDataObjects.obj
 0001:000082a0       ?getPxArticulationBase_StabilizationThreshold@@YAMPBVPxArticulationBase@physx@@@Z 100092a0 f   PxAutoGeneratedMetaDataObjects.obj
 0001:000082b0       ?getPxConstraint_Flags@@YA?AV?$PxFlags@W4Enum@PxConstraintFlag@physx@@G@physx@@PBVPxConstraint@2@@Z 100092b0 f   PxAutoGeneratedMetaDataObjects.obj
 0001:000082b0       ?getPxArticulationJointBase_ChildPose@@YA?AVPxTransform@physx@@PBVPxArticulationJointBase@2@@Z 100092b0 f   PxAutoGeneratedMetaDataObjects.obj
 0001:000082d0       ?getPxArticulationJointBase_ParentPose@@YA?AVPxTransform@physx@@PBVPxArticulationJointBase@2@@Z 100092d0 f   PxAutoGeneratedMetaDataObjects.obj
 0001:000082f0       ?getPxArticulationJointReducedCoordinate_FrictionCoefficient@@YAMPBVPxArticulationJointReducedCoordinate@physx@@@Z 100092f0 f   PxAutoGeneratedMetaDataObjects.obj
 0001:000082f0       ?getPxArticulationJoint_ExternalCompliance@@YAMPBVPxArticulationJoint@physx@@@Z 100092f0 f   PxAutoGeneratedMetaDataObjects.obj
 0001:00008300       ?getPxArticulationJointReducedCoordinate_JointType@@YA?AW4Enum@PxArticulationJointType@physx@@PBVPxArticulationJointReducedCoordinate@3@@Z 10009300 f   PxAutoGeneratedMetaDataObjects.obj
 0001:00008310       ?getPxArticulationJointReducedCoordinate_MaxJointVelocity@@YAMPBVPxArticulationJointReducedCoordinate@physx@@@Z 10009310 f   PxAutoGeneratedMetaDataObjects.obj
 0001:00008320       ?getPxArticulationJointReducedCoordinate_Motion@@YA?AW4Enum@PxArticulationMotion@physx@@PBVPxArticulationJointReducedCoordinate@3@W41PxArticulationAxis@3@@Z 10009320 f   PxAutoGeneratedMetaDataObjects.obj
 0001:00008320       ?setPxMaterial_FrictionCombineMode@@YAXPAVPxMaterial@physx@@W4Enum@PxCombineMode@2@@Z 10009320 f   PxAutoGeneratedMetaDataObjects.obj
 0001:00008330       ?getPxArticulationJoint_Damping@@YAMPBVPxArticulationJoint@physx@@@Z 10009330 f   PxAutoGeneratedMetaDataObjects.obj
 0001:00008340       ?getPxArticulationJoint_InternalCompliance@@YAMPBVPxArticulationJoint@physx@@@Z 10009340 f   PxAutoGeneratedMetaDataObjects.obj
 0001:00008350       ?getPxArticulationJoint_Stiffness@@YAMPBVPxArticulationJoint@physx@@@Z 10009350 f   PxAutoGeneratedMetaDataObjects.obj
 0001:00008360       ?getPxArticulationJoint_SwingLimit@@YAXPBVPxArticulationJoint@physx@@AAM1@Z 10009360 f   PxAutoGeneratedMetaDataObjects.obj
 0001:00008380       ?getPxArticulationJoint_SwingLimitContactDistance@@YAMPBVPxArticulationJoint@physx@@@Z 10009380 f   PxAutoGeneratedMetaDataObjects.obj
 0001:00008390       ?getPxArticulationJoint_SwingLimitEnabled@@YA_NPBVPxArticulationJoint@physx@@@Z 10009390 f   PxAutoGeneratedMetaDataObjects.obj
 0001:000083a0       ?getPxArticulationJoint_TangentialDamping@@YAMPBVPxArticulationJoint@physx@@@Z 100093a0 f   PxAutoGeneratedMetaDataObjects.obj
 0001:000083b0       ?getPxRigidBody_InvMass@@YAMPBVPxRigidBody@physx@@@Z 100093b0 f   PxAutoGeneratedMetaDataObjects.obj
 0001:000083b0       ?getPxArticulationJoint_TangentialStiffness@@YAMPBVPxArticulationJoint@physx@@@Z 100093b0 f   PxAutoGeneratedMetaDataObjects.obj
 0001:000083c0       ?getPxArticulationJoint_TargetOrientation@@YA?AVPxQuat@physx@@PBVPxArticulationJoint@2@@Z 100093c0 f   PxAutoGeneratedMetaDataObjects.obj
 0001:000083e0       ?getPxArticulationJoint_TargetVelocity@@YA?AVPxVec3@physx@@PBVPxArticulationJoint@2@@Z 100093e0 f   PxAutoGeneratedMetaDataObjects.obj
 0001:00008400       ?getPxArticulationJoint_TwistLimit@@YAXPBVPxArticulationJoint@physx@@AAM1@Z 10009400 f   PxAutoGeneratedMetaDataObjects.obj
 0001:00008420       ?getPxArticulationJoint_TwistLimitContactDistance@@YAMPBVPxArticulationJoint@physx@@@Z 10009420 f   PxAutoGeneratedMetaDataObjects.obj
 0001:00008430       ?getPxArticulationJoint_TwistLimitEnabled@@YA_NPBVPxArticulationJoint@physx@@@Z 10009430 f   PxAutoGeneratedMetaDataObjects.obj
 0001:00008440       ?getPxArticulationLink_Children@@YAIPBVPxArticulationLink@physx@@PAPAV12@I@Z 10009440 f   PxAutoGeneratedMetaDataObjects.obj
 0001:00008460       ?getPxArticulationLink_InboundJoint@@YAPAVPxArticulationJointBase@physx@@PBVPxArticulationLink@2@@Z 10009460 f   PxAutoGeneratedMetaDataObjects.obj
 0001:00008470       ?getPxArticulationLink_InboundJointDof@@YAIPBVPxArticulationLink@physx@@@Z 10009470 f   PxAutoGeneratedMetaDataObjects.obj
 0001:00008480       ?getPxArticulationLink_LinkIndex@@YAIPBVPxArticulationLink@physx@@@Z 10009480 f   PxAutoGeneratedMetaDataObjects.obj
 0001:00008490       ?getPxArticulationReducedCoordinate_ArticulationFlags@@YA?AV?$PxFlags@W4Enum@PxArticulationFlag@physx@@E@physx@@PBVPxArticulationReducedCoordinate@2@@Z 10009490 f   PxAutoGeneratedMetaDataObjects.obj
 0001:000084b0       ?getPxArticulationReducedCoordinate_CacheDataSize@@YAIPBVPxArticulationReducedCoordinate@physx@@@Z 100094b0 f   PxAutoGeneratedMetaDataObjects.obj
 0001:000084b0       ?getPxArticulation_InternalDriveIterations@@YAIPBVPxArticulation@physx@@@Z 100094b0 f   PxAutoGeneratedMetaDataObjects.obj
 0001:000084b0       ?getPxScene_SimulationEventCallback@@YAPAVPxSimulationEventCallback@physx@@PBVPxScene@2@@Z 100094b0 f   PxAutoGeneratedMetaDataObjects.obj
 0001:000084c0       ?getPxArticulationReducedCoordinate_CoefficientMatrixSize@@YAIPBVPxArticulationReducedCoordinate@physx@@@Z 100094c0 f   PxAutoGeneratedMetaDataObjects.obj
 0001:000084d0       ?getPxArticulationReducedCoordinate_Dofs@@YAIPBVPxArticulationReducedCoordinate@physx@@@Z 100094d0 f   PxAutoGeneratedMetaDataObjects.obj
 0001:000084e0       ?getPxArticulation_ExternalDriveIterations@@YAIPBVPxArticulation@physx@@@Z 100094e0 f   PxAutoGeneratedMetaDataObjects.obj
 0001:000084f0       ?getPxArticulation_MaxProjectionIterations@@YAIPBVPxArticulation@physx@@@Z 100094f0 f   PxAutoGeneratedMetaDataObjects.obj
 0001:000084f0       ?getPxScene_CpuDispatcher@@YAPAVPxCpuDispatcher@physx@@PBVPxScene@2@@Z 100094f0 f   PxAutoGeneratedMetaDataObjects.obj
 0001:00008500       ?getPxShape_RestOffset@@YAMPBVPxShape@physx@@@Z 10009500 f   PxAutoGeneratedMetaDataObjects.obj
 0001:00008500       ?getPxArticulation_SeparationTolerance@@YAMPBVPxArticulation@physx@@@Z 10009500 f   PxAutoGeneratedMetaDataObjects.obj
 0001:00008510       ?getPxBoxGeometryHalfExtents@@YA?AVPxVec3@physx@@PBVPxBoxGeometry@2@@Z 10009510 f i PxAutoGeneratedMetaDataObjects.obj
 0001:00008530       ?getPxCapsuleGeometryHalfHeight@@YAMPBVPxCapsuleGeometry@physx@@@Z 10009530 f i PxAutoGeneratedMetaDataObjects.obj
 0001:00008530       ?getPxHeightFieldGeometryHeightScale@@YAMPBVPxHeightFieldGeometry@physx@@@Z 10009530 f i PxAutoGeneratedMetaDataObjects.obj
 0001:00008540       ?getPxTolerancesScaleSpeed@@YAMPBVPxTolerancesScale@physx@@@Z 10009540 f i PxAutoGeneratedMetaDataObjects.obj
 0001:00008540       ?getPxSphereGeometryRadius@@YAMPBVPxSphereGeometry@physx@@@Z 10009540 f i PxAutoGeneratedMetaDataObjects.obj
 0001:00008540       ?getPxCapsuleGeometryRadius@@YAMPBVPxCapsuleGeometry@physx@@@Z 10009540 f i PxAutoGeneratedMetaDataObjects.obj
 0001:00008550       ?setPxArticulationBase_SolverIterationCounts@@YAXPAVPxArticulationBase@physx@@II@Z 10009550 f   PxAutoGeneratedMetaDataObjects.obj
 0001:00008550       ?getPxConstraint_Actors@@YAXPBVPxConstraint@physx@@AAPAVPxRigidActor@2@1@Z 10009550 f   PxAutoGeneratedMetaDataObjects.obj
 0001:00008570       ?getPxConstraint_BreakForce@@YAXPBVPxConstraint@physx@@AAM1@Z 10009570 f   PxAutoGeneratedMetaDataObjects.obj
 0001:00008570       ?setPxArticulationJointReducedCoordinate_Motion@@YAXPAVPxArticulationJointReducedCoordinate@physx@@W4Enum@PxArticulationAxis@2@W43PxArticulationMotion@2@@Z 10009570 f   PxAutoGeneratedMetaDataObjects.obj
 0001:00008590       ?getPxConstraint_MinResponseThreshold@@YAMPBVPxConstraint@physx@@@Z 10009590 f   PxAutoGeneratedMetaDataObjects.obj
 0001:000085a0       ?getPxSceneDescFilterShader@@YAP6A?AV?$PxFlags@W4Enum@PxFilterFlag@physx@@G@physx@@IUPxFilterData@2@I0AAV?$PxFlags@W4Enum@PxPairFlag@physx@@G@2@PBXI@ZPBVPxSceneDesc@2@@Z 100095a0 f i PxAutoGeneratedMetaDataObjects.obj
 0001:000085a0       ?getPxConvexMeshGeometryConvexMesh@@YAPAVPxConvexMesh@physx@@PBVPxConvexMeshGeometry@2@@Z 100095a0 f i PxAutoGeneratedMetaDataObjects.obj
 0001:000085b0       ?getPxConvexMeshGeometryMeshFlags@@YA?AV?$PxFlags@W4Enum@PxConvexMeshGeometryFlag@physx@@E@physx@@PBVPxConvexMeshGeometry@2@@Z 100095b0 f i PxAutoGeneratedMetaDataObjects.obj
 0001:000085c0       ?getPxTriangleMeshGeometryScale@@YA?AVPxMeshScale@physx@@PBVPxTriangleMeshGeometry@2@@Z 100095c0 f i PxAutoGeneratedMetaDataObjects.obj
 0001:000085c0       ?getPxConvexMeshGeometryScale@@YA?AVPxMeshScale@physx@@PBVPxConvexMeshGeometry@2@@Z 100095c0 f i PxAutoGeneratedMetaDataObjects.obj
 0001:00008600       ?getPxHeightFieldDescConvexEdgeThreshold@@YAMPBVPxHeightFieldDesc@physx@@@Z 10009600 f i PxAutoGeneratedMetaDataObjects.obj
 0001:00008610       ?getPxHeightFieldDescFlags@@YA?AV?$PxFlags@W4Enum@PxHeightFieldFlag@physx@@G@physx@@PBVPxHeightFieldDesc@2@@Z 10009610 f i PxAutoGeneratedMetaDataObjects.obj
 0001:00008620       ?getPxHeightFieldDescNbColumns@@YAIPBVPxHeightFieldDesc@physx@@@Z 10009620 f i PxAutoGeneratedMetaDataObjects.obj
 0001:00008620       ?getPxHeightFieldGeometryHeightField@@YAPAVPxHeightField@physx@@PBVPxHeightFieldGeometry@2@@Z 10009620 f i PxAutoGeneratedMetaDataObjects.obj
 0001:00008620       ?getPxSimulationStatisticsNbActiveDynamicBodies@@YAIPBVPxSimulationStatistics@physx@@@Z 10009620 f i PxAutoGeneratedMetaDataObjects.obj
 0001:00008620       ?getPxgDynamicsMemoryConfigContactBufferCapacity@@YAIPBUPxgDynamicsMemoryConfig@physx@@@Z 10009620 f i PxAutoGeneratedMetaDataObjects.obj
 0001:00008620       ?getPxSceneLimitsMaxNbBodies@@YAIPBVPxSceneLimits@physx@@@Z 10009620 f i PxAutoGeneratedMetaDataObjects.obj
 0001:00008620       ?getPxSceneUserData@@YAPAXPBVPxScene@physx@@@Z 10009620 f i PxAutoGeneratedMetaDataObjects.obj
 0001:00008630       ?getPxHeightFieldDescNbRows@@YAIPBVPxHeightFieldDesc@physx@@@Z 10009630 f i PxAutoGeneratedMetaDataObjects.obj
 0001:00008630       ?getPxSceneLimitsMaxNbActors@@YAIPBVPxSceneLimits@physx@@@Z 10009630 f i PxAutoGeneratedMetaDataObjects.obj
 0001:00008630       ?getPxgDynamicsMemoryConfigConstraintBufferCapacity@@YAIPBUPxgDynamicsMemoryConfig@physx@@@Z 10009630 f i PxAutoGeneratedMetaDataObjects.obj
 0001:00008630       ?getPxSimulationStatisticsNbActiveConstraints@@YAIPBVPxSimulationStatistics@physx@@@Z 10009630 f i PxAutoGeneratedMetaDataObjects.obj
 0001:00008640       ?getPxHeightFieldDescSamples@@YA?AUPxStridedData@physx@@PBVPxHeightFieldDesc@2@@Z 10009640 f i PxAutoGeneratedMetaDataObjects.obj
 0001:00008660       ?getPxHeightFieldGeometryColumnScale@@YAMPBVPxHeightFieldGeometry@physx@@@Z 10009660 f i PxAutoGeneratedMetaDataObjects.obj
 0001:00008670       ?getPxHeightFieldGeometryHeightFieldFlags@@YA?AV?$PxFlags@W4Enum@PxMeshGeometryFlag@physx@@E@physx@@PBVPxHeightFieldGeometry@2@@Z 10009670 f i PxAutoGeneratedMetaDataObjects.obj
 0001:00008680       ?getPxHeightFieldGeometryRowScale@@YAMPBVPxHeightFieldGeometry@physx@@@Z 10009680 f i PxAutoGeneratedMetaDataObjects.obj
 0001:00008690       ?getPxMaterial_Flags@@YA?AV?$PxFlags@W4Enum@PxMaterialFlag@physx@@G@physx@@PBVPxMaterial@2@@Z 10009690 f   PxAutoGeneratedMetaDataObjects.obj
 0001:000086b0       ?getPxMaterial_RestitutionCombineMode@@YA?AW4Enum@PxCombineMode@physx@@PBVPxMaterial@3@@Z 100096b0 f   PxAutoGeneratedMetaDataObjects.obj
 0001:000086c0       ?getPxMeshScaleRotation@@YA?AVPxQuat@physx@@PBVPxMeshScale@2@@Z 100096c0 f i PxAutoGeneratedMetaDataObjects.obj
 0001:000086e0       ?getPxSceneDescGravity@@YA?AVPxVec3@physx@@PBVPxSceneDesc@2@@Z 100096e0 f i PxAutoGeneratedMetaDataObjects.obj
 0001:000086e0       ?getPxMeshScaleScale@@YA?AVPxVec3@physx@@PBVPxMeshScale@2@@Z 100096e0 f i PxAutoGeneratedMetaDataObjects.obj
 0001:00008700       ?getPxPhysics_BVHStructures@@YAIPBVPxPhysics@physx@@PAPAVPxBVHStructure@2@I@Z 10009700 f   PxAutoGeneratedMetaDataObjects.obj
 0001:00008720       ?getPxPhysics_ConvexMeshes@@YAIPBVPxPhysics@physx@@PAPAVPxConvexMesh@2@I@Z 10009720 f   PxAutoGeneratedMetaDataObjects.obj
 0001:00008740       ?getPxPhysics_HeightFields@@YAIPBVPxPhysics@physx@@PAPAVPxHeightField@2@I@Z 10009740 f   PxAutoGeneratedMetaDataObjects.obj
 0001:00008760       ?getPxPhysics_Materials@@YAIPBVPxPhysics@physx@@PAPAVPxMaterial@2@I@Z 10009760 f   PxAutoGeneratedMetaDataObjects.obj
 0001:00008780       ?getPxPhysics_Shapes@@YAIPBVPxPhysics@physx@@PAPAVPxShape@2@I@Z 10009780 f   PxAutoGeneratedMetaDataObjects.obj
 0001:00008780       ?getPxRigidActor_Constraints@@YAIPBVPxRigidActor@physx@@PAPAVPxConstraint@2@I@Z 10009780 f   PxAutoGeneratedMetaDataObjects.obj
 0001:000087a0       ?getPxPhysics_TolerancesScale@@YA?BVPxTolerancesScale@physx@@PBVPxPhysics@2@@Z 100097a0 f   PxAutoGeneratedMetaDataObjects.obj
 0001:000087c0       ?getPxPhysics_TriangleMeshes@@YAIPBVPxPhysics@physx@@PAPAVPxTriangleMesh@2@I@Z 100097c0 f   PxAutoGeneratedMetaDataObjects.obj
 0001:000087e0       ?getPxPruningStructure_RigidActors@@YAIPBVPxPruningStructure@physx@@PAPAVPxRigidActor@2@I@Z 100097e0 f   PxAutoGeneratedMetaDataObjects.obj
 0001:00008800       ?getPxRigidActor_GlobalPose@@YA?AVPxTransform@physx@@PBVPxRigidActor@2@@Z 10009800 f   PxAutoGeneratedMetaDataObjects.obj
 0001:00008820       ?getPxRigidActor_Shapes@@YAIPBVPxRigidActor@physx@@PAPAVPxShape@2@I@Z 10009820 f   PxAutoGeneratedMetaDataObjects.obj
 0001:00008840       ?getPxRigidBody_AngularDamping@@YAMPBVPxRigidBody@physx@@@Z 10009840 f   PxAutoGeneratedMetaDataObjects.obj
 0001:00008850       ?getPxRigidBody_AngularVelocity@@YA?AVPxVec3@physx@@PBVPxRigidBody@2@@Z 10009850 f   PxAutoGeneratedMetaDataObjects.obj
 0001:00008870       ?getPxRigidBody_CMassLocalPose@@YA?AVPxTransform@physx@@PBVPxRigidBody@2@@Z 10009870 f   PxAutoGeneratedMetaDataObjects.obj
 0001:00008890       ?getPxShape_MinTorsionalPatchRadius@@YAMPBVPxShape@physx@@@Z 10009890 f   PxAutoGeneratedMetaDataObjects.obj
 0001:00008890       ?getPxRigidBody_LinearDamping@@YAMPBVPxRigidBody@physx@@@Z 10009890 f   PxAutoGeneratedMetaDataObjects.obj
 0001:000088a0       ?getPxShape_Flags@@YA?AV?$PxFlags@W4Enum@PxShapeFlag@physx@@E@physx@@PBVPxShape@2@@Z 100098a0 f   PxAutoGeneratedMetaDataObjects.obj
 0001:000088a0       ?getPxRigidBody_LinearVelocity@@YA?AVPxVec3@physx@@PBVPxRigidBody@2@@Z 100098a0 f   PxAutoGeneratedMetaDataObjects.obj
 0001:000088c0       ?getPxShape_ContactOffset@@YAMPBVPxShape@physx@@@Z 100098c0 f   PxAutoGeneratedMetaDataObjects.obj
 0001:000088c0       ?getPxRigidBody_Mass@@YAMPBVPxRigidBody@physx@@@Z 100098c0 f   PxAutoGeneratedMetaDataObjects.obj
 0001:000088d0       ?getPxRigidBody_MassSpaceInertiaTensor@@YA?AVPxVec3@physx@@PBVPxRigidBody@2@@Z 100098d0 f   PxAutoGeneratedMetaDataObjects.obj
 0001:000088f0       ?getPxRigidBody_MassSpaceInvInertiaTensor@@YA?AVPxVec3@physx@@PBVPxRigidBody@2@@Z 100098f0 f   PxAutoGeneratedMetaDataObjects.obj
 0001:00008910       ?getPxRigidBody_MaxAngularVelocity@@YAMPBVPxRigidBody@physx@@@Z 10009910 f   PxAutoGeneratedMetaDataObjects.obj
 0001:00008920       ?getPxRigidBody_MaxContactImpulse@@YAMPBVPxRigidBody@physx@@@Z 10009920 f   PxAutoGeneratedMetaDataObjects.obj
 0001:00008930       ?getPxRigidBody_MaxDepenetrationVelocity@@YAMPBVPxRigidBody@physx@@@Z 10009930 f   PxAutoGeneratedMetaDataObjects.obj
 0001:00008940       ?getPxRigidBody_MaxLinearVelocity@@YAMPBVPxRigidBody@physx@@@Z 10009940 f   PxAutoGeneratedMetaDataObjects.obj
 0001:00008950       ?getPxRigidBody_MinCCDAdvanceCoefficient@@YAMPBVPxRigidBody@physx@@@Z 10009950 f   PxAutoGeneratedMetaDataObjects.obj
 0001:00008960       ?getPxRigidBody_RigidBodyFlags@@YA?AV?$PxFlags@W4Enum@PxRigidBodyFlag@physx@@G@physx@@PBVPxRigidBody@2@@Z 10009960 f   PxAutoGeneratedMetaDataObjects.obj
 0001:00008980       ?getPxRigidDynamic_ContactReportThreshold@@YAMPBVPxRigidDynamic@physx@@@Z 10009980 f   PxAutoGeneratedMetaDataObjects.obj
 0001:00008990       ?getPxRigidDynamic_IsSleeping@@YA_NPBVPxRigidDynamic@physx@@@Z 10009990 f   PxAutoGeneratedMetaDataObjects.obj
 0001:000089a0       ?getPxRigidDynamic_RigidDynamicLockFlags@@YA?AV?$PxFlags@W4Enum@PxRigidDynamicLockFlag@physx@@E@physx@@PBVPxRigidDynamic@2@@Z 100099a0 f   PxAutoGeneratedMetaDataObjects.obj
 0001:000089c0       ?getPxRigidDynamic_SleepThreshold@@YAMPBVPxRigidDynamic@physx@@@Z 100099c0 f   PxAutoGeneratedMetaDataObjects.obj
 0001:000089c0       ?getPxScene_FrictionOffsetThreshold@@YAMPBVPxScene@physx@@@Z 100099c0 f   PxAutoGeneratedMetaDataObjects.obj
 0001:000089d0       ?getPxRigidDynamic_SolverIterationCounts@@YAXPBVPxRigidDynamic@physx@@AAI1@Z 100099d0 f   PxAutoGeneratedMetaDataObjects.obj
 0001:000089f0       ?getPxRigidDynamic_StabilizationThreshold@@YAMPBVPxRigidDynamic@physx@@@Z 100099f0 f   PxAutoGeneratedMetaDataObjects.obj
 0001:00008a00       ?getPxRigidDynamic_WakeCounter@@YAMPBVPxRigidDynamic@physx@@@Z 10009a00 f   PxAutoGeneratedMetaDataObjects.obj
 0001:00008a10       ?getPxSceneDescBounceThresholdVelocity@@YAMPBVPxSceneDesc@physx@@@Z 10009a10 f i PxAutoGeneratedMetaDataObjects.obj
 0001:00008a20       ?getPxSimulationStatisticsNbAggregates@@YAIPBVPxSimulationStatistics@physx@@@Z 10009a20 f i PxAutoGeneratedMetaDataObjects.obj
 0001:00008a20       ?getPxSceneDescBroadPhaseCallback@@YAPAVPxBroadPhaseCallback@physx@@PBVPxSceneDesc@2@@Z 10009a20 f i PxAutoGeneratedMetaDataObjects.obj
 0001:00008a30       ?getPxSceneDescBroadPhaseType@@YA?AW4Enum@PxBroadPhaseType@physx@@PBVPxSceneDesc@3@@Z 10009a30 f i PxAutoGeneratedMetaDataObjects.obj
 0001:00008a40       ?getPxSceneLimitsMaxNbConstraints@@YAIPBVPxSceneLimits@physx@@@Z 10009a40 f i PxAutoGeneratedMetaDataObjects.obj
 0001:00008a40       ?getPxSceneDescCcdContactModifyCallback@@YAPAVPxCCDContactModifyCallback@physx@@PBVPxSceneDesc@2@@Z 10009a40 f i PxAutoGeneratedMetaDataObjects.obj
 0001:00008a40       ?getPxgDynamicsMemoryConfigForceStreamCapacity@@YAIPBUPxgDynamicsMemoryConfig@physx@@@Z 10009a40 f i PxAutoGeneratedMetaDataObjects.obj
 0001:00008a40       ?getPxSimulationStatisticsNbKinematicBodies@@YAIPBVPxSimulationStatistics@physx@@@Z 10009a40 f i PxAutoGeneratedMetaDataObjects.obj
 0001:00008a50       ?getPxSceneDescCcdMaxPasses@@YAIPBVPxSceneDesc@physx@@@Z 10009a50 f i PxAutoGeneratedMetaDataObjects.obj
 0001:00008a60       ?getPxSceneDescCcdMaxSeparation@@YAMPBVPxSceneDesc@physx@@@Z 10009a60 f i PxAutoGeneratedMetaDataObjects.obj
 0001:00008a70       ?getPxSceneDescCcdThreshold@@YAMPBVPxSceneDesc@physx@@@Z 10009a70 f i PxAutoGeneratedMetaDataObjects.obj
 0001:00008a80       ?getPxSceneDescContactModifyCallback@@YAPAVPxContactModifyCallback@physx@@PBVPxSceneDesc@2@@Z 10009a80 f i PxAutoGeneratedMetaDataObjects.obj
 0001:00008a80       ?getPxSceneLimitsMaxNbAggregates@@YAIPBVPxSceneLimits@physx@@@Z 10009a80 f i PxAutoGeneratedMetaDataObjects.obj
 0001:00008a80       ?getPxSimulationStatisticsNbDynamicBodies@@YAIPBVPxSimulationStatistics@physx@@@Z 10009a80 f i PxAutoGeneratedMetaDataObjects.obj
 0001:00008a80       ?getPxgDynamicsMemoryConfigPatchStreamSize@@YAIPBUPxgDynamicsMemoryConfig@physx@@@Z 10009a80 f i PxAutoGeneratedMetaDataObjects.obj
 0001:00008a90       ?getPxSceneDescContactReportStreamBufferSize@@YAIPBVPxSceneDesc@physx@@@Z 10009a90 f i PxAutoGeneratedMetaDataObjects.obj
 0001:00008aa0       ?getPxSceneDescCpuDispatcher@@YAPAVPxCpuDispatcher@physx@@PBVPxSceneDesc@2@@Z 10009aa0 f i PxAutoGeneratedMetaDataObjects.obj
 0001:00008ab0       ?getPxSceneDescCudaContextManager@@YAPAVPxCudaContextManager@physx@@PBVPxSceneDesc@2@@Z 10009ab0 f i PxAutoGeneratedMetaDataObjects.obj
 0001:00008ac0       ?getPxSceneDescDynamicStructure@@YA?AW4Enum@PxPruningStructureType@physx@@PBVPxSceneDesc@3@@Z 10009ac0 f i PxAutoGeneratedMetaDataObjects.obj
 0001:00008ad0       ?getPxSceneDescDynamicTreeRebuildRateHint@@YAIPBVPxSceneDesc@physx@@@Z 10009ad0 f i PxAutoGeneratedMetaDataObjects.obj
 0001:00008ae0       ?getPxTriangleMeshGeometryTriangleMesh@@YAPAVPxTriangleMesh@physx@@PBVPxTriangleMeshGeometry@2@@Z 10009ae0 f i PxAutoGeneratedMetaDataObjects.obj
 0001:00008ae0       ?getPxSceneDescFilterCallback@@YAPAVPxSimulationFilterCallback@physx@@PBVPxSceneDesc@2@@Z 10009ae0 f i PxAutoGeneratedMetaDataObjects.obj
 0001:00008af0       ?getPxgDynamicsMemoryConfigHeapCapacity@@YAIPBUPxgDynamicsMemoryConfig@physx@@@Z 10009af0 f i PxAutoGeneratedMetaDataObjects.obj
 0001:00008af0       ?getPxSceneLimitsMaxNbRegions@@YAIPBVPxSceneLimits@physx@@@Z 10009af0 f i PxAutoGeneratedMetaDataObjects.obj
 0001:00008af0       ?getPxSceneDescFilterShaderData@@YAPBXPBVPxSceneDesc@physx@@@Z 10009af0 f i PxAutoGeneratedMetaDataObjects.obj
 0001:00008b00       ?getPxgDynamicsMemoryConfigFoundLostPairsCapacity@@YAIPBUPxgDynamicsMemoryConfig@physx@@@Z 10009b00 f i PxAutoGeneratedMetaDataObjects.obj
 0001:00008b00       ?getPxSceneLimitsMaxNbBroadPhaseOverlaps@@YAIPBVPxSceneLimits@physx@@@Z 10009b00 f i PxAutoGeneratedMetaDataObjects.obj
 0001:00008b00       ?getPxSceneDescFilterShaderDataSize@@YAIPBVPxSceneDesc@physx@@@Z 10009b00 f i PxAutoGeneratedMetaDataObjects.obj
 0001:00008b10       ?getPxSceneDescFlags@@YA?AV?$PxFlags@W4Enum@PxSceneFlag@physx@@I@physx@@PBVPxSceneDesc@2@@Z 10009b10 f i PxAutoGeneratedMetaDataObjects.obj
 0001:00008b20       ?getPxSceneDescFrictionOffsetThreshold@@YAMPBVPxSceneDesc@physx@@@Z 10009b20 f i PxAutoGeneratedMetaDataObjects.obj
 0001:00008b30       ?getPxSimulationStatisticsNbNewPairs@@YAIPBVPxSimulationStatistics@physx@@@Z 10009b30 f i PxAutoGeneratedMetaDataObjects.obj
 0001:00008b30       ?getPxSceneDescFrictionType@@YA?AW4Enum@PxFrictionType@physx@@PBVPxSceneDesc@3@@Z 10009b30 f i PxAutoGeneratedMetaDataObjects.obj
 0001:00008b40       ?getPxSceneDescGpuComputeVersion@@YAIPBVPxSceneDesc@physx@@@Z 10009b40 f i PxAutoGeneratedMetaDataObjects.obj
 0001:00008b50       ?getPxSceneDescGpuDynamicsConfig@@YA?AUPxgDynamicsMemoryConfig@physx@@PBVPxSceneDesc@2@@Z 10009b50 f i PxAutoGeneratedMetaDataObjects.obj
 0001:00008b70       ?getPxSceneDescGpuMaxNumPartitions@@YAIPBVPxSceneDesc@physx@@@Z 10009b70 f i PxAutoGeneratedMetaDataObjects.obj
 0001:00008b80       ?getPxSceneDescKineKineFilteringMode@@YA?AW4Enum@PxPairFilteringMode@physx@@PBVPxSceneDesc@3@@Z 10009b80 f i PxAutoGeneratedMetaDataObjects.obj
 0001:00008b90       ?getPxSceneDescLimits@@YA?AVPxSceneLimits@physx@@PBVPxSceneDesc@2@@Z 10009b90 f i PxAutoGeneratedMetaDataObjects.obj
 0001:00008bb0       ?getPxSceneDescMaxBiasCoefficient@@YAMPBVPxSceneDesc@physx@@@Z 10009bb0 f i PxAutoGeneratedMetaDataObjects.obj
 0001:00008bc0       ?getPxSceneDescMaxNbContactDataBlocks@@YAIPBVPxSceneDesc@physx@@@Z 10009bc0 f i PxAutoGeneratedMetaDataObjects.obj
 0001:00008bd0       ?getPxSceneDescNbContactDataBlocks@@YAIPBVPxSceneDesc@physx@@@Z 10009bd0 f i PxAutoGeneratedMetaDataObjects.obj
 0001:00008be0       ?getPxSceneDescSanityBounds@@YA?AVPxBounds3@physx@@PBVPxSceneDesc@2@@Z 10009be0 f i PxAutoGeneratedMetaDataObjects.obj
 0001:00008c30       ?getPxSceneDescSceneQueryUpdateMode@@YA?AW4Enum@PxSceneQueryUpdateMode@physx@@PBVPxSceneDesc@3@@Z 10009c30 f i PxAutoGeneratedMetaDataObjects.obj
 0001:00008c40       ?getPxgDynamicsMemoryConfigContactStreamSize@@YAIPBUPxgDynamicsMemoryConfig@physx@@@Z 10009c40 f i PxAutoGeneratedMetaDataObjects.obj
 0001:00008c40       ?getPxSceneLimitsMaxNbDynamicShapes@@YAIPBVPxSceneLimits@physx@@@Z 10009c40 f i PxAutoGeneratedMetaDataObjects.obj
 0001:00008c40       ?getPxSimulationStatisticsNbStaticBodies@@YAIPBVPxSimulationStatistics@physx@@@Z 10009c40 f i PxAutoGeneratedMetaDataObjects.obj
 0001:00008c40       ?getPxSceneDescSimulationEventCallback@@YAPAVPxSimulationEventCallback@physx@@PBVPxSceneDesc@2@@Z 10009c40 f i PxAutoGeneratedMetaDataObjects.obj
 0001:00008c50       ?getPxSceneDescSolverArticulationBatchSize@@YAIPBVPxSceneDesc@physx@@@Z 10009c50 f i PxAutoGeneratedMetaDataObjects.obj
 0001:00008c60       ?getPxSceneDescSolverBatchSize@@YAIPBVPxSceneDesc@physx@@@Z 10009c60 f i PxAutoGeneratedMetaDataObjects.obj
 0001:00008c70       ?getPxSceneDescSolverOffsetSlop@@YAMPBVPxSceneDesc@physx@@@Z 10009c70 f i PxAutoGeneratedMetaDataObjects.obj
 0001:00008c80       ?getPxSimulationStatisticsNbLostPairs@@YAIPBVPxSimulationStatistics@physx@@@Z 10009c80 f i PxAutoGeneratedMetaDataObjects.obj
 0001:00008c80       ?getPxSceneDescSolverType@@YA?AW4Enum@PxSolverType@physx@@PBVPxSceneDesc@3@@Z 10009c80 f i PxAutoGeneratedMetaDataObjects.obj
 0001:00008c90       ?getPxSceneDescStaticKineFilteringMode@@YA?AW4Enum@PxPairFilteringMode@physx@@PBVPxSceneDesc@3@@Z 10009c90 f i PxAutoGeneratedMetaDataObjects.obj
 0001:00008ca0       ?getPxSceneDescStaticStructure@@YA?AW4Enum@PxPruningStructureType@physx@@PBVPxSceneDesc@3@@Z 10009ca0 f i PxAutoGeneratedMetaDataObjects.obj
 0001:00008cb0       ?getPxSceneDescUserData@@YAPAXPBVPxSceneDesc@physx@@@Z 10009cb0 f i PxAutoGeneratedMetaDataObjects.obj
 0001:00008cc0       ?getPxSceneDescWakeCounterResetValue@@YAMPBVPxSceneDesc@physx@@@Z 10009cc0 f i PxAutoGeneratedMetaDataObjects.obj
 0001:00008cd0       ?getPxScene_Actors@@YAIPBVPxScene@physx@@V?$PxFlags@W4Enum@PxActorTypeFlag@physx@@G@2@PAPAVPxActor@2@I@Z 10009cd0 f   PxAutoGeneratedMetaDataObjects.obj
 0001:00008cf0       ?getPxScene_Aggregates@@YAIPBVPxScene@physx@@PAPAVPxAggregate@2@I@Z 10009cf0 f   PxAutoGeneratedMetaDataObjects.obj
 0001:00008cf0       ?getPxShape_Materials@@YAIPBVPxShape@physx@@PAPAVPxMaterial@2@I@Z 10009cf0 f   PxAutoGeneratedMetaDataObjects.obj
 0001:00008d10       ?getPxScene_Articulations@@YAIPBVPxScene@physx@@PAPAVPxArticulationBase@2@I@Z 10009d10 f   PxAutoGeneratedMetaDataObjects.obj
 0001:00008d30       ?getPxScene_BounceThresholdVelocity@@YAMPBVPxScene@physx@@@Z 10009d30 f   PxAutoGeneratedMetaDataObjects.obj
 0001:00008d40       ?getPxScene_BroadPhaseCallback@@YAPAVPxBroadPhaseCallback@physx@@PBVPxScene@2@@Z 10009d40 f   PxAutoGeneratedMetaDataObjects.obj
 0001:00008d50       ?getPxScene_BroadPhaseRegions@@YAIPBVPxScene@physx@@PAUPxBroadPhaseRegionInfo@2@I@Z 10009d50 f   PxAutoGeneratedMetaDataObjects.obj
 0001:00008d70       ?getPxScene_BroadPhaseType@@YA?AW4Enum@PxBroadPhaseType@physx@@PBVPxScene@3@@Z 10009d70 f   PxAutoGeneratedMetaDataObjects.obj
 0001:00008d80       ?getPxScene_CCDContactModifyCallback@@YAPAVPxCCDContactModifyCallback@physx@@PBVPxScene@2@@Z 10009d80 f   PxAutoGeneratedMetaDataObjects.obj
 0001:00008d90       ?getPxScene_Constraints@@YAIPBVPxScene@physx@@PAPAVPxConstraint@2@I@Z 10009d90 f   PxAutoGeneratedMetaDataObjects.obj
 0001:00008db0       ?getPxScene_ContactModifyCallback@@YAPAVPxContactModifyCallback@physx@@PBVPxScene@2@@Z 10009db0 f   PxAutoGeneratedMetaDataObjects.obj
 0001:00008dc0       ?getPxScene_ContactReportStreamBufferSize@@YAIPBVPxScene@physx@@@Z 10009dc0 f   PxAutoGeneratedMetaDataObjects.obj
 0001:00008dd0       ?getPxScene_DynamicStructure@@YA?AW4Enum@PxPruningStructureType@physx@@PBVPxScene@3@@Z 10009dd0 f   PxAutoGeneratedMetaDataObjects.obj
 0001:00008de0       ?getPxScene_DynamicTreeRebuildRateHint@@YAIPBVPxScene@physx@@@Z 10009de0 f   PxAutoGeneratedMetaDataObjects.obj
 0001:00008df0       ?getPxScene_FilterCallback@@YAPAVPxSimulationFilterCallback@physx@@PBVPxScene@2@@Z 10009df0 f   PxAutoGeneratedMetaDataObjects.obj
 0001:00008e00       ?getPxScene_FilterShader@@YAP6A?AV?$PxFlags@W4Enum@PxFilterFlag@physx@@G@physx@@IUPxFilterData@2@I0AAV?$PxFlags@W4Enum@PxPairFlag@physx@@G@2@PBXI@ZPBVPxScene@2@@Z 10009e00 f   PxAutoGeneratedMetaDataObjects.obj
 0001:00008e10       ?getPxScene_FilterShaderDataSize@@YAIPBVPxScene@physx@@@Z 10009e10 f   PxAutoGeneratedMetaDataObjects.obj
 0001:00008e20       ?getPxScene_Flags@@YA?AV?$PxFlags@W4Enum@PxSceneFlag@physx@@I@physx@@PBVPxScene@2@@Z 10009e20 f   PxAutoGeneratedMetaDataObjects.obj
 0001:00008e40       ?getPxScene_FrictionType@@YA?AW4Enum@PxFrictionType@physx@@PBVPxScene@3@@Z 10009e40 f   PxAutoGeneratedMetaDataObjects.obj
 0001:00008e50       ?getPxScene_Gravity@@YA?AVPxVec3@physx@@PBVPxScene@2@@Z 10009e50 f   PxAutoGeneratedMetaDataObjects.obj
 0001:00008e70       ?getPxScene_KinematicKinematicFilteringMode@@YA?AW4Enum@PxPairFilteringMode@physx@@PBVPxScene@3@@Z 10009e70 f   PxAutoGeneratedMetaDataObjects.obj
 0001:00008e80       ?getPxScene_Limits@@YA?AVPxSceneLimits@physx@@PBVPxScene@2@@Z 10009e80 f   PxAutoGeneratedMetaDataObjects.obj
 0001:00008ea0       ?getPxScene_MaxNbContactDataBlocksUsed@@YAIPBVPxScene@physx@@@Z 10009ea0 f   PxAutoGeneratedMetaDataObjects.obj
 0001:00008eb0       ?getPxScene_SceneQueryStaticTimestamp@@YAIPBVPxScene@physx@@@Z 10009eb0 f   PxAutoGeneratedMetaDataObjects.obj
 0001:00008ec0       ?getPxScene_SceneQueryUpdateMode@@YA?AW4Enum@PxSceneQueryUpdateMode@physx@@PBVPxScene@3@@Z 10009ec0 f   PxAutoGeneratedMetaDataObjects.obj
 0001:00008ed0       ?getPxScene_SolverArticulationBatchSize@@YAIPBVPxScene@physx@@@Z 10009ed0 f   PxAutoGeneratedMetaDataObjects.obj
 0001:00008ee0       ?getPxScene_SolverBatchSize@@YAIPBVPxScene@physx@@@Z 10009ee0 f   PxAutoGeneratedMetaDataObjects.obj
 0001:00008ef0       ?getPxScene_StaticKinematicFilteringMode@@YA?AW4Enum@PxPairFilteringMode@physx@@PBVPxScene@3@@Z 10009ef0 f   PxAutoGeneratedMetaDataObjects.obj
 0001:00008f00       ?getPxScene_StaticStructure@@YA?AW4Enum@PxPruningStructureType@physx@@PBVPxScene@3@@Z 10009f00 f   PxAutoGeneratedMetaDataObjects.obj
 0001:00008f10       ?getPxScene_TaskManager@@YAPAVPxTaskManager@physx@@PBVPxScene@2@@Z 10009f10 f   PxAutoGeneratedMetaDataObjects.obj
 0001:00008f20       ?getPxScene_Timestamp@@YAIPBVPxScene@physx@@@Z 10009f20 f   PxAutoGeneratedMetaDataObjects.obj
 0001:00008f20       ?getPxShape_GeometryType@@YA?AW4Enum@PxGeometryType@physx@@PBVPxShape@3@@Z 10009f20 f   PxAutoGeneratedMetaDataObjects.obj
 0001:00008f30       ?getPxScene_VisualizationCullingBox@@YA?AVPxBounds3@physx@@PBVPxScene@2@@Z 10009f30 f   PxAutoGeneratedMetaDataObjects.obj
 0001:00008f50       ?getPxScene_WakeCounterResetValue@@YAMPBVPxScene@physx@@@Z 10009f50 f   PxAutoGeneratedMetaDataObjects.obj
 0001:00008f60       ?getPxShape_IsExclusive@@YA_NPBVPxShape@physx@@@Z 10009f60 f   PxAutoGeneratedMetaDataObjects.obj
 0001:00008f70       ?getPxShape_LocalPose@@YA?AVPxTransform@physx@@PBVPxShape@2@@Z 10009f70 f   PxAutoGeneratedMetaDataObjects.obj
 0001:00008f90       ?getPxShape_Name@@YAPBDPBVPxShape@physx@@@Z 10009f90 f   PxAutoGeneratedMetaDataObjects.obj
 0001:00008fa0       ?getPxShape_QueryFilterData@@YA?AUPxFilterData@physx@@PBVPxShape@2@@Z 10009fa0 f   PxAutoGeneratedMetaDataObjects.obj
 0001:00008fc0       ?getPxShape_SimulationFilterData@@YA?AUPxFilterData@physx@@PBVPxShape@2@@Z 10009fc0 f   PxAutoGeneratedMetaDataObjects.obj
 0001:00008fe0       ?getPxShape_TorsionalPatchRadius@@YAMPBVPxShape@physx@@@Z 10009fe0 f   PxAutoGeneratedMetaDataObjects.obj
 0001:00008ff0       ?getPxSimulationStatisticsCompressedContactSize@@YAIPBVPxSimulationStatistics@physx@@@Z 10009ff0 f i PxAutoGeneratedMetaDataObjects.obj
 0001:00009000       ?getPxSimulationStatisticsNbArticulations@@YAIPBVPxSimulationStatistics@physx@@@Z 1000a000 f i PxAutoGeneratedMetaDataObjects.obj
 0001:00009010       ?getPxSimulationStatisticsNbAxisSolverConstraints@@YAIPBVPxSimulationStatistics@physx@@@Z 1000a010 f i PxAutoGeneratedMetaDataObjects.obj
 0001:00009020       ?getPxSimulationStatisticsNbBroadPhaseAdds@@YAIPBVPxSimulationStatistics@physx@@@Z 1000a020 f i PxAutoGeneratedMetaDataObjects.obj
 0001:00009030       ?getPxSimulationStatisticsNbBroadPhaseRemoves@@YAIPBVPxSimulationStatistics@physx@@@Z 1000a030 f i PxAutoGeneratedMetaDataObjects.obj
 0001:00009040       ?getPxSimulationStatisticsNbDiscreteContactPairsTotal@@YAIPBVPxSimulationStatistics@physx@@@Z 1000a040 f i PxAutoGeneratedMetaDataObjects.obj
 0001:00009050       ?getPxSimulationStatisticsNbDiscreteContactPairsWithCacheHits@@YAIPBVPxSimulationStatistics@physx@@@Z 1000a050 f i PxAutoGeneratedMetaDataObjects.obj
 0001:00009060       ?getPxSimulationStatisticsNbDiscreteContactPairsWithContacts@@YAIPBVPxSimulationStatistics@physx@@@Z 1000a060 f i PxAutoGeneratedMetaDataObjects.obj
 0001:00009070       ?getPxSimulationStatisticsNbLostTouches@@YAIPBVPxSimulationStatistics@physx@@@Z 1000a070 f i PxAutoGeneratedMetaDataObjects.obj
 0001:00009080       ?getPxSimulationStatisticsNbNewTouches@@YAIPBVPxSimulationStatistics@physx@@@Z 1000a080 f i PxAutoGeneratedMetaDataObjects.obj
 0001:00009090       ?getPxSimulationStatisticsNbPartitions@@YAIPBVPxSimulationStatistics@physx@@@Z 1000a090 f i PxAutoGeneratedMetaDataObjects.obj
 0001:000090a0       ?getPxSimulationStatisticsPeakConstraintMemory@@YAIPBVPxSimulationStatistics@physx@@@Z 1000a0a0 f i PxAutoGeneratedMetaDataObjects.obj
 0001:000090b0       ?getPxSimulationStatisticsRequiredContactConstraintMemory@@YAIPBVPxSimulationStatistics@physx@@@Z 1000a0b0 f i PxAutoGeneratedMetaDataObjects.obj
 0001:000090c0       ?getPxTolerancesScaleLength@@YAMPBVPxTolerancesScale@physx@@@Z 1000a0c0 f i PxAutoGeneratedMetaDataObjects.obj
 0001:000090d0       ?getPxTolerancesScale_IsValid@@YA_NPBVPxTolerancesScale@physx@@@Z 1000a0d0 f   PxAutoGeneratedMetaDataObjects.obj
 0001:000090f0       ?getPxTriangleMeshGeometryMeshFlags@@YA?AV?$PxFlags@W4Enum@PxMeshGeometryFlag@physx@@E@physx@@PBVPxTriangleMeshGeometry@2@@Z 1000a0f0 f i PxAutoGeneratedMetaDataObjects.obj
 0001:00009100       ?setPxSceneLimitsMaxNbStaticShapes@@YAXPAVPxSceneLimits@physx@@I@Z 1000a100 f i PxAutoGeneratedMetaDataObjects.obj
 0001:00009100       ?setPxMaterialUserData@@YAXPAVPxMaterial@physx@@PAX@Z 1000a100 f i PxAutoGeneratedMetaDataObjects.obj
 0001:00009100       ?setPxSimulationStatisticsNbActiveKinematicBodies@@YAXPAVPxSimulationStatistics@physx@@I@Z 1000a100 f i PxAutoGeneratedMetaDataObjects.obj
 0001:00009100       ?setPxArticulationBaseUserData@@YAXPAVPxArticulationBase@physx@@PAX@Z 1000a100 f i PxAutoGeneratedMetaDataObjects.obj
 0001:00009100       ?setPxHeightFieldDescFormat@@YAXPAVPxHeightFieldDesc@physx@@W4Enum@PxHeightFieldFormat@2@@Z 1000a100 f i PxAutoGeneratedMetaDataObjects.obj
 0001:00009100       ?setPxgDynamicsMemoryConfigTempBufferCapacity@@YAXPAUPxgDynamicsMemoryConfig@physx@@I@Z 1000a100 f i PxAutoGeneratedMetaDataObjects.obj
 0001:00009100       ?setPxShapeUserData@@YAXPAVPxShape@physx@@PAX@Z 1000a100 f i PxAutoGeneratedMetaDataObjects.obj
 0001:00009100       ?setPxActorUserData@@YAXPAVPxActor@physx@@PAX@Z 1000a100 f i PxAutoGeneratedMetaDataObjects.obj
 0001:00009110       ?setPxActor_ActorFlags@@YAXPAVPxActor@physx@@V?$PxFlags@W4Enum@PxActorFlag@physx@@E@2@@Z 1000a110 f   PxAutoGeneratedMetaDataObjects.obj
 0001:00009130       ?setPxActor_DominanceGroup@@YAXPAVPxActor@physx@@E@Z 1000a130 f   PxAutoGeneratedMetaDataObjects.obj
 0001:00009130       ?setPxArticulationJointReducedCoordinate_JointType@@YAXPAVPxArticulationJointReducedCoordinate@physx@@W4Enum@PxArticulationJointType@2@@Z 1000a130 f   PxAutoGeneratedMetaDataObjects.obj
 0001:00009130       ?setPxArticulationJoint_TargetOrientation@@YAXPAVPxArticulationJoint@physx@@ABVPxQuat@2@@Z 1000a130 f   PxAutoGeneratedMetaDataObjects.obj
 0001:00009140       ?setPxActor_Name@@YAXPAVPxActor@physx@@PBD@Z 1000a140 f   PxAutoGeneratedMetaDataObjects.obj
 0001:00009150       ?setPxActor_OwnerClient@@YAXPAVPxActor@physx@@E@Z 1000a150 f   PxAutoGeneratedMetaDataObjects.obj
 0001:00009150       ?setPxArticulationJoint_TargetVelocity@@YAXPAVPxArticulationJoint@physx@@ABVPxVec3@2@@Z 1000a150 f   PxAutoGeneratedMetaDataObjects.obj
 0001:00009160       ?setPxArticulationBase_Name@@YAXPAVPxArticulationBase@physx@@PBD@Z 1000a160 f   PxAutoGeneratedMetaDataObjects.obj
 0001:00009160       ?setPxShape_SimulationFilterData@@YAXPAVPxShape@physx@@ABUPxFilterData@2@@Z 1000a160 f   PxAutoGeneratedMetaDataObjects.obj
 0001:00009170       ?setPxArticulationBase_SleepThreshold@@YAXPAVPxArticulationBase@physx@@M@Z 1000a170 f   PxAutoGeneratedMetaDataObjects.obj
 0001:00009170       ?setPxMaterial_StaticFriction@@YAXPAVPxMaterial@physx@@M@Z 1000a170 f   PxAutoGeneratedMetaDataObjects.obj
 0001:00009190       ?setPxMaterial_Restitution@@YAXPAVPxMaterial@physx@@M@Z 1000a190 f   PxAutoGeneratedMetaDataObjects.obj
 0001:00009190       ?setPxArticulationBase_StabilizationThreshold@@YAXPAVPxArticulationBase@physx@@M@Z 1000a190 f   PxAutoGeneratedMetaDataObjects.obj
 0001:000091b0       ?setPxArticulationBase_WakeCounter@@YAXPAVPxArticulationBase@physx@@M@Z 1000a1b0 f   PxAutoGeneratedMetaDataObjects.obj
 0001:000091d0       ?setPxArticulationJointBase_ChildPose@@YAXPAVPxArticulationJointBase@physx@@ABVPxTransform@2@@Z 1000a1d0 f   PxAutoGeneratedMetaDataObjects.obj
 0001:000091e0       ?setPxArticulationJointBase_ParentPose@@YAXPAVPxArticulationJointBase@physx@@ABVPxTransform@2@@Z 1000a1e0 f   PxAutoGeneratedMetaDataObjects.obj
 0001:000091f0       ?setPxArticulationJointReducedCoordinate_FrictionCoefficient@@YAXPAVPxArticulationJointReducedCoordinate@physx@@M@Z 1000a1f0 f   PxAutoGeneratedMetaDataObjects.obj
 0001:000091f0       ?setPxArticulationJoint_ExternalCompliance@@YAXPAVPxArticulationJoint@physx@@M@Z 1000a1f0 f   PxAutoGeneratedMetaDataObjects.obj
 0001:00009210       ?setPxArticulationJointReducedCoordinate_MaxJointVelocity@@YAXPAVPxArticulationJointReducedCoordinate@physx@@M@Z 1000a210 f   PxAutoGeneratedMetaDataObjects.obj
 0001:00009230       ?setPxArticulationJoint_Damping@@YAXPAVPxArticulationJoint@physx@@M@Z 1000a230 f   PxAutoGeneratedMetaDataObjects.obj
 0001:00009250       ?setPxArticulationJoint_InternalCompliance@@YAXPAVPxArticulationJoint@physx@@M@Z 1000a250 f   PxAutoGeneratedMetaDataObjects.obj
 0001:00009270       ?setPxArticulationJoint_Stiffness@@YAXPAVPxArticulationJoint@physx@@M@Z 1000a270 f   PxAutoGeneratedMetaDataObjects.obj
 0001:00009290       ?setPxArticulationJoint_SwingLimit@@YAXPAVPxArticulationJoint@physx@@MM@Z 1000a290 f   PxAutoGeneratedMetaDataObjects.obj
 0001:000092c0       ?setPxArticulationJoint_SwingLimitContactDistance@@YAXPAVPxArticulationJoint@physx@@M@Z 1000a2c0 f   PxAutoGeneratedMetaDataObjects.obj
 0001:000092e0       ?setPxScene_CCDContactModifyCallback@@YAXPAVPxScene@physx@@PAVPxCCDContactModifyCallback@2@@Z 1000a2e0 f   PxAutoGeneratedMetaDataObjects.obj
 0001:000092e0       ?setPxArticulationJoint_SwingLimitEnabled@@YAXPAVPxArticulationJoint@physx@@_N@Z 1000a2e0 f   PxAutoGeneratedMetaDataObjects.obj
 0001:00009300       ?setPxArticulationJoint_TangentialDamping@@YAXPAVPxArticulationJoint@physx@@M@Z 1000a300 f   PxAutoGeneratedMetaDataObjects.obj
 0001:00009320       ?setPxArticulationJoint_TangentialStiffness@@YAXPAVPxArticulationJoint@physx@@M@Z 1000a320 f   PxAutoGeneratedMetaDataObjects.obj
 0001:00009340       ?setPxArticulationJoint_TwistLimit@@YAXPAVPxArticulationJoint@physx@@MM@Z 1000a340 f   PxAutoGeneratedMetaDataObjects.obj
 0001:00009370       ?setPxArticulationJoint_TwistLimitContactDistance@@YAXPAVPxArticulationJoint@physx@@M@Z 1000a370 f   PxAutoGeneratedMetaDataObjects.obj
 0001:00009390       ?setPxArticulationJoint_TwistLimitEnabled@@YAXPAVPxArticulationJoint@physx@@_N@Z 1000a390 f   PxAutoGeneratedMetaDataObjects.obj
 0001:000093b0       ?setPxArticulationReducedCoordinate_ArticulationFlags@@YAXPAVPxArticulationReducedCoordinate@physx@@V?$PxFlags@W4Enum@PxArticulationFlag@physx@@E@2@@Z 1000a3b0 f   PxAutoGeneratedMetaDataObjects.obj
 0001:000093d0       ?setPxScene_ContactModifyCallback@@YAXPAVPxScene@physx@@PAVPxContactModifyCallback@2@@Z 1000a3d0 f   PxAutoGeneratedMetaDataObjects.obj
 0001:000093d0       ?setPxArticulation_ExternalDriveIterations@@YAXPAVPxArticulation@physx@@I@Z 1000a3d0 f   PxAutoGeneratedMetaDataObjects.obj
 0001:000093f0       ?setPxScene_SimulationEventCallback@@YAXPAVPxScene@physx@@PAVPxSimulationEventCallback@2@@Z 1000a3f0 f   PxAutoGeneratedMetaDataObjects.obj
 0001:000093f0       ?setPxArticulation_InternalDriveIterations@@YAXPAVPxArticulation@physx@@I@Z 1000a3f0 f   PxAutoGeneratedMetaDataObjects.obj
 0001:00009410       ?setPxArticulation_MaxProjectionIterations@@YAXPAVPxArticulation@physx@@I@Z 1000a410 f   PxAutoGeneratedMetaDataObjects.obj
 0001:00009420       ?setPxArticulation_SeparationTolerance@@YAXPAVPxArticulation@physx@@M@Z 1000a420 f   PxAutoGeneratedMetaDataObjects.obj
 0001:00009420       ?setPxShape_RestOffset@@YAXPAVPxShape@physx@@M@Z 1000a420 f   PxAutoGeneratedMetaDataObjects.obj
 0001:00009440       ?setPxBoxGeometryHalfExtents@@YAXPAVPxBoxGeometry@physx@@VPxVec3@2@@Z 1000a440 f i PxAutoGeneratedMetaDataObjects.obj
 0001:00009470       ?setPxHeightFieldGeometryHeightScale@@YAXPAVPxHeightFieldGeometry@physx@@M@Z 1000a470 f i PxAutoGeneratedMetaDataObjects.obj
 0001:00009470       ?setPxCapsuleGeometryHalfHeight@@YAXPAVPxCapsuleGeometry@physx@@M@Z 1000a470 f i PxAutoGeneratedMetaDataObjects.obj
 0001:00009480       ?setPxSphereGeometryRadius@@YAXPAVPxSphereGeometry@physx@@M@Z 1000a480 f i PxAutoGeneratedMetaDataObjects.obj
 0001:00009480       ?setPxCapsuleGeometryRadius@@YAXPAVPxCapsuleGeometry@physx@@M@Z 1000a480 f i PxAutoGeneratedMetaDataObjects.obj
 0001:00009480       ?setPxTolerancesScaleSpeed@@YAXPAVPxTolerancesScale@physx@@M@Z 1000a480 f i PxAutoGeneratedMetaDataObjects.obj
 0001:00009490       ?setPxConstraint_BreakForce@@YAXPAVPxConstraint@physx@@MM@Z 1000a490 f   PxAutoGeneratedMetaDataObjects.obj
 0001:000094c0       ?setPxConstraint_Flags@@YAXPAVPxConstraint@physx@@V?$PxFlags@W4Enum@PxConstraintFlag@physx@@G@2@@Z 1000a4c0 f   PxAutoGeneratedMetaDataObjects.obj
 0001:000094e0       ?setPxConstraint_MinResponseThreshold@@YAXPAVPxConstraint@physx@@M@Z 1000a4e0 f   PxAutoGeneratedMetaDataObjects.obj
 0001:00009500       ?setPxSceneDescFilterShader@@YAXPAVPxSceneDesc@physx@@P6A?AV?$PxFlags@W4Enum@PxFilterFlag@physx@@G@2@IUPxFilterData@2@I1AAV?$PxFlags@W4Enum@PxPairFlag@physx@@G@2@PBXI@Z@Z 1000a500 f i PxAutoGeneratedMetaDataObjects.obj
 0001:00009500       ?setPxConvexMeshGeometryConvexMesh@@YAXPAVPxConvexMeshGeometry@physx@@PAVPxConvexMesh@2@@Z 1000a500 f i PxAutoGeneratedMetaDataObjects.obj
 0001:00009510       ?setPxConvexMeshGeometryMeshFlags@@YAXPAVPxConvexMeshGeometry@physx@@V?$PxFlags@W4Enum@PxConvexMeshGeometryFlag@physx@@E@2@@Z 1000a510 f i PxAutoGeneratedMetaDataObjects.obj
 0001:00009520       ?setPxTriangleMeshGeometryScale@@YAXPAVPxTriangleMeshGeometry@physx@@VPxMeshScale@2@@Z 1000a520 f i PxAutoGeneratedMetaDataObjects.obj
 0001:00009520       ?setPxConvexMeshGeometryScale@@YAXPAVPxConvexMeshGeometry@physx@@VPxMeshScale@2@@Z 1000a520 f i PxAutoGeneratedMetaDataObjects.obj
 0001:00009550       ?setPxHeightFieldDescConvexEdgeThreshold@@YAXPAVPxHeightFieldDesc@physx@@M@Z 1000a550 f i PxAutoGeneratedMetaDataObjects.obj
 0001:00009560       ?setPxHeightFieldDescFlags@@YAXPAVPxHeightFieldDesc@physx@@V?$PxFlags@W4Enum@PxHeightFieldFlag@physx@@G@2@@Z 1000a560 f i PxAutoGeneratedMetaDataObjects.obj
 0001:00009570       ?setPxSceneLimitsMaxNbBodies@@YAXPAVPxSceneLimits@physx@@I@Z 1000a570 f i PxAutoGeneratedMetaDataObjects.obj
 0001:00009570       ?setPxHeightFieldGeometryHeightField@@YAXPAVPxHeightFieldGeometry@physx@@PAVPxHeightField@2@@Z 1000a570 f i PxAutoGeneratedMetaDataObjects.obj
 0001:00009570       ?setPxHeightFieldDescNbColumns@@YAXPAVPxHeightFieldDesc@physx@@I@Z 1000a570 f i PxAutoGeneratedMetaDataObjects.obj
 0001:00009570       ?setPxgDynamicsMemoryConfigContactBufferCapacity@@YAXPAUPxgDynamicsMemoryConfig@physx@@I@Z 1000a570 f i PxAutoGeneratedMetaDataObjects.obj
 0001:00009570       ?setPxSimulationStatisticsNbActiveDynamicBodies@@YAXPAVPxSimulationStatistics@physx@@I@Z 1000a570 f i PxAutoGeneratedMetaDataObjects.obj
 0001:00009570       ?setPxSceneUserData@@YAXPAVPxScene@physx@@PAX@Z 1000a570 f i PxAutoGeneratedMetaDataObjects.obj
 0001:00009580       ?setPxgDynamicsMemoryConfigConstraintBufferCapacity@@YAXPAUPxgDynamicsMemoryConfig@physx@@I@Z 1000a580 f i PxAutoGeneratedMetaDataObjects.obj
 0001:00009580       ?setPxSceneLimitsMaxNbActors@@YAXPAVPxSceneLimits@physx@@I@Z 1000a580 f i PxAutoGeneratedMetaDataObjects.obj
 0001:00009580       ?setPxSimulationStatisticsNbActiveConstraints@@YAXPAVPxSimulationStatistics@physx@@I@Z 1000a580 f i PxAutoGeneratedMetaDataObjects.obj
 0001:00009580       ?setPxHeightFieldDescNbRows@@YAXPAVPxHeightFieldDesc@physx@@I@Z 1000a580 f i PxAutoGeneratedMetaDataObjects.obj
 0001:00009590       ?setPxHeightFieldDescSamples@@YAXPAVPxHeightFieldDesc@physx@@UPxStridedData@2@@Z 1000a590 f i PxAutoGeneratedMetaDataObjects.obj
 0001:000095b0       ?setPxHeightFieldGeometryColumnScale@@YAXPAVPxHeightFieldGeometry@physx@@M@Z 1000a5b0 f i PxAutoGeneratedMetaDataObjects.obj
 0001:000095c0       ?setPxHeightFieldGeometryHeightFieldFlags@@YAXPAVPxHeightFieldGeometry@physx@@V?$PxFlags@W4Enum@PxMeshGeometryFlag@physx@@E@2@@Z 1000a5c0 f i PxAutoGeneratedMetaDataObjects.obj
 0001:000095d0       ?setPxHeightFieldGeometryRowScale@@YAXPAVPxHeightFieldGeometry@physx@@M@Z 1000a5d0 f i PxAutoGeneratedMetaDataObjects.obj
 0001:000095e0       ?setPxMaterial_DynamicFriction@@YAXPAVPxMaterial@physx@@M@Z 1000a5e0 f   PxAutoGeneratedMetaDataObjects.obj
 0001:00009600       ?setPxMaterial_Flags@@YAXPAVPxMaterial@physx@@V?$PxFlags@W4Enum@PxMaterialFlag@physx@@G@2@@Z 1000a600 f   PxAutoGeneratedMetaDataObjects.obj
 0001:00009620       ?setPxMaterial_RestitutionCombineMode@@YAXPAVPxMaterial@physx@@W4Enum@PxCombineMode@2@@Z 1000a620 f   PxAutoGeneratedMetaDataObjects.obj
 0001:00009620       ?setPxShape_LocalPose@@YAXPAVPxShape@physx@@ABVPxTransform@2@@Z 1000a620 f   PxAutoGeneratedMetaDataObjects.obj
 0001:00009630       ?setPxMeshScaleRotation@@YAXPAVPxMeshScale@physx@@VPxQuat@2@@Z 1000a630 f i PxAutoGeneratedMetaDataObjects.obj
 0001:00009640       ?setPxSceneDescGravity@@YAXPAVPxSceneDesc@physx@@VPxVec3@2@@Z 1000a640 f i PxAutoGeneratedMetaDataObjects.obj
 0001:00009640       ?setPxMeshScaleScale@@YAXPAVPxMeshScale@physx@@VPxVec3@2@@Z 1000a640 f i PxAutoGeneratedMetaDataObjects.obj
 0001:00009670       ?setPxRigidActor_GlobalPose@@YAXPAVPxRigidActor@physx@@ABVPxTransform@2@@Z 1000a670 f   PxAutoGeneratedMetaDataObjects.obj
 0001:00009680       ?setPxRigidBody_AngularDamping@@YAXPAVPxRigidBody@physx@@M@Z 1000a680 f   PxAutoGeneratedMetaDataObjects.obj
 0001:000096a0       ?setPxRigidBody_AngularVelocity@@YAXPAVPxRigidBody@physx@@ABVPxVec3@2@@Z 1000a6a0 f   PxAutoGeneratedMetaDataObjects.obj
 0001:000096c0       ?setPxRigidBody_CMassLocalPose@@YAXPAVPxRigidBody@physx@@ABVPxTransform@2@@Z 1000a6c0 f   PxAutoGeneratedMetaDataObjects.obj
 0001:000096d0       ?setPxRigidBody_LinearDamping@@YAXPAVPxRigidBody@physx@@M@Z 1000a6d0 f   PxAutoGeneratedMetaDataObjects.obj
 0001:000096d0       ?setPxShape_MinTorsionalPatchRadius@@YAXPAVPxShape@physx@@M@Z 1000a6d0 f   PxAutoGeneratedMetaDataObjects.obj
 0001:000096f0       ?setPxRigidBody_LinearVelocity@@YAXPAVPxRigidBody@physx@@ABVPxVec3@2@@Z 1000a6f0 f   PxAutoGeneratedMetaDataObjects.obj
 0001:00009710       ?setPxRigidBody_Mass@@YAXPAVPxRigidBody@physx@@M@Z 1000a710 f   PxAutoGeneratedMetaDataObjects.obj
 0001:00009710       ?setPxShape_ContactOffset@@YAXPAVPxShape@physx@@M@Z 1000a710 f   PxAutoGeneratedMetaDataObjects.obj
 0001:00009730       ?setPxRigidBody_MassSpaceInertiaTensor@@YAXPAVPxRigidBody@physx@@ABVPxVec3@2@@Z 1000a730 f   PxAutoGeneratedMetaDataObjects.obj
 0001:00009740       ?setPxRigidBody_MaxAngularVelocity@@YAXPAVPxRigidBody@physx@@M@Z 1000a740 f   PxAutoGeneratedMetaDataObjects.obj
 0001:00009760       ?setPxRigidBody_MaxContactImpulse@@YAXPAVPxRigidBody@physx@@M@Z 1000a760 f   PxAutoGeneratedMetaDataObjects.obj
 0001:00009780       ?setPxRigidBody_MaxDepenetrationVelocity@@YAXPAVPxRigidBody@physx@@M@Z 1000a780 f   PxAutoGeneratedMetaDataObjects.obj
 0001:000097a0       ?setPxRigidBody_MaxLinearVelocity@@YAXPAVPxRigidBody@physx@@M@Z 1000a7a0 f   PxAutoGeneratedMetaDataObjects.obj
 0001:000097c0       ?setPxRigidBody_MinCCDAdvanceCoefficient@@YAXPAVPxRigidBody@physx@@M@Z 1000a7c0 f   PxAutoGeneratedMetaDataObjects.obj
 0001:000097e0       ?setPxRigidBody_RigidBodyFlags@@YAXPAVPxRigidBody@physx@@V?$PxFlags@W4Enum@PxRigidBodyFlag@physx@@G@2@@Z 1000a7e0 f   PxAutoGeneratedMetaDataObjects.obj
 0001:00009800       ?setPxRigidDynamic_ContactReportThreshold@@YAXPAVPxRigidDynamic@physx@@M@Z 1000a800 f   PxAutoGeneratedMetaDataObjects.obj
 0001:00009820       ?setPxRigidDynamic_RigidDynamicLockFlags@@YAXPAVPxRigidDynamic@physx@@V?$PxFlags@W4Enum@PxRigidDynamicLockFlag@physx@@E@2@@Z 1000a820 f   PxAutoGeneratedMetaDataObjects.obj
 0001:00009840       ?setPxRigidDynamic_SleepThreshold@@YAXPAVPxRigidDynamic@physx@@M@Z 1000a840 f   PxAutoGeneratedMetaDataObjects.obj
 0001:00009860       ?setPxRigidDynamic_SolverIterationCounts@@YAXPAVPxRigidDynamic@physx@@II@Z 1000a860 f   PxAutoGeneratedMetaDataObjects.obj
 0001:00009880       ?setPxRigidDynamic_StabilizationThreshold@@YAXPAVPxRigidDynamic@physx@@M@Z 1000a880 f   PxAutoGeneratedMetaDataObjects.obj
 0001:000098a0       ?setPxRigidDynamic_WakeCounter@@YAXPAVPxRigidDynamic@physx@@M@Z 1000a8a0 f   PxAutoGeneratedMetaDataObjects.obj
 0001:000098c0       ?setPxSceneDescBounceThresholdVelocity@@YAXPAVPxSceneDesc@physx@@M@Z 1000a8c0 f i PxAutoGeneratedMetaDataObjects.obj
 0001:000098d0       ?setPxSceneDescBroadPhaseCallback@@YAXPAVPxSceneDesc@physx@@PAVPxBroadPhaseCallback@2@@Z 1000a8d0 f i PxAutoGeneratedMetaDataObjects.obj
 0001:000098d0       ?setPxSimulationStatisticsNbAggregates@@YAXPAVPxSimulationStatistics@physx@@I@Z 1000a8d0 f i PxAutoGeneratedMetaDataObjects.obj
 0001:000098e0       ?setPxSceneDescBroadPhaseType@@YAXPAVPxSceneDesc@physx@@W4Enum@PxBroadPhaseType@2@@Z 1000a8e0 f i PxAutoGeneratedMetaDataObjects.obj
 0001:000098f0       ?setPxSceneLimitsMaxNbConstraints@@YAXPAVPxSceneLimits@physx@@I@Z 1000a8f0 f i PxAutoGeneratedMetaDataObjects.obj
 0001:000098f0       ?setPxSimulationStatisticsNbKinematicBodies@@YAXPAVPxSimulationStatistics@physx@@I@Z 1000a8f0 f i PxAutoGeneratedMetaDataObjects.obj
 0001:000098f0       ?setPxgDynamicsMemoryConfigForceStreamCapacity@@YAXPAUPxgDynamicsMemoryConfig@physx@@I@Z 1000a8f0 f i PxAutoGeneratedMetaDataObjects.obj
 0001:000098f0       ?setPxSceneDescCcdContactModifyCallback@@YAXPAVPxSceneDesc@physx@@PAVPxCCDContactModifyCallback@2@@Z 1000a8f0 f i PxAutoGeneratedMetaDataObjects.obj
 0001:00009900       ?setPxSceneDescCcdMaxPasses@@YAXPAVPxSceneDesc@physx@@I@Z 1000a900 f i PxAutoGeneratedMetaDataObjects.obj
 0001:00009910       ?setPxSceneDescCcdMaxSeparation@@YAXPAVPxSceneDesc@physx@@M@Z 1000a910 f i PxAutoGeneratedMetaDataObjects.obj
 0001:00009920       ?setPxSceneDescCcdThreshold@@YAXPAVPxSceneDesc@physx@@M@Z 1000a920 f i PxAutoGeneratedMetaDataObjects.obj
 0001:00009940       ?setPxSceneDescContactModifyCallback@@YAXPAVPxSceneDesc@physx@@PAVPxContactModifyCallback@2@@Z 1000a940 f i PxAutoGeneratedMetaDataObjects.obj
 0001:00009940       ?setPxSimulationStatisticsNbDynamicBodies@@YAXPAVPxSimulationStatistics@physx@@I@Z 1000a940 f i PxAutoGeneratedMetaDataObjects.obj
 0001:00009940       ?setPxgDynamicsMemoryConfigPatchStreamSize@@YAXPAUPxgDynamicsMemoryConfig@physx@@I@Z 1000a940 f i PxAutoGeneratedMetaDataObjects.obj
 0001:00009940       ?setPxSceneLimitsMaxNbAggregates@@YAXPAVPxSceneLimits@physx@@I@Z 1000a940 f i PxAutoGeneratedMetaDataObjects.obj
 0001:00009950       ?setPxSceneDescContactReportStreamBufferSize@@YAXPAVPxSceneDesc@physx@@I@Z 1000a950 f i PxAutoGeneratedMetaDataObjects.obj
 0001:00009960       ?setPxSceneDescCpuDispatcher@@YAXPAVPxSceneDesc@physx@@PAVPxCpuDispatcher@2@@Z 1000a960 f i PxAutoGeneratedMetaDataObjects.obj
 0001:00009970       ?setPxSceneDescCudaContextManager@@YAXPAVPxSceneDesc@physx@@PAVPxCudaContextManager@2@@Z 1000a970 f i PxAutoGeneratedMetaDataObjects.obj
 0001:00009980       ?setPxSceneDescDynamicStructure@@YAXPAVPxSceneDesc@physx@@W4Enum@PxPruningStructureType@2@@Z 1000a980 f i PxAutoGeneratedMetaDataObjects.obj
 0001:00009990       ?setPxSceneDescDynamicTreeRebuildRateHint@@YAXPAVPxSceneDesc@physx@@I@Z 1000a990 f i PxAutoGeneratedMetaDataObjects.obj
 0001:000099a0       ?setPxSceneDescFilterCallback@@YAXPAVPxSceneDesc@physx@@PAVPxSimulationFilterCallback@2@@Z 1000a9a0 f i PxAutoGeneratedMetaDataObjects.obj
 0001:000099a0       ?setPxTriangleMeshGeometryTriangleMesh@@YAXPAVPxTriangleMeshGeometry@physx@@PAVPxTriangleMesh@2@@Z 1000a9a0 f i PxAutoGeneratedMetaDataObjects.obj
 0001:000099b0       ?setPxSceneLimitsMaxNbRegions@@YAXPAVPxSceneLimits@physx@@I@Z 1000a9b0 f i PxAutoGeneratedMetaDataObjects.obj
 0001:000099b0       ?setPxgDynamicsMemoryConfigHeapCapacity@@YAXPAUPxgDynamicsMemoryConfig@physx@@I@Z 1000a9b0 f i PxAutoGeneratedMetaDataObjects.obj
 0001:000099b0       ?setPxSceneDescFilterShaderData@@YAXPAVPxSceneDesc@physx@@PBX@Z 1000a9b0 f i PxAutoGeneratedMetaDataObjects.obj
 0001:000099c0       ?setPxgDynamicsMemoryConfigFoundLostPairsCapacity@@YAXPAUPxgDynamicsMemoryConfig@physx@@I@Z 1000a9c0 f i PxAutoGeneratedMetaDataObjects.obj
 0001:000099c0       ?setPxSceneDescFilterShaderDataSize@@YAXPAVPxSceneDesc@physx@@I@Z 1000a9c0 f i PxAutoGeneratedMetaDataObjects.obj
 0001:000099c0       ?setPxSceneLimitsMaxNbBroadPhaseOverlaps@@YAXPAVPxSceneLimits@physx@@I@Z 1000a9c0 f i PxAutoGeneratedMetaDataObjects.obj
 0001:000099d0       ?setPxSimulationStatisticsNbBroadPhaseRemoves@@YAXPAVPxSimulationStatistics@physx@@I@Z 1000a9d0 f i PxAutoGeneratedMetaDataObjects.obj
 0001:000099d0       ?setPxSceneDescFlags@@YAXPAVPxSceneDesc@physx@@V?$PxFlags@W4Enum@PxSceneFlag@physx@@I@2@@Z 1000a9d0 f i PxAutoGeneratedMetaDataObjects.obj
 0001:000099e0       ?setPxSceneDescFrictionOffsetThreshold@@YAXPAVPxSceneDesc@physx@@M@Z 1000a9e0 f i PxAutoGeneratedMetaDataObjects.obj
 0001:000099f0       ?setPxSimulationStatisticsNbNewPairs@@YAXPAVPxSimulationStatistics@physx@@I@Z 1000a9f0 f i PxAutoGeneratedMetaDataObjects.obj
 0001:000099f0       ?setPxSceneDescFrictionType@@YAXPAVPxSceneDesc@physx@@W4Enum@PxFrictionType@2@@Z 1000a9f0 f i PxAutoGeneratedMetaDataObjects.obj
 0001:00009a00       ?setPxSceneDescGpuComputeVersion@@YAXPAVPxSceneDesc@physx@@I@Z 1000aa00 f i PxAutoGeneratedMetaDataObjects.obj
 0001:00009a10       ?setPxSceneDescGpuDynamicsConfig@@YAXPAVPxSceneDesc@physx@@UPxgDynamicsMemoryConfig@2@@Z 1000aa10 f i PxAutoGeneratedMetaDataObjects.obj
 0001:00009a30       ?setPxSceneDescGpuMaxNumPartitions@@YAXPAVPxSceneDesc@physx@@I@Z 1000aa30 f i PxAutoGeneratedMetaDataObjects.obj
 0001:00009a40       ?setPxSceneDescKineKineFilteringMode@@YAXPAVPxSceneDesc@physx@@W4Enum@PxPairFilteringMode@2@@Z 1000aa40 f i PxAutoGeneratedMetaDataObjects.obj
 0001:00009a50       ?setPxSceneDescLimits@@YAXPAVPxSceneDesc@physx@@VPxSceneLimits@2@@Z 1000aa50 f i PxAutoGeneratedMetaDataObjects.obj
 0001:00009a70       ?setPxSceneDescMaxBiasCoefficient@@YAXPAVPxSceneDesc@physx@@M@Z 1000aa70 f i PxAutoGeneratedMetaDataObjects.obj
 0001:00009a90       ?setPxSceneDescMaxNbContactDataBlocks@@YAXPAVPxSceneDesc@physx@@I@Z 1000aa90 f i PxAutoGeneratedMetaDataObjects.obj
 0001:00009aa0       ?setPxSceneDescNbContactDataBlocks@@YAXPAVPxSceneDesc@physx@@I@Z 1000aaa0 f i PxAutoGeneratedMetaDataObjects.obj
 0001:00009ab0       ?setPxSceneDescSanityBounds@@YAXPAVPxSceneDesc@physx@@VPxBounds3@2@@Z 1000aab0 f i PxAutoGeneratedMetaDataObjects.obj
 0001:00009ae0       ?setPxSceneDescSceneQueryUpdateMode@@YAXPAVPxSceneDesc@physx@@W4Enum@PxSceneQueryUpdateMode@2@@Z 1000aae0 f i PxAutoGeneratedMetaDataObjects.obj
 0001:00009af0       ?setPxSceneDescSimulationEventCallback@@YAXPAVPxSceneDesc@physx@@PAVPxSimulationEventCallback@2@@Z 1000aaf0 f i PxAutoGeneratedMetaDataObjects.obj
 0001:00009af0       ?setPxSceneLimitsMaxNbDynamicShapes@@YAXPAVPxSceneLimits@physx@@I@Z 1000aaf0 f i PxAutoGeneratedMetaDataObjects.obj
 0001:00009af0       ?setPxgDynamicsMemoryConfigContactStreamSize@@YAXPAUPxgDynamicsMemoryConfig@physx@@I@Z 1000aaf0 f i PxAutoGeneratedMetaDataObjects.obj
 0001:00009af0       ?setPxSimulationStatisticsNbStaticBodies@@YAXPAVPxSimulationStatistics@physx@@I@Z 1000aaf0 f i PxAutoGeneratedMetaDataObjects.obj
 0001:00009b00       ?setPxSceneDescSolverArticulationBatchSize@@YAXPAVPxSceneDesc@physx@@I@Z 1000ab00 f i PxAutoGeneratedMetaDataObjects.obj
 0001:00009b10       ?setPxSceneDescSolverBatchSize@@YAXPAVPxSceneDesc@physx@@I@Z 1000ab10 f i PxAutoGeneratedMetaDataObjects.obj
 0001:00009b20       ?setPxSceneDescSolverOffsetSlop@@YAXPAVPxSceneDesc@physx@@M@Z 1000ab20 f i PxAutoGeneratedMetaDataObjects.obj
 0001:00009b30       ?setPxSceneDescSolverType@@YAXPAVPxSceneDesc@physx@@W4Enum@PxSolverType@2@@Z 1000ab30 f i PxAutoGeneratedMetaDataObjects.obj
 0001:00009b30       ?setPxSimulationStatisticsNbLostPairs@@YAXPAVPxSimulationStatistics@physx@@I@Z 1000ab30 f i PxAutoGeneratedMetaDataObjects.obj
 0001:00009b40       ?setPxSceneDescStaticKineFilteringMode@@YAXPAVPxSceneDesc@physx@@W4Enum@PxPairFilteringMode@2@@Z 1000ab40 f i PxAutoGeneratedMetaDataObjects.obj
 0001:00009b50       ?setPxSceneDescStaticStructure@@YAXPAVPxSceneDesc@physx@@W4Enum@PxPruningStructureType@2@@Z 1000ab50 f i PxAutoGeneratedMetaDataObjects.obj
 0001:00009b60       ?setPxSceneDescUserData@@YAXPAVPxSceneDesc@physx@@PAX@Z 1000ab60 f i PxAutoGeneratedMetaDataObjects.obj
 0001:00009b70       ?setPxSceneDescWakeCounterResetValue@@YAXPAVPxSceneDesc@physx@@M@Z 1000ab70 f i PxAutoGeneratedMetaDataObjects.obj
 0001:00009b90       ?setPxSceneDesc_ToDefault@@YAXPAVPxSceneDesc@physx@@ABVPxTolerancesScale@2@@Z 1000ab90 f   PxAutoGeneratedMetaDataObjects.obj
 0001:00009e00       ?setPxScene_BounceThresholdVelocity@@YAXPAVPxScene@physx@@M@Z 1000ae00 f   PxAutoGeneratedMetaDataObjects.obj
 0001:00009e20       ?setPxScene_BroadPhaseCallback@@YAXPAVPxScene@physx@@PAVPxBroadPhaseCallback@2@@Z 1000ae20 f   PxAutoGeneratedMetaDataObjects.obj
 0001:00009e40       ?setPxScene_CCDMaxPasses@@YAXPAVPxScene@physx@@I@Z 1000ae40 f   PxAutoGeneratedMetaDataObjects.obj
 0001:00009e60       ?setPxScene_DynamicTreeRebuildRateHint@@YAXPAVPxScene@physx@@I@Z 1000ae60 f   PxAutoGeneratedMetaDataObjects.obj
 0001:00009e80       ?setPxScene_FrictionType@@YAXPAVPxScene@physx@@W4Enum@PxFrictionType@2@@Z 1000ae80 f   PxAutoGeneratedMetaDataObjects.obj
 0001:00009ea0       ?setPxScene_Gravity@@YAXPAVPxScene@physx@@ABVPxVec3@2@@Z 1000aea0 f   PxAutoGeneratedMetaDataObjects.obj
 0001:00009ec0       ?setPxScene_Limits@@YAXPAVPxScene@physx@@ABVPxSceneLimits@2@@Z 1000aec0 f   PxAutoGeneratedMetaDataObjects.obj
 0001:00009ed0       ?setPxScene_NbContactDataBlocks@@YAXPAVPxScene@physx@@I@Z 1000aed0 f   PxAutoGeneratedMetaDataObjects.obj
 0001:00009ef0       ?setPxScene_SceneQueryUpdateMode@@YAXPAVPxScene@physx@@W4Enum@PxSceneQueryUpdateMode@2@@Z 1000aef0 f   PxAutoGeneratedMetaDataObjects.obj
 0001:00009f10       ?setPxScene_SolverArticulationBatchSize@@YAXPAVPxScene@physx@@I@Z 1000af10 f   PxAutoGeneratedMetaDataObjects.obj
 0001:00009f30       ?setPxScene_SolverBatchSize@@YAXPAVPxScene@physx@@I@Z 1000af30 f   PxAutoGeneratedMetaDataObjects.obj
 0001:00009f50       ?setPxScene_VisualizationCullingBox@@YAXPAVPxScene@physx@@ABVPxBounds3@2@@Z 1000af50 f   PxAutoGeneratedMetaDataObjects.obj
 0001:00009f70       ?setPxShape_Flags@@YAXPAVPxShape@physx@@V?$PxFlags@W4Enum@PxShapeFlag@physx@@E@2@@Z 1000af70 f   PxAutoGeneratedMetaDataObjects.obj
 0001:00009f90       ?setPxShape_Name@@YAXPAVPxShape@physx@@PBD@Z 1000af90 f   PxAutoGeneratedMetaDataObjects.obj
 0001:00009fb0       ?setPxShape_QueryFilterData@@YAXPAVPxShape@physx@@ABUPxFilterData@2@@Z 1000afb0 f   PxAutoGeneratedMetaDataObjects.obj
 0001:00009fc0       ?setPxShape_TorsionalPatchRadius@@YAXPAVPxShape@physx@@M@Z 1000afc0 f   PxAutoGeneratedMetaDataObjects.obj
 0001:00009fe0       ?setPxSimulationStatisticsCompressedContactSize@@YAXPAVPxSimulationStatistics@physx@@I@Z 1000afe0 f i PxAutoGeneratedMetaDataObjects.obj
 0001:00009ff0       ?setPxSimulationStatisticsNbArticulations@@YAXPAVPxSimulationStatistics@physx@@I@Z 1000aff0 f i PxAutoGeneratedMetaDataObjects.obj
 0001:0000a000       ?setPxSimulationStatisticsNbAxisSolverConstraints@@YAXPAVPxSimulationStatistics@physx@@I@Z 1000b000 f i PxAutoGeneratedMetaDataObjects.obj
 0001:0000a010       ?setPxSimulationStatisticsNbBroadPhaseAdds@@YAXPAVPxSimulationStatistics@physx@@I@Z 1000b010 f i PxAutoGeneratedMetaDataObjects.obj
 0001:0000a020       ?setPxSimulationStatisticsNbDiscreteContactPairsTotal@@YAXPAVPxSimulationStatistics@physx@@I@Z 1000b020 f i PxAutoGeneratedMetaDataObjects.obj
 0001:0000a030       ?setPxSimulationStatisticsNbDiscreteContactPairsWithCacheHits@@YAXPAVPxSimulationStatistics@physx@@I@Z 1000b030 f i PxAutoGeneratedMetaDataObjects.obj
 0001:0000a040       ?setPxSimulationStatisticsNbDiscreteContactPairsWithContacts@@YAXPAVPxSimulationStatistics@physx@@I@Z 1000b040 f i PxAutoGeneratedMetaDataObjects.obj
 0001:0000a050       ?setPxSimulationStatisticsNbLostTouches@@YAXPAVPxSimulationStatistics@physx@@I@Z 1000b050 f i PxAutoGeneratedMetaDataObjects.obj
 0001:0000a060       ?setPxSimulationStatisticsNbNewTouches@@YAXPAVPxSimulationStatistics@physx@@I@Z 1000b060 f i PxAutoGeneratedMetaDataObjects.obj
 0001:0000a070       ?setPxSimulationStatisticsNbPartitions@@YAXPAVPxSimulationStatistics@physx@@I@Z 1000b070 f i PxAutoGeneratedMetaDataObjects.obj
 0001:0000a080       ?setPxSimulationStatisticsPeakConstraintMemory@@YAXPAVPxSimulationStatistics@physx@@I@Z 1000b080 f i PxAutoGeneratedMetaDataObjects.obj
 0001:0000a090       ?setPxSimulationStatisticsRequiredContactConstraintMemory@@YAXPAVPxSimulationStatistics@physx@@I@Z 1000b090 f i PxAutoGeneratedMetaDataObjects.obj
 0001:0000a0a0       ?setPxTolerancesScaleLength@@YAXPAVPxTolerancesScale@physx@@M@Z 1000b0a0 f i PxAutoGeneratedMetaDataObjects.obj
 0001:0000a0b0       ?setPxTriangleMeshGeometryMeshFlags@@YAXPAVPxTriangleMeshGeometry@physx@@V?$PxFlags@W4Enum@PxMeshGeometryFlag@physx@@E@2@@Z 1000b0b0 f i PxAutoGeneratedMetaDataObjects.obj
 0001:0000a0c0       ??0NbCCDPairsProperty@physx@@QAE@XZ 1000b0c0 f   PxMetaDataObjects.obj
 0001:0000a0e0       ??0NbDiscreteContactPairsProperty@physx@@QAE@XZ 1000b0e0 f   PxMetaDataObjects.obj
 0001:0000a100       ??0NbModifiedContactPairsProperty@physx@@QAE@XZ 1000b100 f   PxMetaDataObjects.obj
 0001:0000a120       ??0NbShapesProperty@physx@@QAE@XZ 1000b120 f   PxMetaDataObjects.obj
 0001:0000a140       ??0NbTriggerPairsProperty@physx@@QAE@XZ 1000b140 f   PxMetaDataObjects.obj
 0001:0000a160       ??0PxFoundation@physx@@QAE@ABV01@@Z 1000b160 f i PxMetaDataObjects.obj
 0001:0000a170       ??0PxFoundation@physx@@QAE@XZ 1000b170 f i PxMetaDataObjects.obj
 0001:0000a180       ??0SimulationStatisticsProperty@physx@@QAE@XZ 1000b180 f   PxMetaDataObjects.obj
 0001:0000a1a0       ??1PxFoundation@physx@@MAE@XZ 1000b1a0 f i PxMetaDataObjects.obj
 0001:0000a1b0       ??_EPxFoundation@physx@@MAEPAXI@Z 1000b1b0 f i PxMetaDataObjects.obj
 0001:0000a220       ?teleportRootLink@ArticulationV@Dy@physx@@UAEXXZ 1000b220 f i LowLevelDynamics_static_32:DyArticulation.obj
 0001:0000a220       ?switchToNoSim@?$NpRigidActorTemplate@VPxRigidStatic@physx@@@physx@@UAEXXZ 1000b220 f i NpRigidStatic.obj
 0001:0000a220       ?releaseDeferredArticulationIds@SimulationController@Sc@physx@@UAEXXZ 1000b220 f i SimulationController_static_32:ScSimulationController.obj
 0001:0000a220       ?deletePairs@BroadPhaseMBP@Bp@physx@@UAEXXZ 1000b220 f i LowLevelAABB_static_32:BpBroadPhaseMBP.obj
 0001:0000a220       ??1PxsContactManager@physx@@QAE@XZ 1000b220 f i LowLevel_static_32:PxsContactManager.obj
 0001:0000a220       ??_FAllocator@shdfnd@physx@@QAEXXZ 1000b220 f i PxMetaDataObjects.obj
 0001:0000a220       ?finalizeQuery@?$PxHitCallback@UPxRaycastHit@physx@@@physx@@UAEXXZ 1000b220 f i NpBatchQuery.obj
 0001:0000a220       ?initializeCommonData@ArticulationV@Dy@physx@@UAEXXZ 1000b220 f i LowLevelDynamics_static_32:DyArticulation.obj
 0001:0000a220       ??1ConstraintInteraction@Sc@physx@@QAE@XZ 1000b220 f i SimulationController_static_32:ScConstraintInteraction.obj
 0001:0000a220       ?clear@SimulationController@Sc@physx@@UAEXXZ 1000b220 f i SimulationController_static_32:ScSimulationController.obj
 0001:0000a220       ?PxcClearContactCacheStats@@YAXXZ 1000b220 f i LowLevel_static_32:PxcContactCache.obj
 0001:0000a220       ??1ArticulationJointCore@Sc@physx@@QAE@XZ 1000b220 f i SimulationController_static_32:ScArticulationJointCore.obj
 0001:0000a220       ?switchFromNoSim@?$NpRigidActorTemplate@VPxRigidStatic@physx@@@physx@@UAEXXZ 1000b220 f i NpRigidStatic.obj
 0001:0000a220       ?__global_array_delete@@YAXPAXI@Z 1000b220 f i PxMetaDataObjects.obj
 0001:0000a220       ?releaseContext@PxsNphaseImplementationContext@physx@@UAEXXZ 1000b220 f i LowLevel_static_32:PxsNphaseImplementationContext.obj
 0001:0000a220       ?__global_delete@@YAXPAXI@Z 1000b220 f i PxMetaDataObjects.obj
 0001:0000a220       ?switchFromNoSim@?$NpRigidActorTemplate@VPxArticulationLink@physx@@@physx@@UAEXXZ 1000b220 f i NpArticulationLink.obj
 0001:0000a220       ?finalizeQuery@?$PxHitCallback@UPxSweepHit@physx@@@physx@@UAEXXZ 1000b220 f i NpBatchQuery.obj
 0001:0000a220       ?acquireContext@PxsNphaseImplementationContext@physx@@UAEXXZ 1000b220 f i LowLevel_static_32:PxsNphaseImplementationContext.obj
 0001:0000a220       ?__empty_global_delete@@YAXPAXI@Z 1000b220 f i PxMetaDataObjects.obj
 0001:0000a220       ?switchFromNoSim@?$NpRigidActorTemplate@VPxRigidDynamic@physx@@@physx@@UAEXXZ 1000b220 f i NpRigidDynamic.obj
 0001:0000a220       ?runInternal@SceneCompletion@NpScene@physx@@UAEXXZ 1000b220 f i NpScene.obj
 0001:0000a220       ??1NpActor@physx@@IAE@XZ   1000b220 f i NpActor.obj
 0001:0000a220       ?postBroadPhaseUpdateContactManager@PxsNphaseImplementationContext@physx@@UAEXXZ 1000b220 f i LowLevel_static_32:PxsNphaseImplementationContext.obj
 0001:0000a220       ?mergeResults@DynamicsTGSContext@Dy@physx@@UAEXXZ 1000b220 f i LowLevelDynamics_static_32:DyTGSDynamics.obj
 0001:0000a220       ?saveVelocityTGS@FeatherstoneArticulation@Dy@physx@@SAXABUArticulationSolverDesc@23@M@Z 1000b220 f i LowLevelDynamics_static_32:DyFeatherstoneArticulation.obj
 0001:0000a220       ?finalizeQuery@?$PxHitCallback@UPxOverlapHit@physx@@@physx@@UAEXXZ 1000b220 f i NpBatchQuery.obj
 0001:0000a220       ?frameEnd@NpScene@physx@@UAEXXZ 1000b220 f i NpScene.obj
 0001:0000a220       ?concludeContact@Dy@physx@@YAXABUPxSolverConstraintDesc@2@@Z 1000b220 f i LowLevelDynamics_static_32:DyTGSContactPrep.obj
 0001:0000a220       ??1ArticulationCore@Sc@physx@@QAE@XZ 1000b220 f i SimulationController_static_32:ScArticulationCore.obj
 0001:0000a220       ?startNarrowPhaseTasks@PxsNphaseImplementationContext@physx@@UAEXXZ 1000b220 f i LowLevel_static_32:PxsNphaseImplementationContext.obj
 0001:0000a220       ??1ActorCore@Sc@physx@@QAE@XZ 1000b220 f i SimulationController_static_32:ScActorCore.obj
 0001:0000a220       ?switchToNoSim@?$NpRigidActorTemplate@VPxArticulationLink@physx@@@physx@@UAEXXZ 1000b220 f i NpArticulationLink.obj
 0001:0000a220       ?stopSimulation@PxTaskMgr@physx@@UAEXXZ 1000b220 f i PhysXTask_static_32:TaskManager.obj
 0001:0000a220       ?runInternal@FanoutTask@Cm@physx@@UAEXXZ 1000b220 f i SimulationController_static_32:ScScene.obj
 0001:0000a220       ?switchToNoSim@?$NpRigidActorTemplate@VPxRigidDynamic@physx@@@physx@@UAEXXZ 1000b220 f i NpRigidDynamic.obj
 0001:0000a220       ?onUpdateSolverDesc@ArticulationV@Dy@physx@@UAEXXZ 1000b220 f i LowLevelDynamics_static_32:DyArticulation.obj
 0001:0000a220       ?fetchUpdateContactManager@PxsNphaseImplementationContext@physx@@UAEXXZ 1000b220 f i LowLevel_static_32:PxsNphaseImplementationContext.obj
 0001:0000a220       ?PxcDisplayContactCacheStats@@YAXXZ 1000b220 f i LowLevel_static_32:PxcContactCache.obj
 0001:0000a220       ?deletePairs@BroadPhaseABP@Bp@physx@@UAEXXZ 1000b220 f i LowLevelAABB_static_32:BpBroadPhaseABP.obj
 0001:0000a220       ??1ConstraintCore@Sc@physx@@QAE@XZ 1000b220 f i SimulationController_static_32:ScConstraintCore.obj
 0001:0000a220       ??1SapPairManager@Bp@physx@@QAE@XZ 1000b220 f i LowLevelAABB_static_32:BpBroadPhaseSapAux.obj
 0001:0000a220       ?runInternal@DynamicsMergeTask@Dy@physx@@UAEXXZ 1000b220 f i LowLevelDynamics_static_32:DyTGSDynamics.obj
 0001:0000a220       @_guard_check_icall_nop@4  1000b220 f i LIBCMT:guard_support.obj
 0001:0000a230       ?GetNbCCDPairs@@YAIPBVPxSimulationStatistics@physx@@W4Enum@PxGeometryType@2@1@Z 1000b230 f i PxMetaDataObjects.obj
 0001:0000a250       ?GetNbDiscreteContactPairs@@YAIPBVPxSimulationStatistics@physx@@W4Enum@PxGeometryType@2@1@Z 1000b250 f i PxMetaDataObjects.obj
 0001:0000a270       ?GetNbModifiedContactPairs@@YAIPBVPxSimulationStatistics@physx@@W4Enum@PxGeometryType@2@1@Z 1000b270 f i PxMetaDataObjects.obj
 0001:0000a290       ?GetNbShape@@YAIPBVPxSimulationStatistics@physx@@W4Enum@PxGeometryType@2@@Z 1000b290 f i PxMetaDataObjects.obj
 0001:0000a2a0       ?GetNbTriggerPairs@@YAIPBVPxSimulationStatistics@physx@@W4Enum@PxGeometryType@2@1@Z 1000b2a0 f i PxMetaDataObjects.obj
 0001:0000a2c0       ?GetStats@@YA?AVPxSimulationStatistics@physx@@PBVPxScene@2@@Z 1000b2c0 f i PxMetaDataObjects.obj
 0001:0000a3e0       ?SetNbCCDPairs@@YAXPAVPxSimulationStatistics@physx@@W4Enum@PxGeometryType@2@1I@Z 1000b3e0 f i PxMetaDataObjects.obj
 0001:0000a410       ?SetNbDiscreteContactPairs@@YAXPAVPxSimulationStatistics@physx@@W4Enum@PxGeometryType@2@1I@Z 1000b410 f i PxMetaDataObjects.obj
 0001:0000a430       ?SetNbModifiedContactPairs@@YAXPAVPxSimulationStatistics@physx@@W4Enum@PxGeometryType@2@1I@Z 1000b430 f i PxMetaDataObjects.obj
 0001:0000a460       ?SetNbShape@@YAXPAVPxSimulationStatistics@physx@@W4Enum@PxGeometryType@2@I@Z 1000b460 f i PxMetaDataObjects.obj
 0001:0000a480       ?SetNbTriggerPairs@@YAXPAVPxSimulationStatistics@physx@@W4Enum@PxGeometryType@2@1I@Z 1000b480 f i PxMetaDataObjects.obj
 0001:0000a4b0       ?createLink@PxArticulationLinkCollectionPropHelper@physx@@QBEPAVPxArticulationLink@2@PAVPxArticulation@2@PAV32@ABVPxTransform@2@@Z 1000b4b0 f   PxMetaDataObjects.obj
 0001:0000a4d0       ?createShape@PxRigidActorShapeCollectionHelper@physx@@QBEPAVPxShape@2@PAVPxRigidActor@2@ABVPxGeometry@2@AAVPxMaterial@2@V?$PxFlags@W4Enum@PxShapeFlag@physx@@E@2@@Z 1000b4d0 f   PxMetaDataObjects.obj
 0001:0000a520       ?createShape@PxRigidActorShapeCollectionHelper@physx@@QBEPAVPxShape@2@PAVPxRigidActor@2@ABVPxGeometry@2@PBQAVPxMaterial@2@GV?$PxFlags@W4Enum@PxShapeFlag@physx@@E@2@@Z 1000b520 f   PxMetaDataObjects.obj
 0001:0000a560       ?getImpl@?$NpArticulationTemplate@VPxArticulation@physx@@@physx@@UAEPAVPxArticulationImpl@2@XZ 1000b560 f i NpArticulation.obj
 0001:0000a560       ?getAllocator@Foundation@shdfnd@physx@@QAEAAVPxAllocatorCallback@3@XZ 1000b560 f i PxMetaDataObjects.obj
 0001:0000a560       ?getImpl@?$NpArticulationTemplate@VPxArticulationReducedCoordinate@physx@@@physx@@UBEPBVPxArticulationImpl@2@XZ 1000b560 f i NpArticulationReducedCoordinate.obj
 0001:0000a560       ?getImpl@?$NpArticulationTemplate@VPxArticulation@physx@@@physx@@UBEPBVPxArticulationImpl@2@XZ 1000b560 f i NpArticulation.obj
 0001:0000a560       ?getImpl@?$NpArticulationTemplate@VPxArticulationReducedCoordinate@physx@@@physx@@UAEPAVPxArticulationImpl@2@XZ 1000b560 f i NpArticulationReducedCoordinate.obj
 0001:0000a570       ?getConcreteTypeName@?$PxSerializerDefaultAdapter@VRTreeTriangleMesh@Gu@physx@@@physx@@UBEPBDXZ 1000b570 f i NpSerializerAdapter.obj
 0001:0000a570       ?getConcreteTypeName@?$PxSerializerDefaultAdapter@VNpRigidDynamic@physx@@@physx@@UBEPBDXZ 1000b570 f i NpSerializerAdapter.obj
 0001:0000a570       ?getConcreteTypeName@?$PxSerializerDefaultAdapter@VNpRigidStatic@physx@@@physx@@UBEPBDXZ 1000b570 f i NpSerializerAdapter.obj
 0001:0000a570       ?getConcreteTypeName@?$PxSerializerDefaultAdapter@VNpArticulationJointReducedCoordinate@physx@@@physx@@UBEPBDXZ 1000b570 f i NpSerializerAdapter.obj
 0001:0000a570       ?getConcreteTypeName@?$PxSerializerDefaultAdapter@VHeightField@Gu@physx@@@physx@@UBEPBDXZ 1000b570 f i NpSerializerAdapter.obj
 0001:0000a570       ?getConcreteTypeName@?$PxSerializerDefaultAdapter@VNpArticulationJoint@physx@@@physx@@UBEPBDXZ 1000b570 f i NpSerializerAdapter.obj
 0001:0000a570       ?getConcreteTypeName@?$PxSerializerDefaultAdapter@VNpArticulationReducedCoordinate@physx@@@physx@@UBEPBDXZ 1000b570 f i NpSerializerAdapter.obj
 0001:0000a570       ?getPoints@RenderBuffer@Cm@physx@@UBEPBUPxDebugPoint@3@XZ 1000b570 f i NpScene.obj
 0001:0000a570       ?getAllocatorCallback@Foundation@shdfnd@physx@@UAEAAVPxAllocatorCallback@3@XZ 1000b570 f i PxMetaDataObjects.obj
 0001:0000a570       ?getConcreteTypeName@?$PxSerializerDefaultAdapter@VConvexMesh@Gu@physx@@@physx@@UBEPBDXZ 1000b570 f i NpSerializerAdapter.obj
 0001:0000a570       ?getConcreteTypeName@?$PxSerializerDefaultAdapter@VNpConstraint@physx@@@physx@@UBEPBDXZ 1000b570 f i NpSerializerAdapter.obj
 0001:0000a570       ?getConcreteTypeName@?$PxSerializerDefaultAdapter@VNpArticulationLink@physx@@@physx@@UBEPBDXZ 1000b570 f i NpSerializerAdapter.obj
 0001:0000a570       ?getConcreteTypeName@?$PxSerializerDefaultAdapter@VNpArticulation@physx@@@physx@@UBEPBDXZ 1000b570 f i NpSerializerAdapter.obj
 0001:0000a570       ?getConcreteTypeName@?$PxSerializerDefaultAdapter@VNpShape@physx@@@physx@@UBEPBDXZ 1000b570 f i NpSerializerAdapter.obj
 0001:0000a570       ?getConcreteTypeName@?$PxSerializerDefaultAdapter@VNpAggregate@physx@@@physx@@UBEPBDXZ 1000b570 f i NpSerializerAdapter.obj
 0001:0000a570       ?getConcreteTypeName@?$PxSerializerDefaultAdapter@VBV4TriangleMesh@Gu@physx@@@physx@@UBEPBDXZ 1000b570 f i NpSerializerAdapter.obj
 0001:0000a570       ?getConcreteTypeName@?$PxSerializerDefaultAdapter@VPruningStructure@Sq@physx@@@physx@@UBEPBDXZ 1000b570 f i NpSerializerAdapter.obj
 0001:0000a570       ?getConcreteTypeName@?$PxSerializerDefaultAdapter@VNpMaterial@physx@@@physx@@UBEPBDXZ 1000b570 f i NpSerializerAdapter.obj
 0001:0000a580       ?length@pcharNode@@UBEHXZ  1000b580 f i libvcruntime:undname.obj
 0001:0000a580       ?length@DNameStatusNode@@UBEHXZ 1000b580 f i libvcruntime:undname.obj
 0001:0000a580       ?raw_length@DNameStatusNode@@UBEHXZ 1000b580 f i libvcruntime:undname.obj
 0001:0000a580       ?getCpuDispatcher@PxTaskMgr@physx@@UBEPAVPxCpuDispatcher@2@XZ 1000b580 f i PhysXTask_static_32:TaskManager.obj
 0001:0000a580       ?getNbPoints@RenderBuffer@Cm@physx@@UBEIXZ 1000b580 f i NpScene.obj
 0001:0000a580       ?getCreatedPairs@BroadPhaseABP@Bp@physx@@UAEPAUBroadPhasePair@23@XZ 1000b580 f i LowLevelAABB_static_32:BpBroadPhaseABP.obj
 0001:0000a580       ?getNbCcdBodies@PxgSimulationControllerCallback@@UAEIXZ 1000b580 f i SimulationController_static_32:ScScene.obj
 0001:0000a580       ?getErrorCallback@Foundation@shdfnd@physx@@UAEAAVPxErrorCallback@3@XZ 1000b580 f i PxMetaDataObjects.obj
 0001:0000a580       ?raw_length@pcharNode@@UBEHXZ 1000b580 f i libvcruntime:undname.obj
 0001:0000a590       ?getName@NpShape@physx@@UBEPBDXZ 1000b590 f i NpShape.obj
 0001:0000a590       ?getErrorLevel@Foundation@shdfnd@physx@@UBE?AW4Enum@PxErrorCode@3@XZ 1000b590 f i PxMetaDataObjects.obj
 0001:0000a5a0       ?getGeometry@PxShapeGeometryPropertyHelper@physx@@QBE_NPBVPxShape@2@AAVPxBoxGeometry@2@@Z 1000b5a0 f   PxMetaDataObjects.obj
 0001:0000a5c0       ?getGeometry@PxShapeGeometryPropertyHelper@physx@@QBE_NPBVPxShape@2@AAVPxCapsuleGeometry@2@@Z 1000b5c0 f   PxMetaDataObjects.obj
 0001:0000a5e0       ?getGeometry@PxShapeGeometryPropertyHelper@physx@@QBE_NPBVPxShape@2@AAVPxConvexMeshGeometry@2@@Z 1000b5e0 f   PxMetaDataObjects.obj
 0001:0000a600       ?getGeometry@PxShapeGeometryPropertyHelper@physx@@QBE_NPBVPxShape@2@AAVPxHeightFieldGeometry@2@@Z 1000b600 f   PxMetaDataObjects.obj
 0001:0000a620       ?getGeometry@PxShapeGeometryPropertyHelper@physx@@QBE_NPBVPxShape@2@AAVPxPlaneGeometry@2@@Z 1000b620 f   PxMetaDataObjects.obj
 0001:0000a640       ?getGeometry@PxShapeGeometryPropertyHelper@physx@@QBE_NPBVPxShape@2@AAVPxSphereGeometry@2@@Z 1000b640 f   PxMetaDataObjects.obj
 0001:0000a660       ?getGeometry@PxShapeGeometryPropertyHelper@physx@@QBE_NPBVPxShape@2@AAVPxTriangleMeshGeometry@2@@Z 1000b660 f   PxMetaDataObjects.obj
 0001:0000a680       ?getGeometryType@PxShapeGeometryPropertyHelper@physx@@QBE?AW4Enum@PxGeometryType@2@PBVPxShape@2@@Z 1000b680 f   PxMetaDataObjects.obj
 0001:0000a690       ?getInternalErrorCallback@Foundation@shdfnd@physx@@QAEAAVPxErrorCallback@3@XZ 1000b690 f i PxMetaDataObjects.obj
 0001:0000a6a0       ?getNamedAllocMap@Foundation@shdfnd@physx@@QAEAAV?$HashMap@PBVNamedAllocator@shdfnd@physx@@PBDU?$Hash@PBVNamedAllocator@shdfnd@physx@@@23@VNonTrackingAllocator@23@@23@XZ 1000b6a0 f i PxMetaDataObjects.obj
 0001:0000a6b0       ?getNamedAllocMutex@Foundation@shdfnd@physx@@QAEAAV?$MutexT@VAllocator@shdfnd@physx@@@23@XZ 1000b6b0 f i PxMetaDataObjects.obj
 0001:0000a6c0       ?getReportAllocationNames@Foundation@shdfnd@physx@@UBE_NXZ 1000b6c0 f i PxMetaDataObjects.obj
 0001:0000a6d0       ?getTempAllocFreeTable@Foundation@shdfnd@physx@@QAEAAV?$Array@PATTempAllocatorChunk@shdfnd@physx@@VAllocator@23@@23@XZ 1000b6d0 f i PxMetaDataObjects.obj
 0001:0000a6e0       ?getTempAllocMutex@Foundation@shdfnd@physx@@QAEAAV?$MutexT@VAllocator@shdfnd@physx@@@23@XZ 1000b6e0 f i PxMetaDataObjects.obj
 0001:0000a6f0       ?setErrorLevel@Foundation@shdfnd@physx@@UAEXW4Enum@PxErrorCode@3@@Z 1000b6f0 f i PxMetaDataObjects.obj
 0001:0000a6f0       ?setName@NpShape@physx@@UAEXPBD@Z 1000b6f0 f i NpShape.obj
 0001:0000a700       ?setMaterials@PxShapeMaterialsPropertyHelper@physx@@QBEXPAVPxShape@2@PBQAVPxMaterial@2@G@Z 1000b700 f   PxMetaDataObjects.obj
 0001:0000a720       ?setReportAllocationNames@Foundation@shdfnd@physx@@UAEX_N@Z 1000b720 f i PxMetaDataObjects.obj
 0001:0000a730       ??0NpActor@physx@@QAE@PBD@Z 1000b730 f   NpActor.obj
 0001:0000a750       ??4FPUGuard@shdfnd@physx@@QAEAAV012@ABV012@@Z 1000b750 f i NpActor.obj
 0001:0000a770       ?addConnector@NpActor@physx@@QAEXW4Enum@NpConnectorType@2@PAVPxBase@2@PBD@Z 1000b770 f   NpActor.obj
 0001:0000a870       ?addConstraintsToSceneInternal@NpActor@physx@@AAEXXZ 1000b870 f   NpActor.obj
 0001:0000a910       ?allocate@?$Array@VNpConnector@physx@@V?$InlineAllocator@$0CA@V?$ReflectionAllocator@VNpConnector@physx@@@shdfnd@physx@@@shdfnd@2@@shdfnd@physx@@IAEPAVNpConnector@3@I@Z 1000b910 f i NpActor.obj
 0001:0000a9a0       ?create@?$HashBase@PAVPxShape@physx@@PAV12@U?$Hash@PAVPxShape@physx@@@shdfnd@2@UGetKey@?$HashSetBase@PAVPxShape@physx@@U?$Hash@PAVPxShape@physx@@@shdfnd@2@VNonTrackingAllocator@42@$00@internal@42@VNonTrackingAllocator@42@$00@internal@shdfnd@physx@@QAEPAPAVPxShape@4@ABQAV54@AA_N@Z 1000b9a0 f i NpFactory.obj
 0001:0000a9a0       ?create@?$HashBase@PAVPxAggregate@physx@@PAV12@U?$Hash@PAVPxAggregate@physx@@@shdfnd@2@UGetKey@?$HashSetBase@PAVPxAggregate@physx@@U?$Hash@PAVPxAggregate@physx@@@shdfnd@2@VNonTrackingAllocator@42@$00@internal@42@VNonTrackingAllocator@42@$00@internal@shdfnd@physx@@QAEPAPAVPxAggregate@4@ABQAV54@AA_N@Z 1000b9a0 f i NpScene.obj
 0001:0000a9a0       ?create@?$HashBase@PAVBase@Scb@physx@@PAV123@U?$Hash@PAVBase@Scb@physx@@@shdfnd@3@UGetKey@?$HashSetBase@PAVBase@Scb@physx@@U?$Hash@PAVBase@Scb@physx@@@shdfnd@3@VNonTrackingAllocator@53@$00@internal@53@VNonTrackingAllocator@53@$00@internal@shdfnd@physx@@QAEPAPAVBase@Scb@4@ABQAV564@AA_N@Z 1000b9a0 f i ScbScene.obj
 0001:0000a9a0       ?create@?$HashBase@PAVPxConstraint@physx@@PAV12@U?$Hash@PAVPxConstraint@physx@@@shdfnd@2@UGetKey@?$HashSetBase@PAVPxConstraint@physx@@U?$Hash@PAVPxConstraint@physx@@@shdfnd@2@VNonTrackingAllocator@42@$00@internal@42@VNonTrackingAllocator@42@$00@internal@shdfnd@physx@@QAEPAPAVPxConstraint@4@ABQAV54@AA_N@Z 1000b9a0 f i NpActor.obj
 0001:0000a9a0       ?create@?$HashBase@PAVPxArticulationBase@physx@@PAV12@U?$Hash@PAVPxArticulationBase@physx@@@shdfnd@2@UGetKey@?$HashSetBase@PAVPxArticulationBase@physx@@U?$Hash@PAVPxArticulationBase@physx@@@shdfnd@2@VNonTrackingAllocator@42@$00@internal@42@VNonTrackingAllocator@42@$00@internal@shdfnd@physx@@QAEPAPAVPxArticulationBase@4@ABQAV54@AA_N@Z 1000b9a0 f i NpScene.obj
 0001:0000aad0       ?erase@?$HashBase@PAVPxArticulationBase@physx@@PAV12@U?$Hash@PAVPxArticulationBase@physx@@@shdfnd@2@UGetKey@?$HashSetBase@PAVPxArticulationBase@physx@@U?$Hash@PAVPxArticulationBase@physx@@@shdfnd@2@VNonTrackingAllocator@42@$00@internal@42@VNonTrackingAllocator@42@$00@internal@shdfnd@physx@@QAE_NABQAVPxArticulationBase@4@@Z 1000bad0 f i NpArticulationReducedCoordinate.obj
 0001:0000aad0       ?erase@?$HashBase@PAVBase@Scb@physx@@PAV123@U?$Hash@PAVBase@Scb@physx@@@shdfnd@3@UGetKey@?$HashSetBase@PAVBase@Scb@physx@@U?$Hash@PAVBase@Scb@physx@@@shdfnd@3@VNonTrackingAllocator@53@$00@internal@53@VNonTrackingAllocator@53@$00@internal@shdfnd@physx@@QAE_NABQAVBase@Scb@4@@Z 1000bad0 f i ScbScene.obj
 0001:0000aad0       ?erase@?$HashBase@PAUConstraintGroupNode@Sc@physx@@PAU123@U?$Hash@PAUConstraintGroupNode@Sc@physx@@@shdfnd@3@UGetKey@?$HashSetBase@PAUConstraintGroupNode@Sc@physx@@U?$Hash@PAUConstraintGroupNode@Sc@physx@@@shdfnd@3@VNonTrackingAllocator@53@$00@internal@53@VNonTrackingAllocator@53@$00@internal@shdfnd@physx@@QAE_NABQAUConstraintGroupNode@Sc@4@@Z 1000bad0 f i SimulationController_static_32:ScConstraintProjectionManager.obj
 0001:0000aad0       ?erase@?$HashBase@PAVPxShape@physx@@PAV12@U?$Hash@PAVPxShape@physx@@@shdfnd@2@UGetKey@?$HashSetBase@PAVPxShape@physx@@U?$Hash@PAVPxShape@physx@@@shdfnd@2@VNonTrackingAllocator@42@$00@internal@42@VNonTrackingAllocator@42@$00@internal@shdfnd@physx@@QAE_NABQAVPxShape@4@@Z 1000bad0 f i NpFactory.obj
 0001:0000aad0       ?erase@?$HashBase@PAVConstraintSim@Sc@physx@@PAV123@U?$Hash@PAVConstraintSim@Sc@physx@@@shdfnd@3@UGetKey@?$HashSetBase@PAVConstraintSim@Sc@physx@@U?$Hash@PAVConstraintSim@Sc@physx@@@shdfnd@3@VNonTrackingAllocator@53@$00@internal@53@VNonTrackingAllocator@53@$00@internal@shdfnd@physx@@QAE_NABQAVConstraintSim@Sc@4@@Z 1000bad0 f i SimulationController_static_32:ScScene.obj
 0001:0000aad0       ?erase@?$HashBase@PAVBodyCore@Sc@physx@@PAV123@U?$Hash@PAVBodyCore@Sc@physx@@@shdfnd@3@UGetKey@?$HashSetBase@PAVBodyCore@Sc@physx@@U?$Hash@PAVBodyCore@Sc@physx@@@shdfnd@3@VNonTrackingAllocator@53@$00@internal@53@VNonTrackingAllocator@53@$00@internal@shdfnd@physx@@QAE_NABQAVBodyCore@Sc@4@@Z 1000bad0 f i SimulationController_static_32:ScScene.obj
 0001:0000aad0       ?erase@?$HashBase@PAVInteraction@Sc@physx@@PAV123@U?$Hash@PAVInteraction@Sc@physx@@@shdfnd@3@UGetKey@?$HashSetBase@PAVInteraction@Sc@physx@@U?$Hash@PAVInteraction@Sc@physx@@@shdfnd@3@VNonTrackingAllocator@53@$00@internal@53@VNonTrackingAllocator@53@$00@internal@shdfnd@physx@@QAE_NABQAVInteraction@Sc@4@@Z 1000bad0 f i SimulationController_static_32:ScNPhaseCore.obj
 0001:0000aad0       ?erase@?$HashBase@PAVConstraintCore@Sc@physx@@PAV123@U?$Hash@PAVConstraintCore@Sc@physx@@@shdfnd@3@UGetKey@?$HashSetBase@PAVConstraintCore@Sc@physx@@U?$Hash@PAVConstraintCore@Sc@physx@@@shdfnd@3@VNonTrackingAllocator@53@$00@internal@53@VNonTrackingAllocator@53@$00@internal@shdfnd@physx@@QAE_NABQAVConstraintCore@Sc@4@@Z 1000bad0 f i SimulationController_static_32:ScScene.obj
 0001:0000aad0       ?erase@?$HashBase@PAVPxAggregate@physx@@PAV12@U?$Hash@PAVPxAggregate@physx@@@shdfnd@2@UGetKey@?$HashSetBase@PAVPxAggregate@physx@@U?$Hash@PAVPxAggregate@physx@@@shdfnd@2@VNonTrackingAllocator@42@$00@internal@42@VNonTrackingAllocator@42@$00@internal@shdfnd@physx@@QAE_NABQAVPxAggregate@4@@Z 1000bad0 f i NpAggregate.obj
 0001:0000aad0       ?erase@?$HashBase@PAVPxConstraint@physx@@PAV12@U?$Hash@PAVPxConstraint@physx@@@shdfnd@2@UGetKey@?$HashSetBase@PAVPxConstraint@physx@@U?$Hash@PAVPxConstraint@physx@@@shdfnd@2@VNonTrackingAllocator@42@$00@internal@42@VNonTrackingAllocator@42@$00@internal@shdfnd@physx@@QAE_NABQAVPxConstraint@4@@Z 1000bad0 f i NpActor.obj
 0001:0000aad0       ?erase@?$HashBase@PAVArticulationCore@Sc@physx@@PAV123@U?$Hash@PAVArticulationCore@Sc@physx@@@shdfnd@3@UGetKey@?$HashSetBase@PAVArticulationCore@Sc@physx@@U?$Hash@PAVArticulationCore@Sc@physx@@@shdfnd@3@VNonTrackingAllocator@53@$00@internal@53@VNonTrackingAllocator@53@$00@internal@shdfnd@physx@@QAE_NABQAVArticulationCore@Sc@4@@Z 1000bad0 f i SimulationController_static_32:ScScene.obj
 0001:0000aad0       ?erase@?$HashBase@PBVBodySim@Sc@physx@@PBV123@U?$Hash@PBVBodySim@Sc@physx@@@shdfnd@3@UGetKey@?$HashSetBase@PBVBodySim@Sc@physx@@U?$Hash@PBVBodySim@Sc@physx@@@shdfnd@3@VNonTrackingAllocator@53@$00@internal@53@VNonTrackingAllocator@53@$00@internal@shdfnd@physx@@QAE_NABQBVBodySim@Sc@4@@Z 1000bad0 f i SimulationController_static_32:ScScene.obj
 0001:0000abd0       ?exportExtraData@NpActor@physx@@QAEXAAVPxSerializationContext@2@@Z 1000bbd0 f   NpActor.obj
 0001:0000ad50       ?findConnector@NpActor@physx@@QBEIW4Enum@NpConnectorType@2@PAVPxBase@2@@Z 1000bd50 f   NpActor.obj
 0001:0000ada0       ?getAPIScene@NpActor@physx@@SAPAVNpScene@2@ABVPxActor@2@@Z 1000bda0 f   NpActor.obj
 0001:0000add0       ?getAggregate@NpActor@physx@@QBEPAVPxAggregate@2@XZ 1000bdd0 f   NpActor.obj
 0001:0000ae10       ?getGlobalPose@NpActor@physx@@SAXAAVPxTransform@2@ABVShape@Scb@2@ABVActor@52@@Z 1000be10 f   NpActor.obj
 0001:0000b230       ?getKinematicTarget@Body@Scb@physx@@QBE_NAAVPxTransform@3@@Z 1000c230 f i NpActor.obj
 0001:0000b2a0       ?getNbConnectors@NpActor@physx@@QBEIW4Enum@NpConnectorType@2@@Z 1000c2a0 f   NpActor.obj
 0001:0000b2f0       ?getNpAggregate@NpActor@physx@@QBEPAVNpAggregate@2@AAI@Z 1000c2f0 f   NpActor.obj
 0001:0000b330       ?getOwnerScene@NpActor@physx@@SAPAVNpScene@2@ABVPxActor@2@@Z 1000c330 f   NpActor.obj
 0001:0000b350       ?getShapeManager@NpActor@physx@@SAPAVNpShapeManager@2@AAVPxRigidActor@2@@Z 1000c350 f   NpActor.obj
 0001:0000b350       ?getShapeManager@NpActor@physx@@SAPBVNpShapeManager@2@ABVPxRigidActor@2@@Z 1000c350 f   NpActor.obj
 0001:0000b370       ?growAndPushBack@?$Array@VNpConnector@physx@@V?$InlineAllocator@$0CA@V?$ReflectionAllocator@VNpConnector@physx@@@shdfnd@physx@@@shdfnd@2@@shdfnd@physx@@IAEAAVNpConnector@3@ABV43@@Z 1000c370 f i NpActor.obj
 0001:0000b410       ?importExtraData@NpActor@physx@@QAEXAAVPxDeserializationContext@2@@Z 1000c410 f   NpActor.obj
 0001:0000b490       ?onActorRelease@NpActor@physx@@SAXPAVPxActor@2@@Z 1000c490 f   NpActor.obj
 0001:0000b4a0       ?recreate@?$Array@VNpConnector@physx@@V?$InlineAllocator@$0CA@V?$ReflectionAllocator@VNpConnector@physx@@@shdfnd@physx@@@shdfnd@2@@shdfnd@physx@@IAEXI@Z 1000c4a0 f i NpActor.obj
 0001:0000b520       ?release@NpActor@physx@@QAEXAAVPxActor@2@@Z 1000c520 f   NpActor.obj
 0001:0000b540       ?releaseConstraints@NpActor@physx@@QAEXAAVPxRigidActor@2@@Z 1000c540 f   NpActor.obj
 0001:0000b610       ?removeConnector@NpActor@physx@@AAEXAAVPxActor@2@I@Z 1000c610 f   NpActor.obj
 0001:0000b660       ?removeConnector@NpActor@physx@@QAEXAAVPxActor@2@W4Enum@NpConnectorType@2@PAVPxBase@2@PBD@Z 1000c660 f   NpActor.obj
 0001:0000b6f0       ?removeConstraintsFromScene@NpActor@physx@@QAEXXZ 1000c6f0 f   NpActor.obj
 0001:0000b770       ?reserveInternal@?$HashBase@PAVPxAggregate@physx@@PAV12@U?$Hash@PAVPxAggregate@physx@@@shdfnd@2@UGetKey@?$HashSetBase@PAVPxAggregate@physx@@U?$Hash@PAVPxAggregate@physx@@@shdfnd@2@VNonTrackingAllocator@42@$00@internal@42@VNonTrackingAllocator@42@$00@internal@shdfnd@physx@@AAEXI@Z 1000c770 f i NpScene.obj
 0001:0000b770       ?reserveInternal@?$HashBase@PAVPxArticulationBase@physx@@PAV12@U?$Hash@PAVPxArticulationBase@physx@@@shdfnd@2@UGetKey@?$HashSetBase@PAVPxArticulationBase@physx@@U?$Hash@PAVPxArticulationBase@physx@@@shdfnd@2@VNonTrackingAllocator@42@$00@internal@42@VNonTrackingAllocator@42@$00@internal@shdfnd@physx@@AAEXI@Z 1000c770 f i NpScene.obj
 0001:0000b770       ?reserveInternal@?$HashBase@PAVPxConstraint@physx@@PAV12@U?$Hash@PAVPxConstraint@physx@@@shdfnd@2@UGetKey@?$HashSetBase@PAVPxConstraint@physx@@U?$Hash@PAVPxConstraint@physx@@@shdfnd@2@VNonTrackingAllocator@42@$00@internal@42@VNonTrackingAllocator@42@$00@internal@shdfnd@physx@@AAEXI@Z 1000c770 f i NpActor.obj
 0001:0000b770       ?reserveInternal@?$HashBase@PAVBase@Scb@physx@@PAV123@U?$Hash@PAVBase@Scb@physx@@@shdfnd@3@UGetKey@?$HashSetBase@PAVBase@Scb@physx@@U?$Hash@PAVBase@Scb@physx@@@shdfnd@3@VNonTrackingAllocator@53@$00@internal@53@VNonTrackingAllocator@53@$00@internal@shdfnd@physx@@AAEXI@Z 1000c770 f i ScbScene.obj
 0001:0000b770       ?reserveInternal@?$HashBase@PAVPxShape@physx@@PAV12@U?$Hash@PAVPxShape@physx@@@shdfnd@2@UGetKey@?$HashSetBase@PAVPxShape@physx@@U?$Hash@PAVPxShape@physx@@@shdfnd@2@VNonTrackingAllocator@42@$00@internal@42@VNonTrackingAllocator@42@$00@internal@shdfnd@physx@@AAEXI@Z 1000c770 f i NpFactory.obj
 0001:0000b900       ?resizeUninitialized@?$Array@VNpConnector@physx@@V?$InlineAllocator@$0CA@V?$ReflectionAllocator@VNpConnector@physx@@@shdfnd@physx@@@shdfnd@2@@shdfnd@physx@@QAEXI@Z 1000c900 f i NpActor.obj
 0001:0000b930       ?resolveReferences@NpActor@physx@@QAEXAAVPxDeserializationContext@2@@Z 1000c930 f   NpActor.obj
 0001:0000b990       ?setAggregate@NpActor@physx@@QAEXPAVNpAggregate@2@AAVPxActor@2@@Z 1000c990 f   NpActor.obj
 0001:0000bae0       ??0NpAggregate@physx@@QAE@I_N@Z 1000cae0 f   NpAggregate.obj
 0001:0000bb60       ??_GNpAggregate@physx@@UAEPAXI@Z 1000cb60 f i NpAggregate.obj
 0001:0000bb60       ??_ENpAggregate@physx@@UAEPAXI@Z 1000cb60 f i NpAggregate.obj
 0001:0000bbd0       ??_EPxBase@physx@@MAEPAXI@Z 1000cbd0 f i NpAggregate.obj
 0001:0000bbd0       ??_GPxBase@physx@@MAEPAXI@Z 1000cbd0 f i NpAggregate.obj
 0001:0000bc00       ?addActor@NpAggregate@physx@@UAE_NAAVPxActor@2@PBVPxBVHStructure@2@@Z 1000cc00 f   NpAggregate.obj
 0001:0000bdd0       ?addActorInternal@NpAggregate@physx@@QAEXAAVPxActor@2@AAVNpScene@2@PBVPxBVHStructure@2@@Z 1000cdd0 f   NpAggregate.obj
 0001:0000be70       ?addArticulation@NpAggregate@physx@@UAE_NAAVPxArticulationBase@2@@Z 1000ce70 f   NpAggregate.obj
 0001:0000bfd0       ?createObject@NpAggregate@physx@@SAPAV12@AAPAEAAVPxDeserializationContext@2@@Z 1000cfd0 f   NpAggregate.obj
 0001:0000c0c0       ?exportExtraData@NpAggregate@physx@@UAEXAAVPxSerializationContext@2@@Z 1000d0c0 f   NpAggregate.obj
 0001:0000c0f0       ?getAPIScene@NpAggregate@physx@@QBEPAVNpScene@2@XZ 1000d0f0 f   NpAggregate.obj
 0001:0000c0f0       ?getScene@NpAggregate@physx@@UAEPAVPxScene@2@XZ 1000d0f0 f   NpAggregate.obj
 0001:0000c120       ?getActors@NpAggregate@physx@@UBEIPAPAVPxActor@2@II@Z 1000d120 f   NpAggregate.obj
 0001:0000c170       ?getConcreteTypeName@PxAggregate@physx@@UBEPBDXZ 1000d170 f i NpAggregate.obj
 0001:0000c180       ?getTriangles@RenderBuffer@Cm@physx@@UBEPBUPxDebugTriangle@3@XZ 1000d180 f   NpScene.obj
 0001:0000c180       ?getReference@PxLightCpuTask@physx@@UBEHXZ 1000d180 f   NpScene.obj
 0001:0000c180       ?getName@FanoutTask@Cm@physx@@UBEPBDXZ 1000d180 f   SimulationController_static_32:ScScene.obj
 0001:0000c180       ?getMaxNbActors@NpAggregate@physx@@UBEIXZ 1000d180 f   NpAggregate.obj
 0001:0000c190       ?getName@?$DelegateTask@VScene@Sc@physx@@$1?destroyManagers@123@AAEXPAVPxBaseTask@3@@Z@Cm@physx@@UBEPBDXZ 1000d190 f   SimulationController_static_32:ScScene.obj
 0001:0000c190       ?getName@?$DelegateTask@VScene@Sc@physx@@$1?registerInteractions@123@QAEXPAVPxBaseTask@3@@Z@Cm@physx@@UBEPBDXZ 1000d190 f   SimulationController_static_32:ScScene.obj
 0001:0000c190       ?getName@?$DelegateTask@VScene@Sc@physx@@$1?updateCCDMultiPass@123@AAEXPAVPxBaseTask@3@@Z@Cm@physx@@UBEPBDXZ 1000d190 f   SimulationController_static_32:ScScene.obj
 0001:0000c190       ?getName@?$DelegateTask@VScene@Sc@physx@@$1?unregisterInteractions@123@AAEXPAVPxBaseTask@3@@Z@Cm@physx@@UBEPBDXZ 1000d190 f   SimulationController_static_32:ScScene.obj
 0001:0000c190       ?getName@?$DelegateTask@VScene@Sc@physx@@$1?updateCCDSinglePassStage2@123@AAEXPAVPxBaseTask@3@@Z@Cm@physx@@UBEPBDXZ 1000d190 f   SimulationController_static_32:ScScene.obj
 0001:0000c190       ?getName@?$DelegateTask@VScene@Sc@physx@@$1?solver@123@AAEXPAVPxBaseTask@3@@Z@Cm@physx@@UBEPBDXZ 1000d190 f   SimulationController_static_32:ScScene.obj
 0001:0000c190       ?getName@?$DelegateTask@VScene@Sc@physx@@$1?preRigidBodyNarrowPhase@123@AAEXPAVPxBaseTask@3@@Z@Cm@physx@@UBEPBDXZ 1000d190 f   SimulationController_static_32:ScScene.obj
 0001:0000c190       ?getName@?$DelegateTask@VScene@Sc@physx@@$1?updateBodiesAndShapes@123@AAEXPAVPxBaseTask@3@@Z@Cm@physx@@UBEPBDXZ 1000d190 f   SimulationController_static_32:ScScene.obj
 0001:0000c190       ?getName@?$DelegateTask@VPxsCCDContext@physx@@$1?postCCDDepenetrate@12@AAEXPAVPxBaseTask@2@@Z@Cm@physx@@UBEPBDXZ 1000d190 f   LowLevel_static_32:PxsCCD.obj
 0001:0000c190       ?getName@?$DelegateTask@VPxsCCDContext@physx@@$1?postCCDSweep@12@AAEXPAVPxBaseTask@2@@Z@Cm@physx@@UBEPBDXZ 1000d190 f   LowLevel_static_32:PxsCCD.obj
 0001:0000c190       ?getName@?$DelegateTask@VScene@Sc@physx@@$1?fetchPatchEvents@123@AAEXPAVPxBaseTask@3@@Z@Cm@physx@@UBEPBDXZ 1000d190 f   SimulationController_static_32:ScScene.obj
 0001:0000c190       ?getName@?$DelegateTask@VAABBManager@Bp@physx@@$1?postBpStage3@123@AAEXPAVPxBaseTask@3@@Z@Cm@physx@@UBEPBDXZ 1000d190 f   LowLevelAABB_static_32:BpAABBManager.obj
 0001:0000c190       ?getName@?$DelegateTask@VScene@Sc@physx@@$1?rigidBodyNarrowPhase@123@AAEXPAVPxBaseTask@3@@Z@Cm@physx@@UBEPBDXZ 1000d190 f   SimulationController_static_32:ScScene.obj
 0001:0000c190       ?getName@?$DelegateTask@VScene@Sc@physx@@$1?updateCCDSinglePassStage3@123@AAEXPAVPxBaseTask@3@@Z@Cm@physx@@UBEPBDXZ 1000d190 f   SimulationController_static_32:ScScene.obj
 0001:0000c190       ?getName@?$DelegateTask@VScene@Sc@physx@@$1?ccdBroadPhaseAABB@123@AAEXPAVPxBaseTask@3@@Z@Cm@physx@@UBEPBDXZ 1000d190 f   SimulationController_static_32:ScScene.obj
 0001:0000c190       ?getName@?$DelegateTask@VScene@Sc@physx@@$1?postBroadPhaseContinuation@123@AAEXPAVPxBaseTask@3@@Z@Cm@physx@@UBEPBDXZ 1000d190 f   SimulationController_static_32:ScScene.obj
 0001:0000c190       ?getName@?$DelegateTask@VScene@Sc@physx@@$1?postThirdPassIslandGen@123@AAEXPAVPxBaseTask@3@@Z@Cm@physx@@UBEPBDXZ 1000d190 f   SimulationController_static_32:ScScene.obj
 0001:0000c190       ?getName@?$DelegateTask@VScene@Sc@physx@@$1?setEdgesConnected@123@AAEXPAVPxBaseTask@3@@Z@Cm@physx@@UBEPBDXZ 1000d190 f   SimulationController_static_32:ScScene.obj
 0001:0000c190       ?getName@?$DelegateTask@VScene@Sc@physx@@$1?processNarrowPhaseLostTouchEvents@123@AAEXPAVPxBaseTask@3@@Z@Cm@physx@@UBEPBDXZ 1000d190 f   SimulationController_static_32:ScScene.obj
 0001:0000c190       ?getName@?$DelegateTask@VScene@Sc@physx@@$1?processLostContacts@123@AAEXPAVPxBaseTask@3@@Z@Cm@physx@@UBEPBDXZ 1000d190 f   SimulationController_static_32:ScScene.obj
 0001:0000c190       ?getName@?$DelegateTask@VScene@Sc@physx@@$1?processLostContacts3@123@AAEXPAVPxBaseTask@3@@Z@Cm@physx@@UBEPBDXZ 1000d190 f   SimulationController_static_32:ScScene.obj
 0001:0000c190       ?getName@?$DelegateTask@VScene@Sc@physx@@$1?postBroadPhase@123@AAEXPAVPxBaseTask@3@@Z@Cm@physx@@UBEPBDXZ 1000d190 f   SimulationController_static_32:ScScene.obj
 0001:0000c190       ?getName@?$DelegateTask@VScene@Sc@physx@@$1?postSolver@123@AAEXPAVPxBaseTask@3@@Z@Cm@physx@@UBEPBDXZ 1000d190 f   SimulationController_static_32:ScScene.obj
 0001:0000c190       ?getName@?$DelegateTask@VScene@Sc@physx@@$1?postCCDPass@123@AAEXPAVPxBaseTask@3@@Z@Cm@physx@@UBEPBDXZ 1000d190 f   SimulationController_static_32:ScScene.obj
 0001:0000c190       ?getNbActors@NpAggregate@physx@@UBEIXZ 1000d190 f   NpAggregate.obj
 0001:0000c190       ?getName@?$DelegateTask@VNPhaseCore@Sc@physx@@$1?mergeProcessedTriggerInteractions@123@QAEXPAVPxBaseTask@3@@Z@Cm@physx@@UBEPBDXZ 1000d190 f   SimulationController_static_32:ScNPhaseCore.obj
 0001:0000c190       ?getName@?$DelegateTask@VNpScene@physx@@$H?executeAdvance@12@QAEXPAVPxBaseTask@2@@ZA@@Cm@physx@@UBEPBDXZ 1000d190 f   NpScene.obj
 0001:0000c190       ?getName@?$DelegateTask@VScene@Sc@physx@@$1?secondPassNarrowPhase@123@QAEXPAVPxBaseTask@3@@Z@Cm@physx@@UBEPBDXZ 1000d190 f   SimulationController_static_32:ScScene.obj
 0001:0000c190       ?getName@?$DelegateTask@VScene@Sc@physx@@$1?constraintProjection@123@AAEXPAVPxBaseTask@3@@Z@Cm@physx@@UBEPBDXZ 1000d190 f   SimulationController_static_32:ScScene.obj
 0001:0000c190       ?getName@?$DelegateTask@VNpScene@physx@@$H?executeCollide@12@QAEXPAVPxBaseTask@2@@ZA@@Cm@physx@@UBEPBDXZ 1000d190 f   NpScene.obj
 0001:0000c190       ?getName@?$DelegateTask@VScene@Sc@physx@@$1?processNarrowPhaseLostTouchEventsIslands@123@AAEXPAVPxBaseTask@3@@Z@Cm@physx@@UBEPBDXZ 1000d190 f   SimulationController_static_32:ScScene.obj
 0001:0000c190       ?getName@?$DelegateTask@VScene@Sc@physx@@$1?processLostContacts2@123@AAEXPAVPxBaseTask@3@@Z@Cm@physx@@UBEPBDXZ 1000d190 f   SimulationController_static_32:ScScene.obj
 0001:0000c190       ?getName@?$DelegateTask@VScene@Sc@physx@@$1?lostTouchReports@123@AAEXPAVPxBaseTask@3@@Z@Cm@physx@@UBEPBDXZ 1000d190 f   SimulationController_static_32:ScScene.obj
 0001:0000c190       ?getName@?$DelegateTask@VScene@Sc@physx@@$1?registerContactManagers@123@QAEXPAVPxBaseTask@3@@Z@Cm@physx@@UBEPBDXZ 1000d190 f   SimulationController_static_32:ScScene.obj
 0001:0000c190       ?getName@?$DelegateTask@VScene@Sc@physx@@$1?collideStep@123@AAEXPAVPxBaseTask@3@@Z@Cm@physx@@UBEPBDXZ 1000d190 f   SimulationController_static_32:ScScene.obj
 0001:0000c190       ?getName@?$DelegateTask@VScene@Sc@physx@@$1?postIslandGen@123@AAEXPAVPxBaseTask@3@@Z@Cm@physx@@UBEPBDXZ 1000d190 f   SimulationController_static_32:ScScene.obj
 0001:0000c190       ?getName@?$DelegateTask@VScene@Sc@physx@@$1?updateSimulationController@123@AAEXPAVPxBaseTask@3@@Z@Cm@physx@@UBEPBDXZ 1000d190 f   SimulationController_static_32:ScScene.obj
 0001:0000c190       ?getName@?$DelegateTask@VScene@Sc@physx@@$1?preallocateContactManagers@123@QAEXPAVPxBaseTask@3@@Z@Cm@physx@@UBEPBDXZ 1000d190 f   SimulationController_static_32:ScScene.obj
 0001:0000c190       ?getName@?$DelegateTask@VScene@Sc@physx@@$1?updateCCDSinglePass@123@AAEXPAVPxBaseTask@3@@Z@Cm@physx@@UBEPBDXZ 1000d190 f   SimulationController_static_32:ScScene.obj
 0001:0000c190       ?getName@?$DelegateTask@VScene@Sc@physx@@$1?advanceStep@123@AAEXPAVPxBaseTask@3@@Z@Cm@physx@@UBEPBDXZ 1000d190 f   SimulationController_static_32:ScScene.obj
 0001:0000c190       ?getName@?$DelegateTask@VScene@Sc@physx@@$1?afterIntegration@123@AAEXPAVPxBaseTask@3@@Z@Cm@physx@@UBEPBDXZ 1000d190 f   SimulationController_static_32:ScScene.obj
 0001:0000c190       ?getName@?$DelegateTask@VScene@Sc@physx@@$1?islandInsertion@123@QAEXPAVPxBaseTask@3@@Z@Cm@physx@@UBEPBDXZ 1000d190 f   SimulationController_static_32:ScScene.obj
 0001:0000c190       ?getName@?$DelegateTask@VNpSceneQueries@physx@@$1?sceneQueriesStaticPrunerUpdate@12@QAEXPAVPxBaseTask@2@@Z@Cm@physx@@UBEPBDXZ 1000d190 f   NpScene.obj
 0001:0000c190       ?getName@?$DelegateTask@VScene@Sc@physx@@$1?postBroadPhaseStage2@123@AAEXPAVPxBaseTask@3@@Z@Cm@physx@@UBEPBDXZ 1000d190 f   SimulationController_static_32:ScScene.obj
 0001:0000c190       ?getName@?$DelegateTask@VScene@Sc@physx@@$1?updateDynamics@123@AAEXPAVPxBaseTask@3@@Z@Cm@physx@@UBEPBDXZ 1000d190 f   SimulationController_static_32:ScScene.obj
 0001:0000c190       ?getName@?$DelegateTask@VScene@Sc@physx@@$1?ccdBroadPhase@123@AAEXPAVPxBaseTask@3@@Z@Cm@physx@@UBEPBDXZ 1000d190 f   SimulationController_static_32:ScScene.obj
 0001:0000c190       ?getName@?$DelegateTask@VScene@Sc@physx@@$1?islandGen@123@AAEXPAVPxBaseTask@3@@Z@Cm@physx@@UBEPBDXZ 1000d190 f   SimulationController_static_32:ScScene.obj
 0001:0000c190       ?getName@?$DelegateTask@VScene@Sc@physx@@$1?processLostSolverPatches@123@AAEXPAVPxBaseTask@3@@Z@Cm@physx@@UBEPBDXZ 1000d190 f   SimulationController_static_32:ScScene.obj
 0001:0000c190       ?getName@?$DelegateTask@VScene@Sc@physx@@$1?broadPhase@123@AAEXPAVPxBaseTask@3@@Z@Cm@physx@@UBEPBDXZ 1000d190 f   SimulationController_static_32:ScScene.obj
 0001:0000c190       ?getName@?$DelegateTask@VScene@Sc@physx@@$1?registerSceneInteractions@123@QAEXPAVPxBaseTask@3@@Z@Cm@physx@@UBEPBDXZ 1000d190 f   SimulationController_static_32:ScScene.obj
 0001:0000c190       ?getName@?$DelegateTask@VPxsCCDContext@physx@@$1?postCCDAdvance@12@AAEXPAVPxBaseTask@2@@Z@Cm@physx@@UBEPBDXZ 1000d190 f   LowLevel_static_32:PxsCCD.obj
 0001:0000c190       ?getName@?$DelegateTask@VScene@Sc@physx@@$1?unblockNarrowPhase@123@AAEXPAVPxBaseTask@3@@Z@Cm@physx@@UBEPBDXZ 1000d190 f   SimulationController_static_32:ScScene.obj
 0001:0000c190       ?getName@?$DelegateTask@VNpSceneQueries@physx@@$1?sceneQueriesDynamicPrunerUpdate@12@QAEXPAVPxBaseTask@2@@Z@Cm@physx@@UBEPBDXZ 1000d190 f   NpScene.obj
 0001:0000c190       ?getName@?$DelegateTask@VNpScene@physx@@$H?executeScene@12@QAEXPAVPxBaseTask@2@@ZA@@Cm@physx@@UBEPBDXZ 1000d190 f   NpScene.obj
 0001:0000c1a0       ?getSelfCollision@NpAggregate@physx@@UBE_NXZ 1000d1a0 f   NpAggregate.obj
 0001:0000c1b0       ?isKindOf@PxAggregate@physx@@MBE_NPBD@Z 1000d1b0 f i NpAggregate.obj
 0001:0000c230       ?isKindOf@PxBase@physx@@MBE_NPBD@Z 1000d230 f i NpAggregate.obj
 0001:0000c280       ?isReleasable@PxBase@physx@@UBE_NXZ 1000d280 f i NpAggregate.obj
 0001:0000c290       ?preExportDataReset@NpAggregate@physx@@QAEXXZ 1000d290 f   NpAggregate.obj
 0001:0000c2a0       ?release@NpAggregate@physx@@UAEXXZ 1000d2a0 f   NpAggregate.obj
 0001:0000c3b0       ?removeActor@NpAggregate@physx@@UAE_NAAVPxActor@2@@Z 1000d3b0 f   NpAggregate.obj
 0001:0000c590       ?removeActorAndReinsert@NpAggregate@physx@@QAE_NAAVPxActor@2@_N@Z 1000d590 f   NpAggregate.obj
 0001:0000c610       ?removeArticulation@NpAggregate@physx@@UAE_NAAVPxArticulationBase@2@@Z 1000d610 f   NpAggregate.obj
 0001:0000c6f0       ?removeArticulationAndReinsert@NpAggregate@physx@@QAE_NAAVPxArticulationBase@2@_N@Z 1000d6f0 f   NpAggregate.obj
 0001:0000c7b0       ?requiresObjects@NpAggregate@physx@@UAEXAAVPxProcessPxBaseCallback@2@@Z 1000d7b0 f   NpAggregate.obj
 0001:0000c800       ??0NpArticulationReducedCoordinate@physx@@QAE@XZ 1000d800 f   NpArticulationReducedCoordinate.obj
 0001:0000c8b0       ??1?$NpArticulationTemplate@VPxArticulationReducedCoordinate@physx@@@physx@@UAE@XZ 1000d8b0 f i NpArticulationReducedCoordinate.obj
 0001:0000c920       ??_G?$NpArticulationTemplate@VPxArticulationReducedCoordinate@physx@@@physx@@UAEPAXI@Z 1000d920 f i NpArticulationReducedCoordinate.obj
 0001:0000c920       ??_E?$NpArticulationTemplate@VPxArticulationReducedCoordinate@physx@@@physx@@UAEPAXI@Z 1000d920 f i NpArticulationReducedCoordinate.obj
 0001:0000c960       ??_ENpArticulationReducedCoordinate@physx@@UAEPAXI@Z 1000d960 f i NpArticulationReducedCoordinate.obj
 0001:0000c960       ??_GNpArticulationReducedCoordinate@physx@@UAEPAXI@Z 1000d960 f i NpArticulationReducedCoordinate.obj
 0001:0000c9e0       ?addLoopJoint@NpArticulationReducedCoordinate@physx@@UAEXPAVPxJoint@2@@Z 1000d9e0 f   NpArticulationReducedCoordinate.obj
 0001:0000ca60       ?allocate@?$Array@PAVNpArticulationLink@physx@@V?$InlineAllocator@$0BA@V?$ReflectionAllocator@PAVNpArticulationLink@physx@@@shdfnd@physx@@@shdfnd@2@@shdfnd@physx@@IAEPAPAVNpArticulationLink@3@I@Z 1000da60 f i NpArticulationReducedCoordinate.obj
 0001:0000caf0       ?allocate@?$Array@PAVPxJoint@physx@@V?$ReflectionAllocator@PAVPxJoint@physx@@@shdfnd@2@@shdfnd@physx@@IAEPAPAVPxJoint@3@I@Z 1000daf0 f i NpArticulationReducedCoordinate.obj
 0001:0000cb60       ?applyCache@NpArticulationReducedCoordinate@physx@@UAEXAAVPxArticulationCache@2@V?$PxFlags@W4Enum@PxArticulationCache@physx@@E@2@_N@Z 1000db60 f   NpArticulationReducedCoordinate.obj
 0001:0000ce40       ?commonInit@NpArticulationReducedCoordinate@physx@@UBEXXZ 1000de40 f   NpArticulationReducedCoordinate.obj
 0001:0000ce50       ?computeCoefficientMatrix@NpArticulationReducedCoordinate@physx@@UBEXAAVPxArticulationCache@2@@Z 1000de50 f   NpArticulationReducedCoordinate.obj
 0001:0000ce90       ?computeCoriolisAndCentrifugalForce@NpArticulationReducedCoordinate@physx@@UBEXAAVPxArticulationCache@2@@Z 1000de90 f   NpArticulationReducedCoordinate.obj
 0001:0000cea0       ?computeDenseJacobian@NpArticulationReducedCoordinate@physx@@UBEXAAVPxArticulationCache@2@AAI1@Z 1000dea0 f   NpArticulationReducedCoordinate.obj
 0001:0000ceb0       ?computeGeneralizedExternalForce@NpArticulationReducedCoordinate@physx@@UBEXAAVPxArticulationCache@2@@Z 1000deb0 f   NpArticulationReducedCoordinate.obj
 0001:0000cec0       ?computeGeneralizedGravityForce@NpArticulationReducedCoordinate@physx@@UBEXAAVPxArticulationCache@2@@Z 1000dec0 f   NpArticulationReducedCoordinate.obj
 0001:0000ced0       ?computeGeneralizedMassMatrix@NpArticulationReducedCoordinate@physx@@UBEXAAVPxArticulationCache@2@@Z 1000ded0 f   NpArticulationReducedCoordinate.obj
 0001:0000cee0       ?computeJointAcceleration@NpArticulationReducedCoordinate@physx@@UBEXAAVPxArticulationCache@2@@Z 1000dee0 f   NpArticulationReducedCoordinate.obj
 0001:0000cef0       ?computeJointForce@NpArticulationReducedCoordinate@physx@@UBEXAAVPxArticulationCache@2@@Z 1000def0 f   NpArticulationReducedCoordinate.obj
 0001:0000cf00       ?computeLambda@NpArticulationReducedCoordinate@physx@@UBE_NAAVPxArticulationCache@2@0QBMI@Z 1000df00 f   NpArticulationReducedCoordinate.obj
 0001:0000cfc0       ?copyInternalStateToCache@NpArticulationReducedCoordinate@physx@@UBEXAAVPxArticulationCache@2@V?$PxFlags@W4Enum@PxArticulationCache@physx@@E@2@@Z 1000dfc0 f   NpArticulationReducedCoordinate.obj
 0001:0000cfe0       ?createArticulationJoint@NpArticulationReducedCoordinate@physx@@UAEPAVPxArticulationJointBase@2@AAVPxArticulationLink@2@ABVPxTransform@2@01@Z 1000dfe0 f   NpArticulationReducedCoordinate.obj
 0001:0000cff0       ?createCache@NpArticulationReducedCoordinate@physx@@UBEPAVPxArticulationCache@2@XZ 1000dff0 f   NpArticulationReducedCoordinate.obj
 0001:0000d010       ?createLink@?$NpArticulationTemplate@VPxArticulationReducedCoordinate@physx@@@physx@@UAEPAVPxArticulationLink@2@PAV32@ABVPxTransform@2@@Z 1000e010 f i NpArticulationReducedCoordinate.obj
 0001:0000d010       ?createLink@?$NpArticulationTemplate@VPxArticulation@physx@@@physx@@UAEPAVPxArticulationLink@2@PAV32@ABVPxTransform@2@@Z 1000e010 f i NpArticulation.obj
 0001:0000d190       ?createObject@NpArticulationReducedCoordinate@physx@@SAPAV12@AAPAEAAVPxDeserializationContext@2@@Z 1000e190 f   NpArticulationReducedCoordinate.obj
 0001:0000d2c0       ?exportExtraData@?$NpArticulationTemplate@VPxArticulation@physx@@@physx@@UAEXAAVPxSerializationContext@2@@Z 1000e2c0 f i NpArticulation.obj
 0001:0000d2c0       ?exportExtraData@?$NpArticulationTemplate@VPxArticulationReducedCoordinate@physx@@@physx@@UAEXAAVPxSerializationContext@2@@Z 1000e2c0 f i NpArticulationReducedCoordinate.obj
 0001:0000d310       ?getAggregate@?$NpArticulationTemplate@VPxArticulation@physx@@@physx@@UBEPAVPxAggregate@2@XZ 1000e310 f i NpArticulation.obj
 0001:0000d310       ?getAggregate@?$NpArticulationTemplate@VPxArticulationReducedCoordinate@physx@@@physx@@UBEPAVPxAggregate@2@XZ 1000e310 f i NpArticulationReducedCoordinate.obj
 0001:0000d320       ?getArticulationFlags@NpArticulationReducedCoordinate@physx@@UBE?AV?$PxFlags@W4Enum@PxArticulationFlag@physx@@E@2@XZ 1000e320 f   NpArticulationReducedCoordinate.obj
 0001:0000d330       ?getCacheDataSize@NpArticulationReducedCoordinate@physx@@UBEIXZ 1000e330 f   NpArticulationReducedCoordinate.obj
 0001:0000d340       ?getCoefficientMatrixSize@NpArticulationReducedCoordinate@physx@@UBEIXZ 1000e340 f   NpArticulationReducedCoordinate.obj
 0001:0000d350       ?getConcreteTypeName@NpArticulationReducedCoordinate@physx@@UBEPBDXZ 1000e350 f i NpArticulationReducedCoordinate.obj
 0001:0000d360       ?getDofs@NpArticulationReducedCoordinate@physx@@UBEIXZ 1000e360 f   NpArticulationReducedCoordinate.obj
 0001:0000d370       ?getLinkAcceleration@NpArticulationReducedCoordinate@physx@@UAE?AUPxSpatialVelocity@2@I@Z 1000e370 f   NpArticulationReducedCoordinate.obj
 0001:0000d390       ?getLinkVelocity@NpArticulationReducedCoordinate@physx@@UAE?AUPxSpatialVelocity@2@I@Z 1000e390 f   NpArticulationReducedCoordinate.obj
 0001:0000d3b0       ?getLinks@?$NpArticulationTemplate@VPxArticulationReducedCoordinate@physx@@@physx@@UBEIPAPAVPxArticulationLink@2@II@Z 1000e3b0 f i NpArticulationReducedCoordinate.obj
 0001:0000d3b0       ?getLinks@?$NpArticulationTemplate@VPxArticulation@physx@@@physx@@UBEIPAPAVPxArticulationLink@2@II@Z 1000e3b0 f i NpArticulation.obj
 0001:0000d400       ?getLoopJoints@NpArticulationReducedCoordinate@physx@@UBEIPAPAVPxJoint@2@II@Z 1000e400 f   NpArticulationReducedCoordinate.obj
 0001:0000d450       ?getName@?$NpArticulationTemplate@VPxArticulation@physx@@@physx@@UBEPBDXZ 1000e450 f i NpArticulation.obj
 0001:0000d450       ?getName@?$NpArticulationTemplate@VPxArticulationReducedCoordinate@physx@@@physx@@UBEPBDXZ 1000e450 f i NpArticulationReducedCoordinate.obj
 0001:0000d460       ?getNbLinks@?$NpArticulationTemplate@VPxArticulationReducedCoordinate@physx@@@physx@@UBEIXZ 1000e460 f i NpArticulationReducedCoordinate.obj
 0001:0000d460       ?getNbLinks@?$NpArticulationTemplate@VPxArticulation@physx@@@physx@@UBEIXZ 1000e460 f i NpArticulation.obj
 0001:0000d470       ?getNbLoopJoints@NpArticulationReducedCoordinate@physx@@UBEIXZ 1000e470 f   NpArticulationReducedCoordinate.obj
 0001:0000d480       ?getScene@?$NpArticulationTemplate@VPxArticulationReducedCoordinate@physx@@@physx@@UBEPAVPxScene@2@XZ 1000e480 f i NpArticulationReducedCoordinate.obj
 0001:0000d480       ?getScene@?$NpArticulationTemplate@VPxArticulation@physx@@@physx@@UBEPAVPxScene@2@XZ 1000e480 f i NpArticulation.obj
 0001:0000d4b0       ?getSleepThreshold@?$NpArticulationTemplate@VPxArticulation@physx@@@physx@@UBEMXZ 1000e4b0 f i NpArticulation.obj
 0001:0000d4b0       ?getSleepThreshold@?$NpArticulationTemplate@VPxArticulationReducedCoordinate@physx@@@physx@@UBEMXZ 1000e4b0 f i NpArticulationReducedCoordinate.obj
 0001:0000d4e0       ?getSolverIterationCounts@?$NpArticulationTemplate@VPxArticulationReducedCoordinate@physx@@@physx@@UBEXAAI0@Z 1000e4e0 f i NpArticulationReducedCoordinate.obj
 0001:0000d4e0       ?getSolverIterationCounts@?$NpArticulationTemplate@VPxArticulation@physx@@@physx@@UBEXAAI0@Z 1000e4e0 f i NpArticulation.obj
 0001:0000d510       ?getStabilizationThreshold@?$NpArticulationTemplate@VPxArticulation@physx@@@physx@@UBEMXZ 1000e510 f i NpArticulation.obj
 0001:0000d510       ?getStabilizationThreshold@?$NpArticulationTemplate@VPxArticulationReducedCoordinate@physx@@@physx@@UBEMXZ 1000e510 f i NpArticulationReducedCoordinate.obj
 0001:0000d540       ?getWakeCounter@?$NpArticulationTemplate@VPxArticulationReducedCoordinate@physx@@@physx@@UBEMXZ 1000e540 f i NpArticulationReducedCoordinate.obj
 0001:0000d540       ?getWakeCounter@?$NpArticulationTemplate@VPxArticulation@physx@@@physx@@UBEMXZ 1000e540 f i NpArticulation.obj
 0001:0000d550       ?getWorldBounds@?$NpArticulationTemplate@VPxArticulationReducedCoordinate@physx@@@physx@@UBE?AVPxBounds3@2@M@Z 1000e550 f i NpArticulationReducedCoordinate.obj
 0001:0000d550       ?getWorldBounds@?$NpArticulationTemplate@VPxArticulation@physx@@@physx@@UBE?AVPxBounds3@2@M@Z 1000e550 f i NpArticulation.obj
 0001:0000d720       ?growAndPushBack@?$Array@PAVNpArticulationLink@physx@@V?$InlineAllocator@$0BA@V?$ReflectionAllocator@PAVNpArticulationLink@physx@@@shdfnd@physx@@@shdfnd@2@@shdfnd@physx@@IAEAAPAVNpArticulationLink@3@ABQAV43@@Z 1000e720 f i NpArticulationReducedCoordinate.obj
 0001:0000d7b0       ?growAndPushBack@?$Array@PAVPxJoint@physx@@V?$ReflectionAllocator@PAVPxJoint@physx@@@shdfnd@2@@shdfnd@physx@@IAEAAPAVPxJoint@3@ABQAV43@@Z 1000e7b0 f i NpArticulationReducedCoordinate.obj
 0001:0000d830       ?isKindOf@NpArticulationReducedCoordinate@physx@@UBE_NPBD@Z 1000e830 f i NpArticulationReducedCoordinate.obj
 0001:0000d8b0       ?isSleeping@?$NpArticulationTemplate@VPxArticulationReducedCoordinate@physx@@@physx@@UBE_NXZ 1000e8b0 f i NpArticulationReducedCoordinate.obj
 0001:0000d8b0       ?isSleeping@?$NpArticulationTemplate@VPxArticulation@physx@@@physx@@UBE_NXZ 1000e8b0 f i NpArticulation.obj
 0001:0000d8c0       ?packJointData@NpArticulationReducedCoordinate@physx@@UBEXPBMPAM@Z 1000e8c0 f   NpArticulationReducedCoordinate.obj
 0001:0000d8d0       ?preExportDataReset@NpArticulationReducedCoordinate@physx@@QAEXXZ 1000e8d0 f   NpArticulationReducedCoordinate.obj
 0001:0000d900       ?putToSleep@?$NpArticulationTemplate@VPxArticulationReducedCoordinate@physx@@@physx@@UAEXXZ 1000e900 f i NpArticulationReducedCoordinate.obj
 0001:0000da80       ?recomputeLinkIDs@PxArticulationImpl@physx@@QAEXXZ 1000ea80 f   NpArticulationReducedCoordinate.obj
 0001:0000daf0       ?recreate@?$Array@PAVPxJoint@physx@@V?$ReflectionAllocator@PAVPxJoint@physx@@@shdfnd@2@@shdfnd@physx@@IAEXI@Z 1000eaf0 f i NpArticulationReducedCoordinate.obj
 0001:0000db50       ?release@?$NpArticulationTemplate@VPxArticulation@physx@@@physx@@UAEXXZ 1000eb50 f i NpArticulation.obj
 0001:0000db50       ?release@?$NpArticulationTemplate@VPxArticulationReducedCoordinate@physx@@@physx@@UAEXXZ 1000eb50 f i NpArticulationReducedCoordinate.obj
 0001:0000dc10       ?releaseArticulationJoint@NpArticulationReducedCoordinate@physx@@UAEXPAVPxArticulationJointBase@2@@Z 1000ec10 f   NpArticulationReducedCoordinate.obj
 0001:0000dc20       ?releaseCache@NpArticulationReducedCoordinate@physx@@UBEXAAVPxArticulationCache@2@@Z 1000ec20 f   NpArticulationReducedCoordinate.obj
 0001:0000dc30       ?removeLoopJoint@NpArticulationReducedCoordinate@physx@@UAEXPAVPxJoint@2@@Z 1000ec30 f   NpArticulationReducedCoordinate.obj
 0001:0000dc80       ?requiresObjects@?$NpArticulationTemplate@VPxArticulationReducedCoordinate@physx@@@physx@@UAEXAAVPxProcessPxBaseCallback@2@@Z 1000ec80 f i NpArticulationReducedCoordinate.obj
 0001:0000dc80       ?requiresObjects@?$NpArticulationTemplate@VPxArticulation@physx@@@physx@@UAEXAAVPxProcessPxBaseCallback@2@@Z 1000ec80 f i NpArticulation.obj
 0001:0000dcb0       ?setAngularVelocity@Body@Scb@physx@@QAEXABVPxVec3@3@@Z 1000ecb0 f i NpArticulationReducedCoordinate.obj
 0001:0000dd10       ?setArticulationFlag@NpArticulationReducedCoordinate@physx@@UAEXW4Enum@PxArticulationFlag@2@_N@Z 1000ed10 f   NpArticulationReducedCoordinate.obj
 0001:0000dd70       ?setArticulationFlags@NpArticulationReducedCoordinate@physx@@UAEXV?$PxFlags@W4Enum@PxArticulationFlag@physx@@E@2@@Z 1000ed70 f   NpArticulationReducedCoordinate.obj
 0001:0000ddc0       ?setLinearVelocity@Body@Scb@physx@@QAEXABVPxVec3@3@@Z 1000edc0 f i NpArticulationReducedCoordinate.obj
 0001:0000de20       ?setName@?$NpArticulationTemplate@VPxArticulationReducedCoordinate@physx@@@physx@@UAEXPBD@Z 1000ee20 f i NpArticulationReducedCoordinate.obj
 0001:0000de20       ?setName@?$NpArticulationTemplate@VPxArticulation@physx@@@physx@@UAEXPBD@Z 1000ee20 f i NpArticulation.obj
 0001:0000de30       ?setSleepThreshold@?$NpArticulationTemplate@VPxArticulation@physx@@@physx@@UAEXM@Z 1000ee30 f i NpArticulation.obj
 0001:0000de30       ?setSleepThreshold@?$NpArticulationTemplate@VPxArticulationReducedCoordinate@physx@@@physx@@UAEXM@Z 1000ee30 f i NpArticulationReducedCoordinate.obj
 0001:0000dea0       ?setSolverIterationCounts@?$NpArticulationTemplate@VPxArticulation@physx@@@physx@@UAEXII@Z 1000eea0 f i NpArticulation.obj
 0001:0000dea0       ?setSolverIterationCounts@?$NpArticulationTemplate@VPxArticulationReducedCoordinate@physx@@@physx@@UAEXII@Z 1000eea0 f i NpArticulationReducedCoordinate.obj
 0001:0000df10       ?setStabilizationThreshold@?$NpArticulationTemplate@VPxArticulationReducedCoordinate@physx@@@physx@@UAEXM@Z 1000ef10 f i NpArticulationReducedCoordinate.obj
 0001:0000df10       ?setStabilizationThreshold@?$NpArticulationTemplate@VPxArticulation@physx@@@physx@@UAEXM@Z 1000ef10 f i NpArticulation.obj
 0001:0000df80       ?setWakeCounter@?$NpArticulationTemplate@VPxArticulationReducedCoordinate@physx@@@physx@@UAEXM@Z 1000ef80 f i NpArticulationReducedCoordinate.obj
 0001:0000df80       ?setWakeCounter@?$NpArticulationTemplate@VPxArticulation@physx@@@physx@@UAEXM@Z 1000ef80 f i NpArticulation.obj
 0001:0000e0a0       ?teleportRootLink@NpArticulationReducedCoordinate@physx@@UAEXABVPxTransform@2@_N@Z 1000f0a0 f   NpArticulationReducedCoordinate.obj
 0001:0000e0b0       ?unpackJointData@NpArticulationReducedCoordinate@physx@@UBEXPBMPAM@Z 1000f0b0 f   NpArticulationReducedCoordinate.obj
 0001:0000e0c0       ?wakeUp@?$NpArticulationTemplate@VPxArticulationReducedCoordinate@physx@@@physx@@UAEXXZ 1000f0c0 f i NpArticulationReducedCoordinate.obj
 0001:0000e1f0       ?wakeUpInternal@Body@Scb@physx@@QAEXM@Z 1000f1f0 f i NpArticulationReducedCoordinate.obj
 0001:0000e270       ?wakeUpInternal@PxArticulationImpl@physx@@QAEX_N0@Z 1000f270 f i NpArticulationReducedCoordinate.obj
 0001:0000e3e0       ?zeroCache@NpArticulationReducedCoordinate@physx@@UAEXAAVPxArticulationCache@2@@Z 1000f3e0 f   NpArticulationReducedCoordinate.obj
 0001:0000e3f0       ??0NpArticulation@physx@@QAE@XZ 1000f3f0 f   NpArticulation.obj
 0001:0000e480       ??1?$NpArticulationTemplate@VPxArticulation@physx@@@physx@@UAE@XZ 1000f480 f i NpArticulation.obj
 0001:0000e4f0       ??_E?$NpArticulationTemplate@VPxArticulation@physx@@@physx@@UAEPAXI@Z 1000f4f0 f i NpArticulation.obj
 0001:0000e4f0       ??_G?$NpArticulationTemplate@VPxArticulation@physx@@@physx@@UAEPAXI@Z 1000f4f0 f i NpArticulation.obj
 0001:0000e530       ??_GNpArticulation@physx@@UAEPAXI@Z 1000f530 f i NpArticulation.obj
 0001:0000e530       ??_ENpArticulation@physx@@UAEPAXI@Z 1000f530 f i NpArticulation.obj
 0001:0000e580       ?NpArticulationGetRootFromScb@physx@@YAPAVBody@Scb@1@AAVArticulation@31@@Z 1000f580 f   NpArticulation.obj
 0001:0000e5b0       ?NpSetArticulationOnJoint@physx@@YAXAAVPxArticulationJointBase@1@AAVPxArticulationImpl@1@@Z 1000f5b0 f   NpArticulation.obj
 0001:0000e5d0       ?applyImpulse@NpArticulation@physx@@UAEXPAVPxArticulationLink@2@ABVPxArticulationDriveCache@2@ABVPxVec3@2@2@Z 1000f5d0 f   NpArticulation.obj
 0001:0000e6b0       ?computeImpulseResponse@NpArticulation@physx@@UBEXPAVPxArticulationLink@2@AAVPxVec3@2@1ABVPxArticulationDriveCache@2@ABV42@3@Z 1000f6b0 f   NpArticulation.obj
 0001:0000e6c0       ?createArticulationJoint@NpArticulation@physx@@EAEPAVPxArticulationJointBase@2@AAVPxArticulationLink@2@ABVPxTransform@2@01@Z 1000f6c0 f   NpArticulation.obj
 0001:0000e6d0       ?createDriveCache@NpArticulation@physx@@UBEPAVPxArticulationDriveCache@2@MI@Z 1000f6d0 f   NpArticulation.obj
 0001:0000e6f0       ?createObject@NpArticulation@physx@@SAPAV12@AAPAEAAVPxDeserializationContext@2@@Z 1000f6f0 f   NpArticulation.obj
 0001:0000e810       ?getConcreteTypeName@NpArticulation@physx@@UBEPBDXZ 1000f810 f i NpArticulation.obj
 0001:0000e820       ?getExternalDriveIterations@NpArticulation@physx@@UBEIXZ 1000f820 f   NpArticulation.obj
 0001:0000e840       ?getInternalDriveIterations@NpArticulation@physx@@UBEIXZ 1000f840 f   NpArticulation.obj
 0001:0000e850       ?getMaxProjectionIterations@NpArticulation@physx@@UBEIXZ 1000f850 f   NpArticulation.obj
 0001:0000e870       ?getSeparationTolerance@NpArticulation@physx@@UBEMXZ 1000f870 f   NpArticulation.obj
 0001:0000e8a0       ?isKindOf@NpArticulation@physx@@UBE_NPBD@Z 1000f8a0 f i NpArticulation.obj
 0001:0000e920       ?putToSleep@?$NpArticulationTemplate@VPxArticulation@physx@@@physx@@UAEXXZ 1000f920 f i NpArticulation.obj
 0001:0000e990       ?putToSleepInternal@Body@Scb@physx@@QAEXXZ 1000f990 f i NpArticulation.obj
 0001:0000eb40       ?releaseArticulationJoint@NpArticulation@physx@@EAEXPAVPxArticulationJointBase@2@@Z 1000fb40 f   NpArticulation.obj
 0001:0000eb50       ?releaseDriveCache@NpArticulation@physx@@UBEXAAVPxArticulationDriveCache@2@@Z 1000fb50 f   NpArticulation.obj
 0001:0000eb60       ?setExternalDriveIterations@NpArticulation@physx@@UAEXI@Z 1000fb60 f   NpArticulation.obj
 0001:0000ebc0       ?setInternalDriveIterations@NpArticulation@physx@@UAEXI@Z 1000fbc0 f   NpArticulation.obj
 0001:0000ec20       ?setMaxProjectionIterations@NpArticulation@physx@@UAEXI@Z 1000fc20 f   NpArticulation.obj
 0001:0000ec80       ?setSeparationTolerance@NpArticulation@physx@@UAEXM@Z 1000fc80 f   NpArticulation.obj
 0001:0000ecf0       ?updateDriveCache@NpArticulation@physx@@UBEXAAVPxArticulationDriveCache@2@MI@Z 1000fcf0 f   NpArticulation.obj
 0001:0000ed10       ?wakeUp@?$NpArticulationTemplate@VPxArticulation@physx@@@physx@@UAEXXZ 1000fd10 f i NpArticulation.obj
 0001:0000ed20       ?wakeUp@PxArticulationImpl@physx@@QAEXXZ 1000fd20 f i NpArticulation.obj
 0001:0000ee50       ??0NpArticulationJoint@physx@@QAE@AAVNpArticulationLink@1@ABVPxTransform@1@01@Z 1000fe50 f   NpArticulationJoint.obj
 0001:0000eee0       ??_ENpArticulationJoint@physx@@UAEPAXI@Z 1000fee0 f i NpArticulationJoint.obj
 0001:0000eee0       ??_GNpArticulationJoint@physx@@UAEPAXI@Z 1000fee0 f i NpArticulationJoint.obj
 0001:0000eee0       ??_E?$NpArticulationJointTemplate@VPxArticulationJoint@physx@@@physx@@UAEPAXI@Z 1000fee0 f i NpArticulationJoint.obj
 0001:0000eee0       ??_G?$NpArticulationJointTemplate@VPxArticulationJoint@physx@@@physx@@UAEPAXI@Z 1000fee0 f i NpArticulationJoint.obj
 0001:0000ef30       ?NpArticulationJointGetBodiesFromScb@physx@@YAXAAVArticulationJoint@Scb@1@AAPAVBody@31@1@Z 1000ff30 f   NpArticulationJoint.obj
 0001:0000ef60       ?createObject@NpArticulationJoint@physx@@SAPAV12@AAPAEAAVPxDeserializationContext@2@@Z 1000ff60 f   NpArticulationJoint.obj
 0001:0000efd0       ?getChildArticulationLink@?$NpArticulationJointTemplate@VPxArticulationJoint@physx@@@physx@@UBEAAVPxArticulationLink@2@XZ 1000ffd0 f i NpArticulationJoint.obj
 0001:0000efd0       ?getChildArticulationLink@?$NpArticulationJointTemplate@VPxArticulationJointReducedCoordinate@physx@@@physx@@UBEAAVPxArticulationLink@2@XZ 1000ffd0 f i NpArticulationJointReducedCoordinate.obj
 0001:0000efe0       ?getChildPose@?$NpArticulationJointTemplate@VPxArticulationJoint@physx@@@physx@@UBE?AVPxTransform@2@XZ 1000ffe0 f i NpArticulationJoint.obj
 0001:0000efe0       ?getChildPose@?$NpArticulationJointTemplate@VPxArticulationJointReducedCoordinate@physx@@@physx@@UBE?AVPxTransform@2@XZ 1000ffe0 f i NpArticulationJointReducedCoordinate.obj
 0001:0000f000       ?getChildPose@PxArticulationJointImpl@physx@@QBE?AVPxTransform@2@XZ 10010000 f i NpArticulationJoint.obj
 0001:0000f2d0       ?getConcreteTypeName@PxArticulationJoint@physx@@UBEPBDXZ 100102d0 f i NpArticulationJoint.obj
 0001:0000f2e0       ?getDamping@NpArticulationJoint@physx@@UBEMXZ 100102e0 f   NpArticulationJoint.obj
 0001:0000f310       ?getDriveType@NpArticulationJoint@physx@@UBE?AW4Enum@PxArticulationJointDriveType@2@XZ 10010310 f   NpArticulationJoint.obj
 0001:0000f330       ?getExternalCompliance@NpArticulationJoint@physx@@UBEMXZ 10010330 f   NpArticulationJoint.obj
 0001:0000f360       ?getFrictionCoefficient@NpArticulationJointReducedCoordinate@physx@@UBEMXZ 10010360 f   NpArticulationJointReducedCoordinate.obj
 0001:0000f360       ?getFrictionCoefficient@NpArticulationJoint@physx@@UBEMXZ 10010360 f   NpArticulationJoint.obj
 0001:0000f390       ?getImpl@?$NpArticulationJointTemplate@VPxArticulationJointReducedCoordinate@physx@@@physx@@UAEPAVPxArticulationJointImpl@2@XZ 10010390 f i NpArticulationJointReducedCoordinate.obj
 0001:0000f390       ?getImpl@?$NpArticulationJointTemplate@VPxArticulationJoint@physx@@@physx@@UAEPAVPxArticulationJointImpl@2@XZ 10010390 f i NpArticulationJoint.obj
 0001:0000f390       ?getImpl@?$NpArticulationJointTemplate@VPxArticulationJoint@physx@@@physx@@UBEPBVPxArticulationJointImpl@2@XZ 10010390 f i NpArticulationJoint.obj
 0001:0000f390       ?getImpl@?$NpArticulationJointTemplate@VPxArticulationJointReducedCoordinate@physx@@@physx@@UBEPBVPxArticulationJointImpl@2@XZ 10010390 f i NpArticulationJointReducedCoordinate.obj
 0001:0000f3a0       ?getInternalCompliance@NpArticulationJoint@physx@@UBEMXZ 100103a0 f   NpArticulationJoint.obj
 0001:0000f3d0       ?getJointType@NpArticulationJoint@physx@@UBE?AW4Enum@PxArticulationJointType@2@XZ 100103d0 f   NpArticulationJoint.obj
 0001:0000f3d0       ?getJointType@NpArticulationJointReducedCoordinate@physx@@UBE?AW4Enum@PxArticulationJointType@2@XZ 100103d0 f   NpArticulationJointReducedCoordinate.obj
 0001:0000f3f0       ?getMotion@NpArticulationJoint@physx@@UBE?AW4Enum@PxArticulationMotion@2@W43PxArticulationAxis@2@@Z 100103f0 f   NpArticulationJoint.obj
 0001:0000f3f0       ?getMotion@NpArticulationJointReducedCoordinate@physx@@UBE?AW4Enum@PxArticulationMotion@2@W43PxArticulationAxis@2@@Z 100103f0 f   NpArticulationJointReducedCoordinate.obj
 0001:0000f420       ?getParentArticulationLink@?$NpArticulationJointTemplate@VPxArticulationJoint@physx@@@physx@@UBEAAVPxArticulationLink@2@XZ 10010420 f i NpArticulationJoint.obj
 0001:0000f420       ?getParentArticulationLink@?$NpArticulationJointTemplate@VPxArticulationJointReducedCoordinate@physx@@@physx@@UBEAAVPxArticulationLink@2@XZ 10010420 f i NpArticulationJointReducedCoordinate.obj
 0001:0000f430       ?getParentPose@?$NpArticulationJointTemplate@VPxArticulationJointReducedCoordinate@physx@@@physx@@UBE?AVPxTransform@2@XZ 10010430 f i NpArticulationJointReducedCoordinate.obj
 0001:0000f430       ?getParentPose@?$NpArticulationJointTemplate@VPxArticulationJoint@physx@@@physx@@UBE?AVPxTransform@2@XZ 10010430 f i NpArticulationJoint.obj
 0001:0000f450       ?getParentPose@PxArticulationJointImpl@physx@@QBE?AVPxTransform@2@XZ 10010450 f i NpArticulationJoint.obj
 0001:0000f720       ?getStiffness@NpArticulationJoint@physx@@UBEMXZ 10010720 f   NpArticulationJoint.obj
 0001:0000f750       ?getSwingLimit@NpArticulationJoint@physx@@UBEXAAM0@Z 10010750 f   NpArticulationJoint.obj
 0001:0000f7a0       ?getSwingLimitContactDistance@NpArticulationJoint@physx@@UBEMXZ 100107a0 f   NpArticulationJoint.obj
 0001:0000f7d0       ?getSwingLimitEnabled@NpArticulationJoint@physx@@UBE_NXZ 100107d0 f   NpArticulationJoint.obj
 0001:0000f7f0       ?getTangentialDamping@NpArticulationJoint@physx@@UBEMXZ 100107f0 f   NpArticulationJoint.obj
 0001:0000f820       ?getTangentialStiffness@NpArticulationJoint@physx@@UBEMXZ 10010820 f   NpArticulationJoint.obj
 0001:0000f850       ?getTargetOrientation@NpArticulationJoint@physx@@UBE?AVPxQuat@2@XZ 10010850 f   NpArticulationJoint.obj
 0001:0000f890       ?getTargetVelocity@NpArticulationJoint@physx@@UBE?AVPxVec3@2@XZ 10010890 f   NpArticulationJoint.obj
 0001:0000f8c0       ?getTwistLimit@NpArticulationJoint@physx@@UBEXAAM0@Z 100108c0 f   NpArticulationJoint.obj
 0001:0000f910       ?getTwistLimitContactDistance@NpArticulationJoint@physx@@UBEMXZ 10010910 f   NpArticulationJoint.obj
 0001:0000f940       ?getTwistLimitEnabled@NpArticulationJoint@physx@@UBE_NXZ 10010940 f   NpArticulationJoint.obj
 0001:0000f960       ?isKindOf@PxArticulationJoint@physx@@MBE_NPBD@Z 10010960 f i NpArticulationJoint.obj
 0001:0000fa10       ___acrt_uninitialize_command_line 10010a10 f i libucrt:argv_data.obj
 0001:0000fa10       ?isSubordinate@NpArticulationJointReducedCoordinate@physx@@UBE_NXZ 10010a10 f i NpArticulationJointReducedCoordinate.obj
 0001:0000fa10       ?isSubordinate@?$PxSerializerDefaultAdapter@VNpArticulationLink@physx@@@physx@@UBE_NXZ 10010a10 f i NpSerializerAdapter.obj
 0001:0000fa10       ?isSubordinate@?$PxSerializerDefaultAdapter@VNpArticulationJoint@physx@@@physx@@UBE_NXZ 10010a10 f i NpSerializerAdapter.obj
 0001:0000fa10       ?willStoreStaticConstraint@FeatherstoneArticulation@Dy@physx@@UAE_NXZ 10010a10 f i NpImmediateMode.obj
 0001:0000fa10       ?isSubordinate@NpArticulationJoint@physx@@UBE_NXZ 10010a10 f i NpArticulationJoint.obj
 0001:0000fa10       ?isSubordinate@NpArticulationLink@physx@@UBE_NXZ 10010a10 f i NpArticulationLink.obj
 0001:0000fa10       ?isSubordinate@NpConstraint@physx@@UBE_NXZ 10010a10 f i NpConstraint.obj
 0001:0000fa10       ?isSubordinate@?$PxSerializerDefaultAdapter@VNpConstraint@physx@@@physx@@UBE_NXZ 10010a10 f i NpSerializerAdapter.obj
 0001:0000fa20       ?release@?$NpArticulationJointTemplate@VPxArticulationJoint@physx@@@physx@@UAEXXZ 10010a20 f i NpArticulationJoint.obj
 0001:0000fa20       ?release@?$NpArticulationJointTemplate@VPxArticulationJointReducedCoordinate@physx@@@physx@@UAEXXZ 10010a20 f i NpArticulationJointReducedCoordinate.obj
 0001:0000fa70       ?requiresObjects@NpArticulationJoint@physx@@UAEXAAVPxProcessPxBaseCallback@2@@Z 10010a70 f i NpArticulationJoint.obj
 0001:0000fa70       ?updateBodiesAndShapes@SimulationController@Sc@physx@@UAEXPAVPxBaseTask@3@@Z 10010a70 f i SimulationController_static_32:ScSimulationController.obj
 0001:0000fa70       ?registerShape@PxsNphaseImplementationContext@physx@@UAEXABUPxsShapeCore@2@@Z 10010a70 f i LowLevel_static_32:PxsNphaseImplementationContext.obj
 0001:0000fa70       ?getCoriolisAndCentrifugalForce@ArticulationV@Dy@physx@@UAEXAAVPxArticulationCache@3@@Z 10010a70 f i LowLevelDynamics_static_32:DyArticulation.obj
 0001:0000fa70       ?writebackInternalConstraints@Articulation@Dy@physx@@UAEX_N@Z 10010a70 f i LowLevelDynamics_static_32:DyArticulation.obj
 0001:0000fa70       ?updateBodyCore@DynamicsContext@Dy@physx@@UAEXPAVPxBaseTask@3@@Z 10010a70 f i LowLevelDynamics_static_32:DyDynamics.obj
 0001:0000fa70       ?getGeneralizedExternalForce@ArticulationV@Dy@physx@@UAEXAAVPxArticulationCache@3@@Z 10010a70 f i LowLevelDynamics_static_32:DyArticulation.obj
 0001:0000fa70       ?updateMaterial@PxsNphaseImplementationContext@physx@@UAEXABVPxsMaterialCore@2@@Z 10010a70 f i LowLevel_static_32:PxsNphaseImplementationContext.obj
 0001:0000fa70       ?fetchBroadPhaseResults@BroadPhaseMBP@Bp@physx@@UAEXPAVPxBaseTask@3@@Z 10010a70 f i LowLevelAABB_static_32:BpBroadPhaseMBP.obj
 0001:0000fa70       ?updateBodyCore@DynamicsTGSContext@Dy@physx@@UAEXPAVPxBaseTask@3@@Z 10010a70 f i LowLevelDynamics_static_32:DyTGSDynamics.obj
 0001:0000fa70       ?requiresObjects@NpArticulationJointReducedCoordinate@physx@@UAEXAAVPxProcessPxBaseCallback@2@@Z 10010a70 f i NpArticulationJointReducedCoordinate.obj
 0001:0000fa70       ?updateShapeMaterial@PxsNphaseImplementationContext@physx@@UAEXABUPxsShapeCore@2@@Z 10010a70 f i LowLevel_static_32:PxsNphaseImplementationContext.obj
 0001:0000fa70       ?getGeneralizedMassMatrix@ArticulationV@Dy@physx@@UAEXAAVPxArticulationCache@3@@Z 10010a70 f i LowLevelDynamics_static_32:DyArticulation.obj
 0001:0000fa70       ?reserve@SimulationController@Sc@physx@@UAEXI@Z 10010a70 f i SimulationController_static_32:ScSimulationController.obj
 0001:0000fa70       ?updateShapeContactOffset@PxsNphaseImplementationContext@physx@@UAEXABUPxsShapeCore@2@@Z 10010a70 f i LowLevel_static_32:PxsNphaseImplementationContext.obj
 0001:0000fa70       ?getGeneralizedMassMatrixCRB@ArticulationV@Dy@physx@@UAEXAAVPxArticulationCache@3@@Z 10010a70 f i LowLevelDynamics_static_32:DyArticulation.obj
 0001:0000fa70       ?requiresObjects@NpMaterial@physx@@UAEXAAVPxProcessPxBaseCallback@2@@Z 10010a70 f i NpMaterial.obj
 0001:0000fa70       ?setBounds@SimulationController@Sc@physx@@UAEXPAVBoundsArray@Bp@3@@Z 10010a70 f i SimulationController_static_32:ScSimulationController.obj
 0001:0000fa70       ?unregisterShape@PxsNphaseImplementationContext@physx@@UAEXABUPxsShapeCore@2@@Z 10010a70 f i LowLevel_static_32:PxsNphaseImplementationContext.obj
 0001:0000fa70       ?unregisterMaterial@PxsNphaseImplementationContext@physx@@UAEXABVPxsMaterialCore@2@@Z 10010a70 f i LowLevel_static_32:PxsNphaseImplementationContext.obj
 0001:0000fa70       ?update@SimulationController@Sc@physx@@UAEXI@Z 10010a70 f i SimulationController_static_32:ScSimulationController.obj
 0001:0000fa70       ?fetchBroadPhaseResults@BroadPhaseSap@Bp@physx@@UAEXPAVPxBaseTask@3@@Z 10010a70 f i LowLevelAABB_static_32:BpBroadPhaseSap.obj
 0001:0000fa70       ?getJointForce@ArticulationV@Dy@physx@@UAEXAAVPxArticulationCache@3@@Z 10010a70 f i LowLevelDynamics_static_32:DyArticulation.obj
 0001:0000fa70       ?concludeInternalConstraints@Articulation@Dy@physx@@UAEX_N@Z 10010a70 f i LowLevelDynamics_static_32:DyArticulation.obj
 0001:0000fa70       ?fetchBroadPhaseResults@BroadPhaseABP@Bp@physx@@UAEXPAVPxBaseTask@3@@Z 10010a70 f i LowLevelAABB_static_32:BpBroadPhaseABP.obj
 0001:0000fa70       ?merge@BucketPruner@Sq@physx@@UAEXPBX@Z 10010a70 f i SceneQuery_static_32:SqBucketPruner.obj
 0001:0000fa70       ?removeShape@SimulationController@Sc@physx@@UAEXI@Z 10010a70 f i SimulationController_static_32:ScSimulationController.obj
 0001:0000fa70       ?registerMaterial@PxsNphaseImplementationContext@physx@@UAEXABVPxsMaterialCore@2@@Z 10010a70 f i LowLevel_static_32:PxsNphaseImplementationContext.obj
 0001:0000fa70       ?requiresObjects@NpConstraint@physx@@UAEXAAVPxProcessPxBaseCallback@2@@Z 10010a70 f i NpConstraint.obj
 0001:0000fa80       ?resolveReferences@NpArticulationJoint@physx@@UAEXAAVPxDeserializationContext@2@@Z 10010a80 f   NpArticulationJoint.obj
 0001:0000fa80       ?resolveReferences@NpArticulationJointReducedCoordinate@physx@@UAEXAAVPxDeserializationContext@2@@Z 10010a80 f   NpArticulationJointReducedCoordinate.obj
 0001:0000fad0       ?resolveReferences@PxArticulationJointImpl@physx@@QAEXAAVPxDeserializationContext@2@AAVPxArticulationJointBase@2@@Z 10010ad0 f i NpArticulationJoint.obj
 0001:0000fb20       ?setChildPose@?$NpArticulationJointTemplate@VPxArticulationJointReducedCoordinate@physx@@@physx@@UAEXABVPxTransform@2@@Z 10010b20 f i NpArticulationJointReducedCoordinate.obj
 0001:0000fb20       ?setChildPose@?$NpArticulationJointTemplate@VPxArticulationJoint@physx@@@physx@@UAEXABVPxTransform@2@@Z 10010b20 f i NpArticulationJoint.obj
 0001:0000fb30       ?setChildPose@PxArticulationJointImpl@physx@@QAEXABVPxTransform@2@@Z 10010b30 f i NpArticulationJoint.obj
 0001:0000fec0       ?setDamping@NpArticulationJoint@physx@@UAEXM@Z 10010ec0 f   NpArticulationJoint.obj
 0001:0000ff40       ?setDriveType@NpArticulationJoint@physx@@UAEXW4Enum@PxArticulationJointDriveType@2@@Z 10010f40 f   NpArticulationJoint.obj
 0001:0000ffb0       ?setExternalCompliance@NpArticulationJoint@physx@@UAEXM@Z 10010fb0 f   NpArticulationJoint.obj
 0001:00010030       ?setFrictionCoefficient@NpArticulationJointReducedCoordinate@physx@@UAEXM@Z 10011030 f   NpArticulationJointReducedCoordinate.obj
 0001:00010030       ?setFrictionCoefficient@NpArticulationJoint@physx@@UAEXM@Z 10011030 f   NpArticulationJoint.obj
 0001:000100b0       ?setInternalCompliance@NpArticulationJoint@physx@@UAEXM@Z 100110b0 f   NpArticulationJoint.obj
 0001:00010130       ?setJointType@NpArticulationJointReducedCoordinate@physx@@UAEXW4Enum@PxArticulationJointType@2@@Z 10011130 f   NpArticulationJointReducedCoordinate.obj
 0001:00010130       ?setJointType@NpArticulationJoint@physx@@UAEXW4Enum@PxArticulationJointType@2@@Z 10011130 f   NpArticulationJoint.obj
 0001:000101a0       ?setMotion@NpArticulationJointReducedCoordinate@physx@@UAEXW4Enum@PxArticulationAxis@2@W43PxArticulationMotion@2@@Z 100111a0 f   NpArticulationJointReducedCoordinate.obj
 0001:000101a0       ?setMotion@NpArticulationJoint@physx@@UAEXW4Enum@PxArticulationAxis@2@W43PxArticulationMotion@2@@Z 100111a0 f   NpArticulationJoint.obj
 0001:00010270       ?setParentPose@?$NpArticulationJointTemplate@VPxArticulationJointReducedCoordinate@physx@@@physx@@UAEXABVPxTransform@2@@Z 10011270 f i NpArticulationJointReducedCoordinate.obj
 0001:00010270       ?setParentPose@?$NpArticulationJointTemplate@VPxArticulationJoint@physx@@@physx@@UAEXABVPxTransform@2@@Z 10011270 f i NpArticulationJoint.obj
 0001:00010280       ?setParentPose@PxArticulationJointImpl@physx@@QAEXABVPxTransform@2@@Z 10011280 f i NpArticulationJoint.obj
 0001:00010620       ?setStiffness@NpArticulationJoint@physx@@UAEXM@Z 10011620 f   NpArticulationJoint.obj
 0001:000106a0       ?setSwingLimit@NpArticulationJoint@physx@@UAEXMM@Z 100116a0 f   NpArticulationJoint.obj
 0001:00010750       ?setSwingLimitContactDistance@NpArticulationJoint@physx@@UAEXM@Z 10011750 f   NpArticulationJoint.obj
 0001:000107d0       ?setSwingLimitEnabled@NpArticulationJoint@physx@@UAEX_N@Z 100117d0 f   NpArticulationJoint.obj
 0001:00010840       ?setTangentialDamping@NpArticulationJoint@physx@@UAEXM@Z 10011840 f   NpArticulationJoint.obj
 0001:000108c0       ?setTangentialStiffness@NpArticulationJoint@physx@@UAEXM@Z 100118c0 f   NpArticulationJoint.obj
 0001:00010940       ?setTargetOrientation@NpArticulationJoint@physx@@UAEXABVPxQuat@2@@Z 10011940 f   NpArticulationJoint.obj
 0001:000109c0       ?setTargetVelocity@NpArticulationJoint@physx@@UAEXABVPxVec3@2@@Z 100119c0 f   NpArticulationJoint.obj
 0001:00010a40       ?setTwistLimit@NpArticulationJoint@physx@@UAEXMM@Z 10011a40 f   NpArticulationJoint.obj
 0001:00010af0       ?setTwistLimitContactDistance@NpArticulationJoint@physx@@UAEXM@Z 10011af0 f   NpArticulationJoint.obj
 0001:00010b70       ?setTwistLimitEnabled@NpArticulationJoint@physx@@UAEX_N@Z 10011b70 f   NpArticulationJoint.obj
 0001:00010be0       ??0NpArticulationJointReducedCoordinate@physx@@QAE@AAVNpArticulationLink@1@ABVPxTransform@1@01@Z 10011be0 f   NpArticulationJointReducedCoordinate.obj
 0001:00010c70       ??_ENpArticulationJointReducedCoordinate@physx@@UAEPAXI@Z 10011c70 f i NpArticulationJointReducedCoordinate.obj
 0001:00010c70       ??_GNpArticulationJointReducedCoordinate@physx@@UAEPAXI@Z 10011c70 f i NpArticulationJointReducedCoordinate.obj
 0001:00010c70       ??_G?$NpArticulationJointTemplate@VPxArticulationJointReducedCoordinate@physx@@@physx@@UAEPAXI@Z 10011c70 f i NpArticulationJointReducedCoordinate.obj
 0001:00010c70       ??_E?$NpArticulationJointTemplate@VPxArticulationJointReducedCoordinate@physx@@@physx@@UAEPAXI@Z 10011c70 f i NpArticulationJointReducedCoordinate.obj
 0001:00010cc0       ?createObject@NpArticulationJointReducedCoordinate@physx@@SAPAV12@AAPAEAAVPxDeserializationContext@2@@Z 10011cc0 f   NpArticulationJointReducedCoordinate.obj
 0001:00010d20       ?getConcreteTypeName@PxArticulationJointReducedCoordinate@physx@@UBEPBDXZ 10011d20 f i NpArticulationJointReducedCoordinate.obj
 0001:00010d30       ?getDrive@NpArticulationJointReducedCoordinate@physx@@UAEXW4Enum@PxArticulationAxis@2@AAM11AAW43PxArticulationDriveType@2@@Z 10011d30 f   NpArticulationJointReducedCoordinate.obj
 0001:00010dd0       ?getDriveTarget@NpArticulationJointReducedCoordinate@physx@@UAEMW4Enum@PxArticulationAxis@2@@Z 10011dd0 f   NpArticulationJointReducedCoordinate.obj
 0001:00010e10       ?getDriveVelocity@NpArticulationJointReducedCoordinate@physx@@UAEMW4Enum@PxArticulationAxis@2@@Z 10011e10 f   NpArticulationJointReducedCoordinate.obj
 0001:00010e50       ?getLimit@NpArticulationJointReducedCoordinate@physx@@UAEXW4Enum@PxArticulationAxis@2@AAM1@Z 10011e50 f   NpArticulationJointReducedCoordinate.obj
 0001:00010eb0       ?getMaxJointVelocity@NpArticulationJointReducedCoordinate@physx@@UBEMXZ 10011eb0 f   NpArticulationJointReducedCoordinate.obj
 0001:00010ee0       ?isKindOf@PxArticulationJointReducedCoordinate@physx@@MBE_NPBD@Z 10011ee0 f i NpArticulationJointReducedCoordinate.obj
 0001:00010f60       ?setDrive@ArticulationJoint@Scb@physx@@QAEXW4Enum@PxArticulationAxis@3@MMMW44PxArticulationDriveType@3@@Z 10011f60 f i NpArticulationJointReducedCoordinate.obj
 0001:000111c0       ?setDrive@NpArticulationJointReducedCoordinate@physx@@UAEXW4Enum@PxArticulationAxis@2@MMMW43PxArticulationDriveType@2@@Z 100121c0 f   NpArticulationJointReducedCoordinate.obj
 0001:00011200       ?setDriveTarget@NpArticulationJointReducedCoordinate@physx@@UAEXW4Enum@PxArticulationAxis@2@M@Z 10012200 f   NpArticulationJointReducedCoordinate.obj
 0001:00011350       ?setDriveVelocity@NpArticulationJointReducedCoordinate@physx@@UAEXW4Enum@PxArticulationAxis@2@M@Z 10012350 f   NpArticulationJointReducedCoordinate.obj
 0001:000114a0       ?setLimit@NpArticulationJointReducedCoordinate@physx@@UAEXW4Enum@PxArticulationAxis@2@MM@Z 100124a0 f   NpArticulationJointReducedCoordinate.obj
 0001:000115f0       ?setMaxJointVelocity@NpArticulationJointReducedCoordinate@physx@@UAEXM@Z 100125f0 f   NpArticulationJointReducedCoordinate.obj
 0001:000116c0       ??0NpArticulationLink@physx@@QAE@ABVPxTransform@1@AAVPxArticulationBase@1@PAV01@@Z 100126c0 f   NpArticulationLink.obj
 0001:00011880       ??0PxMat44@physx@@QAE@W4PxIDENTITY@1@@Z 10012880 f i NpArticulationLink.obj
 0001:00011900       ??_G?$NpActorTemplate@VPxArticulationLink@physx@@@physx@@UAEPAXI@Z 10012900 f i NpArticulationLink.obj
 0001:00011900       ??_E?$NpActorTemplate@VPxArticulationLink@physx@@@physx@@UAEPAXI@Z 10012900 f i NpArticulationLink.obj
 0001:00011950       ??_E?$NpRigidActorTemplate@VPxArticulationLink@physx@@@physx@@UAEPAXI@Z 10012950 f i NpArticulationLink.obj
 0001:00011950       ??_G?$NpRigidActorTemplate@VPxArticulationLink@physx@@@physx@@UAEPAXI@Z 10012950 f i NpArticulationLink.obj
 0001:000119b0       ??_E?$NpRigidBodyTemplate@VPxArticulationLink@physx@@@physx@@UAEPAXI@Z 100129b0 f i NpArticulationLink.obj
 0001:000119b0       ??_G?$NpRigidBodyTemplate@VPxArticulationLink@physx@@@physx@@UAEPAXI@Z 100129b0 f i NpArticulationLink.obj
 0001:00011a20       ??_GConstraintImmediateVisualizer@Cm@physx@@UAEPAXI@Z 10012a20 f i NpArticulationLink.obj
 0001:00011a20       ??_EConstraintImmediateVisualizer@Cm@physx@@UAEPAXI@Z 10012a20 f i NpArticulationLink.obj
 0001:00011a50       ??_ENpArticulationLink@physx@@UAEPAXI@Z 10012a50 f i NpArticulationLink.obj
 0001:00011a50       ??_GNpArticulationLink@physx@@UAEPAXI@Z 10012a50 f i NpArticulationLink.obj
 0001:00011b00       ??_EPxRigidDynamic@physx@@MAEPAXI@Z 10012b00 f i NpRigidDynamic.obj
 0001:00011b00       ??_GPxMaterial@physx@@MAEPAXI@Z 10012b00 f i NpMaterial.obj
 0001:00011b00       ??_GPxArticulationLink@physx@@MAEPAXI@Z 10012b00 f i NpArticulationLink.obj
 0001:00011b00       ??_EPxRigidStatic@physx@@MAEPAXI@Z 10012b00 f i NpRigidStatic.obj
 0001:00011b00       ??_EPxArticulationLink@physx@@MAEPAXI@Z 10012b00 f i NpArticulationLink.obj
 0001:00011b00       ??_GPxRigidStatic@physx@@MAEPAXI@Z 10012b00 f i NpRigidStatic.obj
 0001:00011b00       ??_EPxShape@physx@@MAEPAXI@Z 10012b00 f i NpShape.obj
 0001:00011b00       ??_GPxRigidDynamic@physx@@MAEPAXI@Z 10012b00 f i NpRigidDynamic.obj
 0001:00011b00       ??_EPxMaterial@physx@@MAEPAXI@Z 10012b00 f i NpMaterial.obj
 0001:00011b00       ??_GPxShape@physx@@MAEPAXI@Z 10012b00 f i NpShape.obj
 0001:00011b30       ??_EPxConstraintVisualizer@physx@@MAEPAXI@Z 10012b30 f i NpArticulationLink.obj
 0001:00011b30       ??_GPxConstraintVisualizer@physx@@MAEPAXI@Z 10012b30 f i NpArticulationLink.obj
 0001:00011b60       ?addForce@NpArticulationLink@physx@@UAEXABVPxVec3@2@W4Enum@PxForceMode@2@_N@Z 10012b60 f   NpArticulationLink.obj
 0001:00011be0       ?addSpatialAcceleration@Body@Scb@physx@@QAEXPBVPxVec3@3@0@Z 10012be0 f i NpArticulationLink.obj
 0001:00011cf0       ?addSpatialForce@?$NpRigidBodyTemplate@VPxRigidDynamic@physx@@@physx@@IAEXPBVPxVec3@2@0W4Enum@PxForceMode@2@@Z 10012cf0 f i NpRigidDynamic.obj
 0001:00011cf0       ?addSpatialForce@?$NpRigidBodyTemplate@VPxArticulationLink@physx@@@physx@@IAEXPBVPxVec3@2@0W4Enum@PxForceMode@2@@Z 10012cf0 f i NpArticulationLink.obj
 0001:00011f80       ?addSpatialVelocity@Body@Scb@physx@@QAEXPBVPxVec3@3@0@Z 10012f80 f i NpArticulationLink.obj
 0001:00012090       ?addTorque@NpArticulationLink@physx@@UAEXABVPxVec3@2@W4Enum@PxForceMode@2@_N@Z 10013090 f   NpArticulationLink.obj
 0001:00012110       ?allocate@?$Array@UPxDebugLine@physx@@V?$ReflectionAllocator@UPxDebugLine@physx@@@shdfnd@2@@shdfnd@physx@@IAEPAUPxDebugLine@3@I@Z 10013110 f i NpArticulationLink.obj
 0001:00012180       ?attachShape@?$NpRigidBodyTemplate@VPxArticulationLink@physx@@@physx@@UAE_NAAVPxShape@2@@Z 10013180 f i NpArticulationLink.obj
 0001:00012180       ?attachShape@?$NpRigidActorTemplate@VPxRigidStatic@physx@@@physx@@UAE_NAAVPxShape@2@@Z 10013180 f i NpRigidStatic.obj
 0001:00012180       ?attachShape@?$NpRigidBodyTemplate@VPxRigidDynamic@physx@@@physx@@UAE_NAAVPxShape@2@@Z 10013180 f i NpRigidDynamic.obj
 0001:00012180       ?attachShape@?$NpRigidActorTemplate@VPxArticulationLink@physx@@@physx@@UAE_NAAVPxShape@2@@Z 10013180 f i NpArticulationLink.obj
 0001:00012180       ?attachShape@?$NpRigidActorTemplate@VPxRigidDynamic@physx@@@physx@@UAE_NAAVPxShape@2@@Z 10013180 f i NpRigidDynamic.obj
 0001:000121f0       ?clearForce@NpArticulationLink@physx@@UAEXW4Enum@PxForceMode@2@@Z 100131f0 f   NpArticulationLink.obj
 0001:00012210       ?clearSpatialForce@?$NpRigidBodyTemplate@VPxArticulationLink@physx@@@physx@@IAEXW4Enum@PxForceMode@2@_N1@Z 10013210 f i NpArticulationLink.obj
 0001:00012210       ?clearSpatialForce@?$NpRigidBodyTemplate@VPxRigidDynamic@physx@@@physx@@IAEXW4Enum@PxForceMode@2@_N1@Z 10013210 f i NpRigidDynamic.obj
 0001:000123c0       ?clearTorque@NpArticulationLink@physx@@UAEXW4Enum@PxForceMode@2@@Z 100133c0 f   NpArticulationLink.obj
 0001:000123e0       ?copy@?$Array@UPxDebugLine@physx@@V?$ReflectionAllocator@UPxDebugLine@physx@@@shdfnd@2@@shdfnd@physx@@KAXPAUPxDebugLine@3@0PBU43@@Z 100133e0 f i NpArticulationLink.obj
 0001:000123e0       ?copy@?$Array@VSpatialVector@Cm@physx@@V?$ReflectionAllocator@VSpatialVector@Cm@physx@@@shdfnd@3@@shdfnd@physx@@KAXPAVSpatialVector@Cm@3@0PBV453@@Z 100133e0 f i LowLevelDynamics_static_32:DyTGSDynamics.obj
 0001:00012450       ?createObject@NpArticulationLink@physx@@SAPAV12@AAPAEAAVPxDeserializationContext@2@@Z 10013450 f   NpArticulationLink.obj
 0001:00012530       ?detachShape@?$NpRigidActorTemplate@VPxRigidStatic@physx@@@physx@@UAEXAAVPxShape@2@_N@Z 10013530 f i NpRigidStatic.obj
 0001:00012530       ?detachShape@?$NpRigidActorTemplate@VPxArticulationLink@physx@@@physx@@UAEXAAVPxShape@2@_N@Z 10013530 f i NpArticulationLink.obj
 0001:00012530       ?detachShape@?$NpRigidActorTemplate@VPxRigidDynamic@physx@@@physx@@UAEXAAVPxShape@2@_N@Z 10013530 f i NpRigidDynamic.obj
 0001:000125a0       ?exportExtraData@?$NpActorTemplate@VPxRigidStatic@physx@@@physx@@UAEXAAVPxSerializationContext@2@@Z 100135a0 f i NpRigidStatic.obj
 0001:000125a0       ?exportExtraData@?$NpActorTemplate@VPxRigidDynamic@physx@@@physx@@UAEXAAVPxSerializationContext@2@@Z 100135a0 f i NpRigidDynamic.obj
 0001:000125a0       ?exportExtraData@?$NpActorTemplate@VPxArticulationLink@physx@@@physx@@UAEXAAVPxSerializationContext@2@@Z 100135a0 f i NpArticulationLink.obj
 0001:000125b0       ?exportExtraData@?$NpRigidActorTemplate@VPxRigidStatic@physx@@@physx@@UAEXAAVPxSerializationContext@2@@Z 100135b0 f i NpRigidStatic.obj
 0001:000125b0       ?exportExtraData@?$NpRigidActorTemplate@VPxRigidDynamic@physx@@@physx@@UAEXAAVPxSerializationContext@2@@Z 100135b0 f i NpRigidDynamic.obj
 0001:000125b0       ?exportExtraData@?$NpRigidActorTemplate@VPxArticulationLink@physx@@@physx@@UAEXAAVPxSerializationContext@2@@Z 100135b0 f i NpArticulationLink.obj
 0001:000125d0       ?exportExtraData@NpArticulationLink@physx@@UAEXAAVPxSerializationContext@2@@Z 100135d0 f   NpArticulationLink.obj
 0001:00012630       ?getActorFlags@?$NpActorTemplate@VPxArticulationLink@physx@@@physx@@UBE?AV?$PxFlags@W4Enum@PxActorFlag@physx@@E@2@XZ 10013630 f i NpArticulationLink.obj
 0001:00012630       ?getActorFlags@?$NpActorTemplate@VPxRigidDynamic@physx@@@physx@@UBE?AV?$PxFlags@W4Enum@PxActorFlag@physx@@E@2@XZ 10013630 f i NpRigidDynamic.obj
 0001:00012630       ?getActorFlags@?$NpActorTemplate@VPxRigidStatic@physx@@@physx@@UBE?AV?$PxFlags@W4Enum@PxActorFlag@physx@@E@2@XZ 10013630 f i NpRigidStatic.obj
 0001:00012670       ?getAggregate@?$NpActorTemplate@VPxRigidDynamic@physx@@@physx@@UBEPAVPxAggregate@2@XZ 10013670 f i NpRigidDynamic.obj
 0001:00012670       ?getAggregate@?$NpActorTemplate@VPxArticulationLink@physx@@@physx@@UBEPAVPxAggregate@2@XZ 10013670 f i NpArticulationLink.obj
 0001:00012670       ?getAggregate@?$NpActorTemplate@VPxRigidStatic@physx@@@physx@@UBEPAVPxAggregate@2@XZ 10013670 f i NpRigidStatic.obj
 0001:00012680       ?getAngularDamping@NpArticulationLink@physx@@UBEMXZ 10013680 f   NpArticulationLink.obj
 0001:00012680       ?getAngularDamping@NpRigidDynamic@physx@@UBEMXZ 10013680 f   NpRigidDynamic.obj
 0001:000126b0       ?getAngularVelocity@?$NpRigidBodyTemplate@VPxRigidDynamic@physx@@@physx@@UBE?AVPxVec3@2@XZ 100136b0 f i NpRigidDynamic.obj
 0001:000126b0       ?getAngularVelocity@?$NpRigidBodyTemplate@VPxArticulationLink@physx@@@physx@@UBE?AVPxVec3@2@XZ 100136b0 f i NpArticulationLink.obj
 0001:000126e0       ?getArticulation@NpArticulationLink@physx@@UBEAAVPxArticulationBase@2@XZ 100136e0 f   NpArticulationLink.obj
 0001:000126f0       ?getCMassLocalPose@?$NpRigidBodyTemplate@VPxRigidDynamic@physx@@@physx@@UBE?AVPxTransform@2@XZ 100136f0 f i NpRigidDynamic.obj
 0001:000126f0       ?getCMassLocalPose@?$NpRigidBodyTemplate@VPxArticulationLink@physx@@@physx@@UBE?AVPxTransform@2@XZ 100136f0 f i NpArticulationLink.obj
 0001:00012740       ?getChildren@NpArticulationLink@physx@@UBEIPAPAVPxArticulationLink@2@II@Z 10013740 f   NpArticulationLink.obj
 0001:00012790       ?getConcreteTypeName@PxArticulationLink@physx@@UBEPBDXZ 10013790 f i NpArticulationLink.obj
 0001:000127a0       ?getConstraints@?$NpRigidActorTemplate@VPxArticulationLink@physx@@@physx@@UBEIPAPAVPxConstraint@2@II@Z 100137a0 f i NpArticulationLink.obj
 0001:000127a0       ?getConstraints@?$NpRigidActorTemplate@VPxRigidStatic@physx@@@physx@@UBEIPAPAVPxConstraint@2@II@Z 100137a0 f i NpRigidStatic.obj
 0001:000127a0       ?getConstraints@?$NpRigidActorTemplate@VPxRigidDynamic@physx@@@physx@@UBEIPAPAVPxConstraint@2@II@Z 100137a0 f i NpRigidDynamic.obj
 0001:00012820       ?getDominanceGroup@?$NpActorTemplate@VPxRigidStatic@physx@@@physx@@UBEEXZ 10013820 f i NpRigidStatic.obj
 0001:00012820       ?getDominanceGroup@?$NpActorTemplate@VPxArticulationLink@physx@@@physx@@UBEEXZ 10013820 f i NpArticulationLink.obj
 0001:00012820       ?getDominanceGroup@?$NpActorTemplate@VPxRigidDynamic@physx@@@physx@@UBEEXZ 10013820 f i NpRigidDynamic.obj
 0001:00012850       ?getGlobalInertiaTensorInverse@Body@Scb@physx@@QBE?AVPxMat33@3@XZ 10013850 f i NpArticulationLink.obj
 0001:00012ab0       ?getGlobalPose@NpArticulationLink@physx@@UBE?AVPxTransform@2@XZ 10013ab0 f   NpArticulationLink.obj
 0001:00012e60       ?getInboundJoint@NpArticulationLink@physx@@UBEPAVPxArticulationJointBase@2@XZ 10013e60 f   NpArticulationLink.obj
 0001:00012e70       ?getInboundJointDof@NpArticulationLink@physx@@UBEIXZ 10013e70 f   NpArticulationLink.obj
 0001:00012e80       ?getInternalIslandNodeIndex@?$NpRigidBodyTemplate@VPxRigidDynamic@physx@@@physx@@UBEIXZ 10013e80 f i NpRigidDynamic.obj
 0001:00012e80       ?getInternalIslandNodeIndex@?$NpRigidBodyTemplate@VPxArticulationLink@physx@@@physx@@UBEIXZ 10013e80 f i NpArticulationLink.obj
 0001:00012e90       ?getInvMass@?$NpRigidBodyTemplate@VPxArticulationLink@physx@@@physx@@UBEMXZ 10013e90 f i NpArticulationLink.obj
 0001:00012e90       ?getInvMass@?$NpRigidBodyTemplate@VPxRigidDynamic@physx@@@physx@@UBEMXZ 10013e90 f i NpRigidDynamic.obj
 0001:00012ec0       ?getLinearDamping@NpArticulationLink@physx@@UBEMXZ 10013ec0 f   NpArticulationLink.obj
 0001:00012ec0       ?getLinearDamping@NpRigidDynamic@physx@@UBEMXZ 10013ec0 f   NpRigidDynamic.obj
 0001:00012ef0       ?getLinearVelocity@?$NpRigidBodyTemplate@VPxRigidDynamic@physx@@@physx@@UBE?AVPxVec3@2@XZ 10013ef0 f i NpRigidDynamic.obj
 0001:00012ef0       ?getLinearVelocity@?$NpRigidBodyTemplate@VPxArticulationLink@physx@@@physx@@UBE?AVPxVec3@2@XZ 10013ef0 f i NpArticulationLink.obj
 0001:00012f20       ?getLinkIndex@NpArticulationLink@physx@@UBEIXZ 10013f20 f   NpArticulationLink.obj
 0001:00012f30       ?getMass@?$NpRigidBodyTemplate@VPxArticulationLink@physx@@@physx@@UBEMXZ 10013f30 f i NpArticulationLink.obj
 0001:00012f30       ?getMass@?$NpRigidBodyTemplate@VPxRigidDynamic@physx@@@physx@@UBEMXZ 10013f30 f i NpRigidDynamic.obj
 0001:00012f80       ?getMassSpaceInertiaTensor@?$NpRigidBodyTemplate@VPxRigidDynamic@physx@@@physx@@UBE?AVPxVec3@2@XZ 10013f80 f i NpRigidDynamic.obj
 0001:00012f80       ?getMassSpaceInertiaTensor@?$NpRigidBodyTemplate@VPxArticulationLink@physx@@@physx@@UBE?AVPxVec3@2@XZ 10013f80 f i NpArticulationLink.obj
 0001:00013010       ?getMassSpaceInvInertiaTensor@?$NpRigidBodyTemplate@VPxRigidDynamic@physx@@@physx@@UBE?AVPxVec3@2@XZ 10014010 f i NpRigidDynamic.obj
 0001:00013010       ?getMassSpaceInvInertiaTensor@?$NpRigidBodyTemplate@VPxArticulationLink@physx@@@physx@@UBE?AVPxVec3@2@XZ 10014010 f i NpArticulationLink.obj
 0001:00013050       ?getMaxAngularVelocity@NpRigidDynamic@physx@@UBEMXZ 10014050 f   NpRigidDynamic.obj
 0001:00013050       ?getMaxAngularVelocity@NpArticulationLink@physx@@UBEMXZ 10014050 f   NpArticulationLink.obj
 0001:00013090       ?getMaxContactImpulse@?$NpRigidBodyTemplate@VPxArticulationLink@physx@@@physx@@UBEMXZ 10014090 f i NpArticulationLink.obj
 0001:00013090       ?getMaxContactImpulse@?$NpRigidBodyTemplate@VPxRigidDynamic@physx@@@physx@@UBEMXZ 10014090 f i NpRigidDynamic.obj
 0001:000130d0       ?getMaxDepenetrationVelocity@?$NpRigidBodyTemplate@VPxArticulationLink@physx@@@physx@@UBEMXZ 100140d0 f i NpArticulationLink.obj
 0001:000130d0       ?getMaxDepenetrationVelocity@?$NpRigidBodyTemplate@VPxRigidDynamic@physx@@@physx@@UBEMXZ 100140d0 f i NpRigidDynamic.obj
 0001:00013120       ?getMaxLinearVelocity@NpArticulationLink@physx@@UBEMXZ 10014120 f   NpArticulationLink.obj
 0001:00013120       ?getMaxLinearVelocity@NpRigidDynamic@physx@@UBEMXZ 10014120 f   NpRigidDynamic.obj
 0001:00013160       ?getMinCCDAdvanceCoefficient@?$NpRigidBodyTemplate@VPxArticulationLink@physx@@@physx@@UBEMXZ 10014160 f i NpArticulationLink.obj
 0001:00013160       ?getMinCCDAdvanceCoefficient@?$NpRigidBodyTemplate@VPxRigidDynamic@physx@@@physx@@UBEMXZ 10014160 f i NpRigidDynamic.obj
 0001:000131a0       ?getNbCreatedPairs@BroadPhaseABP@Bp@physx@@UBEIXZ 100141a0 f i LowLevelAABB_static_32:BpBroadPhaseABP.obj
 0001:000131a0       ?raw_length@pairNode@@UBEHXZ 100141a0 f i libvcruntime:undname.obj
 0001:000131a0       ?getName@?$NpActorTemplate@VPxArticulationLink@physx@@@physx@@UBEPBDXZ 100141a0 f i NpArticulationLink.obj
 0001:000131a0       ?getName@?$NpActorTemplate@VPxRigidStatic@physx@@@physx@@UBEPBDXZ 100141a0 f i NpRigidStatic.obj
 0001:000131a0       ?getName@?$NpActorTemplate@VPxRigidDynamic@physx@@@physx@@UBEPBDXZ 100141a0 f i NpRigidDynamic.obj
 0001:000131b0       ?getNbChildren@NpArticulationLink@physx@@UBEIXZ 100141b0 f   NpArticulationLink.obj
 0001:000131c0       ?getNbConstraints@?$NpRigidActorTemplate@VPxArticulationLink@physx@@@physx@@UBEIXZ 100141c0 f i NpArticulationLink.obj
 0001:000131c0       ?getNbConstraints@?$NpRigidActorTemplate@VPxRigidDynamic@physx@@@physx@@UBEIXZ 100141c0 f i NpRigidDynamic.obj
 0001:000131c0       ?getNbConstraints@?$NpRigidActorTemplate@VPxRigidStatic@physx@@@physx@@UBEIXZ 100141c0 f i NpRigidStatic.obj
 0001:000131d0       ?getNbShapes@?$NpRigidActorTemplate@VPxArticulationLink@physx@@@physx@@UBEIXZ 100141d0 f i NpArticulationLink.obj
 0001:000131d0       ?getNbShapes@?$NpRigidActorTemplate@VPxRigidStatic@physx@@@physx@@UBEIXZ 100141d0 f i NpRigidStatic.obj
 0001:000131d0       ?getNbShapes@?$NpRigidActorTemplate@VPxRigidDynamic@physx@@@physx@@UBEIXZ 100141d0 f i NpRigidDynamic.obj
 0001:000131e0       ?getOwnerClient@?$NpActorTemplate@VPxArticulationLink@physx@@@physx@@UBEEXZ 100141e0 f i NpArticulationLink.obj
 0001:000131e0       ?getOwnerClient@?$NpActorTemplate@VPxRigidStatic@physx@@@physx@@UBEEXZ 100141e0 f i NpRigidStatic.obj
 0001:000131e0       ?getOwnerClient@?$NpActorTemplate@VPxRigidDynamic@physx@@@physx@@UBEEXZ 100141e0 f i NpRigidDynamic.obj
 0001:00013210       ?getRigidBodyFlags@?$NpRigidBodyTemplate@VPxRigidDynamic@physx@@@physx@@UBE?AV?$PxFlags@W4Enum@PxRigidBodyFlag@physx@@G@2@XZ 10014210 f i NpRigidDynamic.obj
 0001:00013210       ?getRigidBodyFlags@?$NpRigidBodyTemplate@VPxArticulationLink@physx@@@physx@@UBE?AV?$PxFlags@W4Enum@PxRigidBodyFlag@physx@@G@2@XZ 10014210 f i NpArticulationLink.obj
 0001:00013250       ?getScene@?$NpActorTemplate@VPxRigidDynamic@physx@@@physx@@UBEPAVPxScene@2@XZ 10014250 f i NpRigidDynamic.obj
 0001:00013250       ?getScene@?$NpActorTemplate@VPxRigidStatic@physx@@@physx@@UBEPAVPxScene@2@XZ 10014250 f i NpRigidStatic.obj
 0001:00013250       ?getScene@?$NpActorTemplate@VPxArticulationLink@physx@@@physx@@UBEPAVPxScene@2@XZ 10014250 f i NpArticulationLink.obj
 0001:00013260       ?getShapes@?$NpRigidActorTemplate@VPxRigidStatic@physx@@@physx@@UBEIPAPAVPxShape@2@II@Z 10014260 f i NpRigidStatic.obj
 0001:00013260       ?getShapes@?$NpRigidActorTemplate@VPxRigidDynamic@physx@@@physx@@UBEIPAPAVPxShape@2@II@Z 10014260 f i NpRigidDynamic.obj
 0001:00013260       ?getShapes@?$NpRigidActorTemplate@VPxArticulationLink@physx@@@physx@@UBEIPAPAVPxShape@2@II@Z 10014260 f i NpArticulationLink.obj
 0001:00013270       ?getType@NpArticulationLink@physx@@UBE?AW4Enum@PxActorType@2@XZ 10014270 f i NpArticulationLink.obj
 0001:00013270       ?getType@BroadPhaseABP@Bp@physx@@UBE?AW4Enum@PxBroadPhaseType@3@XZ 10014270 f i LowLevelAABB_static_32:BpBroadPhaseABP.obj
 0001:00013280       ?getWorldBounds@?$NpRigidActorTemplate@VPxRigidStatic@physx@@@physx@@UBE?AVPxBounds3@2@M@Z 10014280 f i NpRigidStatic.obj
 0001:00013280       ?getWorldBounds@?$NpRigidActorTemplate@VPxRigidDynamic@physx@@@physx@@UBE?AVPxBounds3@2@M@Z 10014280 f i NpRigidDynamic.obj
 0001:00013280       ?getWorldBounds@?$NpRigidActorTemplate@VPxArticulationLink@physx@@@physx@@UBE?AVPxBounds3@2@M@Z 10014280 f i NpArticulationLink.obj
 0001:000133b0       ?importExtraData@?$NpActorTemplate@VPxRigidDynamic@physx@@@physx@@UAEXAAVPxDeserializationContext@2@@Z 100143b0 f i NpRigidDynamic.obj
 0001:000133b0       ?importExtraData@?$NpActorTemplate@VPxRigidStatic@physx@@@physx@@UAEXAAVPxDeserializationContext@2@@Z 100143b0 f i NpRigidStatic.obj
 0001:000133b0       ?importExtraData@?$NpActorTemplate@VPxArticulationLink@physx@@@physx@@UAEXAAVPxDeserializationContext@2@@Z 100143b0 f i NpArticulationLink.obj
 0001:000133c0       ?importExtraData@?$NpRigidActorTemplate@VPxRigidStatic@physx@@@physx@@UAEXAAVPxDeserializationContext@2@@Z 100143c0 f i NpRigidStatic.obj
 0001:000133c0       ?importExtraData@?$NpRigidActorTemplate@VPxArticulationLink@physx@@@physx@@UAEXAAVPxDeserializationContext@2@@Z 100143c0 f i NpArticulationLink.obj
 0001:000133c0       ?importExtraData@?$NpRigidActorTemplate@VPxRigidDynamic@physx@@@physx@@UAEXAAVPxDeserializationContext@2@@Z 100143c0 f i NpRigidDynamic.obj
 0001:000133e0       ?importExtraData@NpArticulationLink@physx@@UAEXAAVPxDeserializationContext@2@@Z 100143e0 f   NpArticulationLink.obj
 0001:00013440       ?isKindOf@PxArticulationLink@physx@@MBE_NPBD@Z 10014440 f i NpArticulationLink.obj
 0001:000134a0       ?isKindOf@PxRigidActor@physx@@MBE_NPBD@Z 100144a0 f i NpArticulationLink.obj
 0001:00013550       ?isKindOf@PxRigidBody@physx@@MBE_NPBD@Z 10014550 f i NpArticulationLink.obj
 0001:00013630       ?recreate@?$Array@UPxDebugLine@physx@@V?$ReflectionAllocator@UPxDebugLine@physx@@@shdfnd@2@@shdfnd@physx@@IAEXI@Z 10014630 f i NpArticulationLink.obj
 0001:00013690       ?release@?$NpActorTemplate@VPxRigidDynamic@physx@@@physx@@UAEXXZ 10014690 f i NpRigidDynamic.obj
 0001:00013690       ?release@?$NpActorTemplate@VPxArticulationLink@physx@@@physx@@UAEXXZ 10014690 f i NpArticulationLink.obj
 0001:00013690       ?release@?$NpActorTemplate@VPxRigidStatic@physx@@@physx@@UAEXXZ 10014690 f i NpRigidStatic.obj
 0001:000136a0       ?release@?$NpRigidActorTemplate@VPxArticulationLink@physx@@@physx@@UAEXXZ 100146a0 f i NpArticulationLink.obj
 0001:000136a0       ?release@?$NpRigidActorTemplate@VPxRigidDynamic@physx@@@physx@@UAEXXZ 100146a0 f i NpRigidDynamic.obj
 0001:000136a0       ?release@?$NpRigidActorTemplate@VPxRigidStatic@physx@@@physx@@UAEXXZ 100146a0 f i NpRigidStatic.obj
 0001:00013700       ?release@NpArticulationLink@physx@@UAEXXZ 10014700 f   NpArticulationLink.obj
 0001:00013770       ?releaseInternal@NpArticulationLink@physx@@QAEXXZ 10014770 f   NpArticulationLink.obj
 0001:000138a0       ?requiresObjects@?$NpRigidActorTemplate@VPxRigidDynamic@physx@@@physx@@UAEXAAVPxProcessPxBaseCallback@2@@Z 100148a0 f i NpRigidDynamic.obj
 0001:000138a0       ?requiresObjects@?$NpRigidActorTemplate@VPxRigidStatic@physx@@@physx@@UAEXAAVPxProcessPxBaseCallback@2@@Z 100148a0 f i NpRigidStatic.obj
 0001:000138a0       ?requiresObjects@?$NpRigidActorTemplate@VPxArticulationLink@physx@@@physx@@UAEXAAVPxProcessPxBaseCallback@2@@Z 100148a0 f i NpArticulationLink.obj
 0001:000138a0       ?requiresObjects@NpRigidStatic@physx@@UAEXAAVPxProcessPxBaseCallback@2@@Z 100148a0 f i NpRigidStatic.obj
 0001:000138a0       ?requiresObjects@NpRigidDynamic@physx@@UAEXAAVPxProcessPxBaseCallback@2@@Z 100148a0 f i NpRigidDynamic.obj
 0001:000138e0       ?requiresObjects@NpArticulationLink@physx@@UAEXAAVPxProcessPxBaseCallback@2@@Z 100148e0 f   NpArticulationLink.obj
 0001:00013940       ?resolveReferences@?$NpActorTemplate@VPxArticulationLink@physx@@@physx@@UAEXAAVPxDeserializationContext@2@@Z 10014940 f i NpArticulationLink.obj
 0001:00013940       ?resolveReferences@?$NpActorTemplate@VPxRigidDynamic@physx@@@physx@@UAEXAAVPxDeserializationContext@2@@Z 10014940 f i NpRigidDynamic.obj
 0001:00013940       ?resolveReferences@?$NpActorTemplate@VPxRigidStatic@physx@@@physx@@UAEXAAVPxDeserializationContext@2@@Z 10014940 f i NpRigidStatic.obj
 0001:00013950       ?resolveReferences@?$NpRigidActorTemplate@VPxArticulationLink@physx@@@physx@@UAEXAAVPxDeserializationContext@2@@Z 10014950 f i NpArticulationLink.obj
 0001:00013950       ?resolveReferences@?$NpRigidActorTemplate@VPxRigidStatic@physx@@@physx@@UAEXAAVPxDeserializationContext@2@@Z 10014950 f i NpRigidStatic.obj
 0001:00013950       ?resolveReferences@?$NpRigidActorTemplate@VPxRigidDynamic@physx@@@physx@@UAEXAAVPxDeserializationContext@2@@Z 10014950 f i NpRigidDynamic.obj
 0001:000139b0       ?resolveReferences@NpArticulationLink@physx@@UAEXAAVPxDeserializationContext@2@@Z 100149b0 f   NpArticulationLink.obj
 0001:00013aa0       ?setActorFlag@?$NpActorTemplate@VPxArticulationLink@physx@@@physx@@UAEXW4Enum@PxActorFlag@2@_N@Z 10014aa0 f i NpArticulationLink.obj
 0001:00013aa0       ?setActorFlag@?$NpActorTemplate@VPxRigidStatic@physx@@@physx@@UAEXW4Enum@PxActorFlag@2@_N@Z 10014aa0 f i NpRigidStatic.obj
 0001:00013aa0       ?setActorFlag@?$NpActorTemplate@VPxRigidDynamic@physx@@@physx@@UAEXW4Enum@PxActorFlag@2@_N@Z 10014aa0 f i NpRigidDynamic.obj
 0001:00013b40       ?setActorFlag@?$NpRigidActorTemplate@VPxArticulationLink@physx@@@physx@@UAEXW4Enum@PxActorFlag@2@_N@Z 10014b40 f i NpArticulationLink.obj
 0001:00013cb0       ?setActorFlags@?$NpActorTemplate@VPxRigidStatic@physx@@@physx@@UAEXV?$PxFlags@W4Enum@PxActorFlag@physx@@E@2@@Z 10014cb0 f i NpRigidStatic.obj
 0001:00013cb0       ?setActorFlags@?$NpActorTemplate@VPxArticulationLink@physx@@@physx@@UAEXV?$PxFlags@W4Enum@PxActorFlag@physx@@E@2@@Z 10014cb0 f i NpArticulationLink.obj
 0001:00013cb0       ?setActorFlags@?$NpActorTemplate@VPxRigidDynamic@physx@@@physx@@UAEXV?$PxFlags@W4Enum@PxActorFlag@physx@@E@2@@Z 10014cb0 f i NpRigidDynamic.obj
 0001:00013ce0       ?setActorFlags@?$NpRigidActorTemplate@VPxArticulationLink@physx@@@physx@@UAEXV?$PxFlags@W4Enum@PxActorFlag@physx@@E@2@@Z 10014ce0 f i NpArticulationLink.obj
 0001:00013de0       ?setActorFlags@Actor@Scb@physx@@QAEXV?$PxFlags@W4Enum@PxActorFlag@physx@@E@3@@Z 10014de0 f i NpArticulationLink.obj
 0001:00013e60       ?setAngularDamping@NpRigidDynamic@physx@@UAEXM@Z 10014e60 f   NpRigidDynamic.obj
 0001:00013e60       ?setAngularDamping@NpArticulationLink@physx@@UAEXM@Z 10014e60 f   NpArticulationLink.obj
 0001:00013ed0       ?setAngularVelocity@NpArticulationLink@physx@@UAEXABVPxVec3@2@_N@Z 10014ed0 f   NpArticulationLink.obj
 0001:00013f50       ?setBody2World@Body@Scb@physx@@QAEXABVPxTransform@3@_N@Z 10014f50 f i NpArticulationLink.obj
 0001:00014000       ?setCMassLocalPose@NpArticulationLink@physx@@UAEXABVPxTransform@2@@Z 10015000 f   NpArticulationLink.obj
 0001:00014860       ?setCMassLocalPoseInternal@?$NpRigidBodyTemplate@VPxRigidDynamic@physx@@@physx@@IAEXABVPxTransform@2@@Z 10015860 f i NpRigidDynamic.obj
 0001:00014860       ?setCMassLocalPoseInternal@?$NpRigidBodyTemplate@VPxArticulationLink@physx@@@physx@@IAEXABVPxTransform@2@@Z 10015860 f i NpArticulationLink.obj
 0001:00014bd0       ?setChildPose@ArticulationJoint@Scb@physx@@QAEXABVPxTransform@3@@Z 10015bd0 f i NpArticulationLink.obj
 0001:00014c60       ?setDominanceGroup@?$NpActorTemplate@VPxRigidStatic@physx@@@physx@@UAEXE@Z 10015c60 f i NpRigidStatic.obj
 0001:00014c60       ?setDominanceGroup@?$NpActorTemplate@VPxArticulationLink@physx@@@physx@@UAEXE@Z 10015c60 f i NpArticulationLink.obj
 0001:00014c60       ?setDominanceGroup@?$NpActorTemplate@VPxRigidDynamic@physx@@@physx@@UAEXE@Z 10015c60 f i NpRigidDynamic.obj
 0001:00014cd0       ?setFlags@Body@Scb@physx@@QAEXV?$PxFlags@W4Enum@PxRigidBodyFlag@physx@@G@3@@Z 10015cd0 f i NpArticulationLink.obj
 0001:00014e20       ?setForceAndTorque@NpArticulationLink@physx@@UAEXABVPxVec3@2@0W4Enum@PxForceMode@2@@Z 10015e20 f   NpArticulationLink.obj
 0001:00014ea0       ?setGlobalPose@NpArticulationLink@physx@@UAEXABVPxTransform@2@@Z 10015ea0 f   NpArticulationLink.obj
 0001:00014eb0       ?setGlobalPose@NpArticulationLink@physx@@UAEXABVPxTransform@2@_N@Z 10015eb0 f   NpArticulationLink.obj
 0001:00014ec0       ?setGlobalPoseInternal@NpArticulationLink@physx@@QAEXABVPxTransform@2@_N@Z 10015ec0 f   NpArticulationLink.obj
 0001:000152b0       ?setKinematicLink@NpArticulationLink@physx@@QAEX_N@Z 100162b0 f   NpArticulationLink.obj
 0001:000152c0       ?setLinearDamping@NpArticulationLink@physx@@UAEXM@Z 100162c0 f   NpArticulationLink.obj
 0001:000152c0       ?setLinearDamping@NpRigidDynamic@physx@@UAEXM@Z 100162c0 f   NpRigidDynamic.obj
 0001:00015330       ?setLinearVelocity@NpArticulationLink@physx@@UAEXABVPxVec3@2@_N@Z 10016330 f   NpArticulationLink.obj
 0001:000153b0       ?setMass@?$NpRigidBodyTemplate@VPxRigidDynamic@physx@@@physx@@UAEXM@Z 100163b0 f i NpRigidDynamic.obj
 0001:000153b0       ?setMass@?$NpRigidBodyTemplate@VPxArticulationLink@physx@@@physx@@UAEXM@Z 100163b0 f i NpArticulationLink.obj
 0001:00015440       ?setMassSpaceInertiaTensor@?$NpRigidBodyTemplate@VPxRigidDynamic@physx@@@physx@@UAEXABVPxVec3@2@@Z 10016440 f i NpRigidDynamic.obj
 0001:00015440       ?setMassSpaceInertiaTensor@?$NpRigidBodyTemplate@VPxArticulationLink@physx@@@physx@@UAEXABVPxVec3@2@@Z 10016440 f i NpArticulationLink.obj
 0001:00015530       ?setMaxAngularVelocity@NpRigidDynamic@physx@@UAEXM@Z 10016530 f   NpRigidDynamic.obj
 0001:00015530       ?setMaxAngularVelocity@NpArticulationLink@physx@@UAEXM@Z 10016530 f   NpArticulationLink.obj
 0001:000155b0       ?setMaxContactImpulse@?$NpRigidBodyTemplate@VPxArticulationLink@physx@@@physx@@UAEXM@Z 100165b0 f i NpArticulationLink.obj
 0001:000155b0       ?setMaxContactImpulse@?$NpRigidBodyTemplate@VPxRigidDynamic@physx@@@physx@@UAEXM@Z 100165b0 f i NpRigidDynamic.obj
 0001:00015630       ?setMaxDepenetrationVelocity@?$NpRigidBodyTemplate@VPxArticulationLink@physx@@@physx@@UAEXM@Z 10016630 f i NpArticulationLink.obj
 0001:00015630       ?setMaxDepenetrationVelocity@?$NpRigidBodyTemplate@VPxRigidDynamic@physx@@@physx@@UAEXM@Z 10016630 f i NpRigidDynamic.obj
 0001:000156b0       ?setMaxLinearVelocity@NpArticulationLink@physx@@UAEXM@Z 100166b0 f   NpArticulationLink.obj
 0001:000156b0       ?setMaxLinearVelocity@NpRigidDynamic@physx@@UAEXM@Z 100166b0 f   NpRigidDynamic.obj
 0001:00015730       ?setMinCCDAdvanceCoefficient@?$NpRigidBodyTemplate@VPxArticulationLink@physx@@@physx@@UAEXM@Z 10016730 f i NpArticulationLink.obj
 0001:00015730       ?setMinCCDAdvanceCoefficient@?$NpRigidBodyTemplate@VPxRigidDynamic@physx@@@physx@@UAEXM@Z 10016730 f i NpRigidDynamic.obj
 0001:000157a0       ?setName@?$NpActorTemplate@VPxRigidStatic@physx@@@physx@@UAEXPBD@Z 100167a0 f i NpRigidStatic.obj
 0001:000157a0       ?setName@?$NpActorTemplate@VPxRigidDynamic@physx@@@physx@@UAEXPBD@Z 100167a0 f i NpRigidDynamic.obj
 0001:000157a0       ?setName@?$NpActorTemplate@VPxArticulationLink@physx@@@physx@@UAEXPBD@Z 100167a0 f i NpArticulationLink.obj
 0001:000157b0       ?setOwnerClient@?$NpActorTemplate@VPxArticulationLink@physx@@@physx@@UAEXE@Z 100167b0 f i NpArticulationLink.obj
 0001:000157b0       ?setOwnerClient@?$NpActorTemplate@VPxRigidStatic@physx@@@physx@@UAEXE@Z 100167b0 f i NpRigidStatic.obj
 0001:000157b0       ?setOwnerClient@?$NpActorTemplate@VPxRigidDynamic@physx@@@physx@@UAEXE@Z 100167b0 f i NpRigidDynamic.obj
 0001:00015860       ?setRigidBodyFlag@?$NpRigidBodyTemplate@VPxRigidDynamic@physx@@@physx@@UAEXW4Enum@PxRigidBodyFlag@2@_N@Z 10016860 f i NpRigidDynamic.obj
 0001:00015860       ?setRigidBodyFlag@?$NpRigidBodyTemplate@VPxArticulationLink@physx@@@physx@@UAEXW4Enum@PxRigidBodyFlag@2@_N@Z 10016860 f i NpArticulationLink.obj
 0001:00015ba0       ?setRigidBodyFlags@?$NpRigidBodyTemplate@VPxArticulationLink@physx@@@physx@@UAEXV?$PxFlags@W4Enum@PxRigidBodyFlag@physx@@G@2@@Z 10016ba0 f i NpArticulationLink.obj
 0001:00015ba0       ?setRigidBodyFlags@?$NpRigidBodyTemplate@VPxRigidDynamic@physx@@@physx@@UAEXV?$PxFlags@W4Enum@PxRigidBodyFlag@physx@@G@2@@Z 10016ba0 f i NpRigidDynamic.obj
 0001:00015eb0       ?setSpatialAcceleration@Body@Scb@physx@@QAEXPBVPxVec3@3@0@Z 10016eb0 f i NpArticulationLink.obj
 0001:00015f90       ?setSpatialForce@?$NpRigidBodyTemplate@VPxArticulationLink@physx@@@physx@@IAEXPBVPxVec3@2@0W4Enum@PxForceMode@2@@Z 10016f90 f i NpArticulationLink.obj
 0001:00015f90       ?setSpatialForce@?$NpRigidBodyTemplate@VPxRigidDynamic@physx@@@physx@@IAEXPBVPxVec3@2@0W4Enum@PxForceMode@2@@Z 10016f90 f i NpRigidDynamic.obj
 0001:00016220       ?visualize@?$NpRigidBodyTemplate@VPxRigidDynamic@physx@@@physx@@QAEXAAVRenderOutput@Cm@2@PAVNpScene@2@@Z 10017220 f i NpRigidDynamic.obj
 0001:00016220       ?visualize@?$NpRigidBodyTemplate@VPxArticulationLink@physx@@@physx@@QAEXAAVRenderOutput@Cm@2@PAVNpScene@2@@Z 10017220 f i NpArticulationLink.obj
 0001:000165b0       ?visualize@NpArticulationLink@physx@@QAEXAAVRenderOutput@Cm@2@PAVNpScene@2@@Z 100175b0 f   NpArticulationLink.obj
 0001:00016880       ?visualizeAngularLimit@ConstraintImmediateVisualizer@Cm@physx@@UAEXABVPxTransform@3@MM_N@Z 10017880 f i NpArticulationLink.obj
 0001:000168c0       ?visualizeDoubleCone@ConstraintImmediateVisualizer@Cm@physx@@UAEXABVPxTransform@3@M_N@Z 100178c0 f i NpArticulationLink.obj
 0001:000168f0       ?visualizeJoint@NpArticulationLink@physx@@QAEXAAVPxConstraintVisualizer@2@@Z 100178f0 f   NpArticulationLink.obj
 0001:00018200       ?visualizeJointFrames@ConstraintImmediateVisualizer@Cm@physx@@UAEXABVPxTransform@3@0@Z 10019200 f i NpArticulationLink.obj
 0001:00018230       ?visualizeLimitCone@ConstraintImmediateVisualizer@Cm@physx@@UAEXABVPxTransform@3@MM_N@Z 10019230 f i NpArticulationLink.obj
 0001:00018270       ?visualizeLine@ConstraintImmediateVisualizer@Cm@physx@@UAEXABVPxVec3@3@0I@Z 10019270 f i NpArticulationLink.obj
 0001:000182d0       ?visualizeLinearLimit@ConstraintImmediateVisualizer@Cm@physx@@UAEXABVPxTransform@3@0M_N@Z 100192d0 f i NpArticulationLink.obj
 0001:00018310       ??0NpBatchQuery@physx@@QAE@AAVNpScene@1@ABVPxBatchQueryDesc@1@@Z 10019310 f   NpBatchQuery.obj
 0001:000183f0       ??_G?$PxHitBuffer@UPxRaycastHit@physx@@@physx@@UAEPAXI@Z 100193f0 f i NpBatchQuery.obj
 0001:000183f0       ??_E?$PxHitBuffer@UPxRaycastHit@physx@@@physx@@UAEPAXI@Z 100193f0 f i NpBatchQuery.obj
 0001:000183f0       ??_G?$PxHitCallback@UPxRaycastHit@physx@@@physx@@UAEPAXI@Z 100193f0 f i NpBatchQuery.obj
 0001:000183f0       ??_E?$PxHitCallback@UPxRaycastHit@physx@@@physx@@UAEPAXI@Z 100193f0 f i NpBatchQuery.obj
 0001:00018420       ??_G?$PxHitBuffer@UPxSweepHit@physx@@@physx@@UAEPAXI@Z 10019420 f i NpBatchQuery.obj
 0001:00018420       ??_E?$PxHitBuffer@UPxSweepHit@physx@@@physx@@UAEPAXI@Z 10019420 f i NpBatchQuery.obj
 0001:00018420       ??_G?$PxHitCallback@UPxSweepHit@physx@@@physx@@UAEPAXI@Z 10019420 f i NpBatchQuery.obj
 0001:00018420       ??_E?$PxHitCallback@UPxSweepHit@physx@@@physx@@UAEPAXI@Z 10019420 f i NpBatchQuery.obj
 0001:00018450       ??_G?$PxHitCallback@UPxOverlapHit@physx@@@physx@@UAEPAXI@Z 10019450 f i NpBatchQuery.obj
 0001:00018450       ??_E?$PxHitCallback@UPxOverlapHit@physx@@@physx@@UAEPAXI@Z 10019450 f i NpBatchQuery.obj
 0001:00018480       ??_G?$PxOverflowBuffer@UPxOverlapHit@physx@@@@UAEPAXI@Z 10019480 f i NpBatchQuery.obj
 0001:00018480       ??_E?$PxOverflowBuffer@UPxOverlapHit@physx@@@@UAEPAXI@Z 10019480 f i NpBatchQuery.obj
 0001:000184b0       ??_E?$PxOverflowBuffer@UPxRaycastHit@physx@@@@UAEPAXI@Z 100194b0 f i NpBatchQuery.obj
 0001:000184b0       ??_G?$PxOverflowBuffer@UPxRaycastHit@physx@@@@UAEPAXI@Z 100194b0 f i NpBatchQuery.obj
 0001:000184e0       ??_G?$PxOverflowBuffer@UPxSweepHit@physx@@@@UAEPAXI@Z 100194e0 f i NpBatchQuery.obj
 0001:000184e0       ??_E?$PxOverflowBuffer@UPxSweepHit@physx@@@@UAEPAXI@Z 100194e0 f i NpBatchQuery.obj
 0001:00018510       ??_ENpBatchQuery@physx@@UAEPAXI@Z 10019510 f i NpBatchQuery.obj
 0001:00018510       ??_GNpBatchQuery@physx@@UAEPAXI@Z 10019510 f i NpBatchQuery.obj
 0001:00018590       ??_GPxBatchQuery@physx@@MAEPAXI@Z 10019590 f i NpBatchQuery.obj
 0001:00018590       ??_EPxBatchQuery@physx@@MAEPAXI@Z 10019590 f i NpBatchQuery.obj
 0001:000185c0       ?execute@NpBatchQuery@physx@@UAEXXZ 100195c0 f   NpBatchQuery.obj
 0001:00018da0       ?finalizeExecute@NpBatchQuery@physx@@AAEXXZ 10019da0 f   NpBatchQuery.obj
 0001:00018de0       ?finalizeQuery@?$PxOverflowBuffer@UPxOverlapHit@physx@@@@UAEXXZ 10019de0 f i NpBatchQuery.obj
 0001:00018e00       ?finalizeQuery@?$PxOverflowBuffer@UPxRaycastHit@physx@@@@UAEXXZ 10019e00 f i NpBatchQuery.obj
 0001:00018e30       ?finalizeQuery@?$PxOverflowBuffer@UPxSweepHit@physx@@@@UAEXXZ 10019e30 f i NpBatchQuery.obj
 0001:00018e50       ?getDesc@NpBatchQuery@physx@@UBEABVPxBatchQueryDesc@2@XZ 10019e50 f i NpBatchQuery.obj
 0001:00018e60       ?getNbTexts@RenderBuffer@Cm@physx@@UBEIXZ 10019e60 f   NpScene.obj
 0001:00018e60       ?getFilterShaderData@NpBatchQuery@physx@@UBEPBXXZ 10019e60 f   NpBatchQuery.obj
 0001:00018e70       ?getFilterShaderDataSize@NpBatchQuery@physx@@UBEIXZ 10019e70 f   NpBatchQuery.obj
 0001:00018e80       ?getPostFilterShader@NpBatchQuery@physx@@UBEP6A?AW4Enum@PxQueryHitType@2@UPxFilterData@2@0PBXIABUPxQueryHit@2@@ZXZ 10019e80 f   NpBatchQuery.obj
 0001:00018e80       ?getDefaultContactReportStreamBufferSize@NPhaseCore@Sc@physx@@QBEIXZ 10019e80 f   SimulationController_static_32:ScNPhaseCore.obj
 0001:00018e90       ?getPreFilterShader@NpBatchQuery@physx@@UBEP6A?AW4Enum@PxQueryHitType@2@UPxFilterData@2@0PBXIAAV?$PxFlags@W4Enum@PxHitFlag@physx@@G@2@@ZXZ 10019e90 f   NpBatchQuery.obj
 0001:00018ea0       ?getUserMemory@NpBatchQuery@physx@@UAEABUPxBatchQueryMemory@2@XZ 10019ea0 f   NpBatchQuery.obj
 0001:00018eb0       ?overlap@NpBatchQuery@physx@@UAEXABVPxGeometry@2@ABVPxTransform@2@GABUPxQueryFilterData@2@PAXPBUPxQueryCache@2@@Z 10019eb0 f   NpBatchQuery.obj
 0001:00018fc0       ?applyCache@ArticulationV@Dy@physx@@UAE_NAAVPxArticulationCache@3@V?$PxFlags@W4Enum@PxArticulationCache@physx@@E@3@@Z 10019fc0 f i LowLevelDynamics_static_32:DyArticulation.obj
 0001:00018fc0       ?update@PersistentPairs@Bp@physx@@UAE_NAAVAABBManager@23@PAUBpCacheData@23@@Z 10019fc0 f i LowLevelAABB_static_32:BpAABBManager.obj
 0001:00018fc0       ?processTouches@?$PxHitBuffer@UPxSweepHit@physx@@@physx@@MAE_NPBUPxSweepHit@2@I@Z 10019fc0 f i NpBatchQuery.obj
 0001:00018fc0       ?processTouches@?$PxHitBuffer@UPxRaycastHit@physx@@@physx@@MAE_NPBUPxRaycastHit@2@I@Z 10019fc0 f i NpBatchQuery.obj
 0001:00018fd0       ?processTouches@?$PxOverflowBuffer@UPxOverlapHit@physx@@@@UAE_NPBUPxOverlapHit@physx@@I@Z 10019fd0 f i NpBatchQuery.obj
 0001:00019000       ?processTouches@?$PxOverflowBuffer@UPxRaycastHit@physx@@@@UAE_NPBUPxRaycastHit@physx@@I@Z 1001a000 f i NpBatchQuery.obj
 0001:00019040       ?processTouches@?$PxOverflowBuffer@UPxSweepHit@physx@@@@UAE_NPBUPxSweepHit@physx@@I@Z 1001a040 f i NpBatchQuery.obj
 0001:00019080       ?raycast@NpBatchQuery@physx@@UAEXABVPxVec3@2@0MGV?$PxFlags@W4Enum@PxHitFlag@physx@@G@2@ABUPxQueryFilterData@2@PAXPBUPxQueryCache@2@@Z 1001a080 f   NpBatchQuery.obj
 0001:000191a0       ?recreate@?$Array@DV?$ReflectionAllocator@D@shdfnd@physx@@@shdfnd@physx@@IAEXI@Z 1001a1a0 f i NpBatchQuery.obj
 0001:00019240       ?release@NpBatchQuery@physx@@UAEXXZ 1001a240 f   NpBatchQuery.obj
 0001:00019290       ?resizeUninitialized@?$Array@DV?$ReflectionAllocator@D@shdfnd@physx@@@shdfnd@physx@@QAEXI@Z 1001a290 f i NpBatchQuery.obj
 0001:000192c0       ?setUserMemory@NpBatchQuery@physx@@UAEXABUPxBatchQueryMemory@2@@Z 1001a2c0 f   NpBatchQuery.obj
 0001:00019320       ?sweep@NpBatchQuery@physx@@UAEXABVPxGeometry@2@ABVPxTransform@2@ABVPxVec3@2@MGV?$PxFlags@W4Enum@PxHitFlag@physx@@G@2@ABUPxQueryFilterData@2@PAXPBUPxQueryCache@2@M@Z 1001a320 f   NpBatchQuery.obj
 0001:00019500       ?writeBatchHeader@NpBatchQuery@physx@@AAEXABUBatchStreamHeader@2@@Z 1001a500 f   NpBatchQuery.obj
 0001:000198a0       ??0NpConstraint@physx@@QAE@PAVPxRigidActor@1@0AAVPxConstraintConnector@1@ABUPxConstraintShaderTable@1@I@Z 1001a8a0 f   NpConstraint.obj
 0001:00019a70       ??_GNpConstraint@physx@@UAEPAXI@Z 1001aa70 f i NpConstraint.obj
 0001:00019a70       ??_ENpConstraint@physx@@UAEPAXI@Z 1001aa70 f i NpConstraint.obj
 0001:00019ae0       ?NpConstraintGetRigidObjectsFromScb@physx@@YAXABVConstraint@Scb@1@AAPAVRigidObject@31@1@Z 1001aae0 f   NpConstraint.obj
 0001:00019b30       ?actorDeleted@NpConstraint@physx@@QAEXPAVPxRigidActor@2@@Z 1001ab30 f   NpConstraint.obj
 0001:00019b50       ?comShift@NpConstraint@physx@@QAEXPAVPxRigidActor@2@@Z 1001ab50 f   NpConstraint.obj
 0001:00019b80       ?createObject@NpConstraint@physx@@SAPAV12@AAPAEAAVPxDeserializationContext@2@@Z 1001ab80 f   NpConstraint.obj
 0001:00019c00       ?getActors@NpConstraint@physx@@UBEXAAPAVPxRigidActor@2@0@Z 1001ac00 f   NpConstraint.obj
 0001:00019c20       ?getBreakForce@NpConstraint@physx@@UBEXAAM0@Z 1001ac20 f   NpConstraint.obj
 0001:00019c90       ?getConcreteTypeName@PxConstraint@physx@@UBEPBDXZ 1001ac90 f i NpConstraint.obj
 0001:00019ca0       ?getExternalReference@NpConstraint@physx@@UAEPAXAAI@Z 1001aca0 f   NpConstraint.obj
 0001:00019cb0       ?getFlags@NpConstraint@physx@@UBE?AV?$PxFlags@W4Enum@PxConstraintFlag@physx@@G@2@XZ 1001acb0 f   NpConstraint.obj
 0001:00019cf0       ?getForce@NpConstraint@physx@@UBEXAAVPxVec3@2@0@Z 1001acf0 f   NpConstraint.obj
 0001:00019d30       ?getMinResponseThreshold@NpConstraint@physx@@UBEMXZ 1001ad30 f   NpConstraint.obj
 0001:00019d80       ?getScene@NpConstraint@physx@@UBEPAVPxScene@2@XZ 1001ad80 f   NpConstraint.obj
 0001:00019d80       ?getNpScene@NpConstraint@physx@@QBEPAVNpScene@2@XZ 1001ad80 f   NpConstraint.obj
 0001:00019db0       ?getSceneFromActors@NpConstraint@physx@@QBEPAVNpScene@2@XZ 1001adb0 f   NpConstraint.obj
 0001:00019e20       ?isKindOf@PxConstraint@physx@@MBE_NPBD@Z 1001ae20 f i NpConstraint.obj
 0001:00019ea0       ?isValid@NpConstraint@physx@@UBE_NXZ 1001aea0 f   NpConstraint.obj
 0001:00019ef0       ?markDirty@NpConstraint@physx@@UAEXXZ 1001aef0 f   NpConstraint.obj
 0001:00019f00       ?release@NpConstraint@physx@@UAEXXZ 1001af00 f   NpConstraint.obj
 0001:00019fc0       ?setActors@NpConstraint@physx@@UAEXPAVPxRigidActor@2@0@Z 1001afc0 f   NpConstraint.obj
 0001:0001a200       ?setBodies@Constraint@Scb@physx@@QAEXPAVRigidObject@23@0@Z 1001b200 f i NpConstraint.obj
 0001:0001a2d0       ?setBreakForce@NpConstraint@physx@@UAEXMM@Z 1001b2d0 f   NpConstraint.obj
 0001:0001a3a0       ?setConstraintFunctions@NpConstraint@physx@@UAEXAAVPxConstraintConnector@2@ABUPxConstraintShaderTable@2@@Z 1001b3a0 f   NpConstraint.obj
 0001:0001a530       ?setFlag@NpConstraint@physx@@UAEXW4Enum@PxConstraintFlag@2@_N@Z 1001b530 f   NpConstraint.obj
 0001:0001a5f0       ?setFlags@Constraint@Scb@physx@@QAEXV?$PxFlags@W4Enum@PxConstraintFlag@physx@@G@3@@Z 1001b5f0 f i NpConstraint.obj
 0001:0001a660       ?setFlags@NpConstraint@physx@@UAEXV?$PxFlags@W4Enum@PxConstraintFlag@physx@@G@2@@Z 1001b660 f   NpConstraint.obj
 0001:0001a6a0       ?setMinResponseThreshold@NpConstraint@physx@@UAEXM@Z 1001b6a0 f   NpConstraint.obj
 0001:0001a750       ?updateConstants@NpConstraint@physx@@QAEXXZ 1001b750 f   NpConstraint.obj
 0001:0001a780       ??$sort@PAXU?$Less@PAX@shdfnd@physx@@V?$ReflectionAllocator@V?$PtrBlock@$03@NpPtrTableStorageManager@physx@@@23@@shdfnd@physx@@YAXPAPAXIABU?$Less@PAX@01@ABV?$ReflectionAllocator@V?$PtrBlock@$03@NpPtrTableStorageManager@physx@@@01@I@Z 1001b780 f i NpFactory.obj
 0001:0001ab20       ??$sort@PAXU?$Less@PAX@shdfnd@physx@@V?$ReflectionAllocator@V?$PtrBlock@$0BA@@NpPtrTableStorageManager@physx@@@23@@shdfnd@physx@@YAXPAPAXIABU?$Less@PAX@01@ABV?$ReflectionAllocator@V?$PtrBlock@$0BA@@NpPtrTableStorageManager@physx@@@01@I@Z 1001bb20 f i NpFactory.obj
 0001:0001aec0       ??$sort@PAXU?$Less@PAX@shdfnd@physx@@V?$ReflectionAllocator@V?$PtrBlock@$0EA@@NpPtrTableStorageManager@physx@@@23@@shdfnd@physx@@YAXPAPAXIABU?$Less@PAX@01@ABV?$ReflectionAllocator@V?$PtrBlock@$0EA@@NpPtrTableStorageManager@physx@@@01@I@Z 1001bec0 f i NpFactory.obj
 0001:0001b260       ??$sort@PAXU?$Less@PAX@shdfnd@physx@@V?$ReflectionAllocator@VNpAggregate@physx@@@23@@shdfnd@physx@@YAXPAPAXIABU?$Less@PAX@01@ABV?$ReflectionAllocator@VNpAggregate@physx@@@01@I@Z 1001c260 f i NpFactory.obj
 0001:0001b600       ??$sort@PAXU?$Less@PAX@shdfnd@physx@@V?$ReflectionAllocator@VNpArticulation@physx@@@23@@shdfnd@physx@@YAXPAPAXIABU?$Less@PAX@01@ABV?$ReflectionAllocator@VNpArticulation@physx@@@01@I@Z 1001c600 f i NpFactory.obj
 0001:0001b9a0       ??$sort@PAXU?$Less@PAX@shdfnd@physx@@V?$ReflectionAllocator@VNpArticulationJoint@physx@@@23@@shdfnd@physx@@YAXPAPAXIABU?$Less@PAX@01@ABV?$ReflectionAllocator@VNpArticulationJoint@physx@@@01@I@Z 1001c9a0 f i NpFactory.obj
 0001:0001bd40       ??$sort@PAXU?$Less@PAX@shdfnd@physx@@V?$ReflectionAllocator@VNpArticulationJointReducedCoordinate@physx@@@23@@shdfnd@physx@@YAXPAPAXIABU?$Less@PAX@01@ABV?$ReflectionAllocator@VNpArticulationJointReducedCoordinate@physx@@@01@I@Z 1001cd40 f i NpFactory.obj
 0001:0001c0e0       ??$sort@PAXU?$Less@PAX@shdfnd@physx@@V?$ReflectionAllocator@VNpArticulationLink@physx@@@23@@shdfnd@physx@@YAXPAPAXIABU?$Less@PAX@01@ABV?$ReflectionAllocator@VNpArticulationLink@physx@@@01@I@Z 1001d0e0 f i NpFactory.obj
 0001:0001c480       ??$sort@PAXU?$Less@PAX@shdfnd@physx@@V?$ReflectionAllocator@VNpArticulationReducedCoordinate@physx@@@23@@shdfnd@physx@@YAXPAPAXIABU?$Less@PAX@01@ABV?$ReflectionAllocator@VNpArticulationReducedCoordinate@physx@@@01@I@Z 1001d480 f i NpFactory.obj
 0001:0001c820       ??$sort@PAXU?$Less@PAX@shdfnd@physx@@V?$ReflectionAllocator@VNpConnectorArray@physx@@@23@@shdfnd@physx@@YAXPAPAXIABU?$Less@PAX@01@ABV?$ReflectionAllocator@VNpConnectorArray@physx@@@01@I@Z 1001d820 f i NpFactory.obj
 0001:0001cbc0       ??$sort@PAXU?$Less@PAX@shdfnd@physx@@V?$ReflectionAllocator@VNpConstraint@physx@@@23@@shdfnd@physx@@YAXPAPAXIABU?$Less@PAX@01@ABV?$ReflectionAllocator@VNpConstraint@physx@@@01@I@Z 1001dbc0 f i NpFactory.obj
 0001:0001cf60       ??$sort@PAXU?$Less@PAX@shdfnd@physx@@V?$ReflectionAllocator@VNpMaterial@physx@@@23@@shdfnd@physx@@YAXPAPAXIABU?$Less@PAX@01@ABV?$ReflectionAllocator@VNpMaterial@physx@@@01@I@Z 1001df60 f i NpFactory.obj
 0001:0001d300       ??$sort@PAXU?$Less@PAX@shdfnd@physx@@V?$ReflectionAllocator@VNpRigidDynamic@physx@@@23@@shdfnd@physx@@YAXPAPAXIABU?$Less@PAX@01@ABV?$ReflectionAllocator@VNpRigidDynamic@physx@@@01@I@Z 1001e300 f i NpFactory.obj
 0001:0001d6a0       ??$sort@PAXU?$Less@PAX@shdfnd@physx@@V?$ReflectionAllocator@VNpRigidStatic@physx@@@23@@shdfnd@physx@@YAXPAPAXIABU?$Less@PAX@01@ABV?$ReflectionAllocator@VNpRigidStatic@physx@@@01@I@Z 1001e6a0 f i NpFactory.obj
 0001:0001da40       ??$sort@PAXU?$Less@PAX@shdfnd@physx@@V?$ReflectionAllocator@VNpShape@physx@@@23@@shdfnd@physx@@YAXPAPAXIABU?$Less@PAX@01@ABV?$ReflectionAllocator@VNpShape@physx@@@01@I@Z 1001ea40 f i NpFactory.obj
 0001:0001dde0       ??0?$MutexT@V?$ReflectionAllocator@VMutexImpl@shdfnd@physx@@@shdfnd@physx@@@shdfnd@physx@@QAE@ABV?$ReflectionAllocator@VMutexImpl@shdfnd@physx@@@12@@Z 1001ede0 f i NpFactory.obj
 0001:0001de60       ??0NpFactory@physx@@QAE@XZ 1001ee60 f   NpFactory.obj
 0001:0001e5e0       ??1?$PoolBase@V?$PtrBlock@$03@NpPtrTableStorageManager@physx@@V?$ReflectionAllocator@V?$PtrBlock@$03@NpPtrTableStorageManager@physx@@@shdfnd@3@@shdfnd@physx@@QAE@XZ 1001f5e0 f i NpFactory.obj
 0001:0001e790       ??1?$PoolBase@V?$PtrBlock@$0BA@@NpPtrTableStorageManager@physx@@V?$ReflectionAllocator@V?$PtrBlock@$0BA@@NpPtrTableStorageManager@physx@@@shdfnd@3@@shdfnd@physx@@QAE@XZ 1001f790 f i NpFactory.obj
 0001:0001e940       ??1?$PoolBase@V?$PtrBlock@$0EA@@NpPtrTableStorageManager@physx@@V?$ReflectionAllocator@V?$PtrBlock@$0EA@@NpPtrTableStorageManager@physx@@@shdfnd@3@@shdfnd@physx@@QAE@XZ 1001f940 f i NpFactory.obj
 0001:0001eaf0       ??1?$PoolBase@VNpAggregate@physx@@V?$ReflectionAllocator@VNpAggregate@physx@@@shdfnd@2@@shdfnd@physx@@QAE@XZ 1001faf0 f i NpFactory.obj
 0001:0001ecb0       ??1?$PoolBase@VNpArticulation@physx@@V?$ReflectionAllocator@VNpArticulation@physx@@@shdfnd@2@@shdfnd@physx@@QAE@XZ 1001fcb0 f i NpFactory.obj
 0001:0001ee70       ??1?$PoolBase@VNpArticulationJoint@physx@@V?$ReflectionAllocator@VNpArticulationJoint@physx@@@shdfnd@2@@shdfnd@physx@@QAE@XZ 1001fe70 f i NpFactory.obj
 0001:0001f040       ??1?$PoolBase@VNpArticulationJointReducedCoordinate@physx@@V?$ReflectionAllocator@VNpArticulationJointReducedCoordinate@physx@@@shdfnd@2@@shdfnd@physx@@QAE@XZ 10020040 f i NpFactory.obj
 0001:0001f210       ??1?$PoolBase@VNpArticulationLink@physx@@V?$ReflectionAllocator@VNpArticulationLink@physx@@@shdfnd@2@@shdfnd@physx@@QAE@XZ 10020210 f i NpFactory.obj
 0001:0001f3d0       ??1?$PoolBase@VNpArticulationReducedCoordinate@physx@@V?$ReflectionAllocator@VNpArticulationReducedCoordinate@physx@@@shdfnd@2@@shdfnd@physx@@QAE@XZ 100203d0 f i NpFactory.obj
 0001:0001f5a0       ??1?$PoolBase@VNpConnectorArray@physx@@V?$ReflectionAllocator@VNpConnectorArray@physx@@@shdfnd@2@@shdfnd@physx@@QAE@XZ 100205a0 f i NpFactory.obj
 0001:0001f630       ??1?$PoolBase@VNpConstraint@physx@@V?$ReflectionAllocator@VNpConstraint@physx@@@shdfnd@2@@shdfnd@physx@@QAE@XZ 10020630 f i NpFactory.obj
 0001:0001f7f0       ??1?$PoolBase@VNpMaterial@physx@@V?$ReflectionAllocator@VNpMaterial@physx@@@shdfnd@2@@shdfnd@physx@@QAE@XZ 100207f0 f i NpFactory.obj
 0001:0001f9b0       ??1?$PoolBase@VNpRigidDynamic@physx@@V?$ReflectionAllocator@VNpRigidDynamic@physx@@@shdfnd@2@@shdfnd@physx@@QAE@XZ 100209b0 f i NpFactory.obj
 0001:0001fb70       ??1?$PoolBase@VNpRigidStatic@physx@@V?$ReflectionAllocator@VNpRigidStatic@physx@@@shdfnd@2@@shdfnd@physx@@QAE@XZ 10020b70 f i NpFactory.obj
 0001:0001fd30       ??1?$PoolBase@VNpShape@physx@@V?$ReflectionAllocator@VNpShape@physx@@@shdfnd@2@@shdfnd@physx@@QAE@XZ 10020d30 f i NpFactory.obj
 0001:0001ff00       ??1NpFactory@physx@@EAE@XZ 10020f00 f   NpFactory.obj
 0001:000201c0       ??_GNpFactory@physx@@EAEPAXI@Z 100211c0 f i NpFactory.obj
 0001:000201c0       ??_ENpFactory@physx@@EAEPAXI@Z 100211c0 f i NpFactory.obj
 0001:00020200       ??_GNpPtrTableStorageManager@physx@@UAEPAXI@Z 10021200 f i NpFactory.obj
 0001:00020200       ??_ENpPtrTableStorageManager@physx@@UAEPAXI@Z 10021200 f i NpFactory.obj
 0001:00020280       ??_EPtrTableStorageManager@Cm@physx@@MAEPAXI@Z 10021280 f i NpFactory.obj
 0001:00020280       ??_GPtrTableStorageManager@Cm@physx@@MAEPAXI@Z 10021280 f i NpFactory.obj
 0001:000202b0       ?NpDestroy@physx@@YAXAAVBase@Scb@1@@Z 100212b0 f   NpFactory.obj
 0001:000206b0       ?acquireConnectorArray@NpFactory@physx@@QAEPAVNpConnectorArray@2@XZ 100216b0 f   NpFactory.obj
 0001:000207f0       ?addCollection@NpFactory@physx@@QAEXABVCollection@Cm@2@@Z 100217f0 f   NpFactory.obj
 0001:00020a60       ?allocate@?$Array@GV?$InlineAllocator@$07V?$ReflectionAllocator@G@shdfnd@physx@@@shdfnd@physx@@@shdfnd@physx@@IAEPAGI@Z 10021a60 f i NpFactory.obj
 0001:00020af0       ?allocate@?$Array@PAVPxActor@physx@@V?$ReflectionAllocator@PAVPxActor@physx@@@shdfnd@2@@shdfnd@physx@@IAEPAPAVPxActor@3@I@Z 10021af0 f i NpFactory.obj
 0001:00020b60       ?allocate@?$Array@PAVPxAggregate@physx@@V?$ReflectionAllocator@PAVPxAggregate@physx@@@shdfnd@2@@shdfnd@physx@@IAEPAPAVPxAggregate@3@I@Z 10021b60 f i NpFactory.obj
 0001:00020bd0       ?allocate@?$Array@PAVPxArticulationBase@physx@@V?$ReflectionAllocator@PAVPxArticulationBase@physx@@@shdfnd@2@@shdfnd@physx@@IAEPAPAVPxArticulationBase@3@I@Z 10021bd0 f i NpFactory.obj
 0001:00020c40       ?allocate@?$Array@PAVPxConstraint@physx@@V?$ReflectionAllocator@PAVPxConstraint@physx@@@shdfnd@2@@shdfnd@physx@@IAEPAPAVPxConstraint@3@I@Z 10021c40 f i NpFactory.obj
 0001:00020cb0       ?allocate@?$Array@PAXV?$InlineAllocator@$0BAA@V?$ReflectionAllocator@V?$PtrBlock@$03@NpPtrTableStorageManager@physx@@@shdfnd@physx@@@shdfnd@physx@@@shdfnd@physx@@IAEPAPAXI@Z 10021cb0 f i NpFactory.obj
 0001:00020d40       ?allocate@?$Array@PAXV?$InlineAllocator@$0BAA@V?$ReflectionAllocator@V?$PtrBlock@$0BA@@NpPtrTableStorageManager@physx@@@shdfnd@physx@@@shdfnd@physx@@@shdfnd@physx@@IAEPAPAXI@Z 10021d40 f i NpFactory.obj
 0001:00020dd0       ?allocate@?$Array@PAXV?$InlineAllocator@$0BAA@V?$ReflectionAllocator@V?$PtrBlock@$0EA@@NpPtrTableStorageManager@physx@@@shdfnd@physx@@@shdfnd@physx@@@shdfnd@physx@@IAEPAPAXI@Z 10021dd0 f i NpFactory.obj
 0001:00020e60       ?allocate@?$Array@PAXV?$InlineAllocator@$0BAA@V?$ReflectionAllocator@VNpAggregate@physx@@@shdfnd@physx@@@shdfnd@physx@@@shdfnd@physx@@IAEPAPAXI@Z 10021e60 f i NpFactory.obj
 0001:00020ef0       ?allocate@?$Array@PAXV?$InlineAllocator@$0BAA@V?$ReflectionAllocator@VNpArticulation@physx@@@shdfnd@physx@@@shdfnd@physx@@@shdfnd@physx@@IAEPAPAXI@Z 10021ef0 f i NpFactory.obj
 0001:00020f80       ?allocate@?$Array@PAXV?$InlineAllocator@$0BAA@V?$ReflectionAllocator@VNpArticulationJoint@physx@@@shdfnd@physx@@@shdfnd@physx@@@shdfnd@physx@@IAEPAPAXI@Z 10021f80 f i NpFactory.obj
 0001:00021010       ?allocate@?$Array@PAXV?$InlineAllocator@$0BAA@V?$ReflectionAllocator@VNpArticulationJointReducedCoordinate@physx@@@shdfnd@physx@@@shdfnd@physx@@@shdfnd@physx@@IAEPAPAXI@Z 10022010 f i NpFactory.obj
 0001:000210a0       ?allocate@?$Array@PAXV?$InlineAllocator@$0BAA@V?$ReflectionAllocator@VNpArticulationLink@physx@@@shdfnd@physx@@@shdfnd@physx@@@shdfnd@physx@@IAEPAPAXI@Z 100220a0 f i NpFactory.obj
 0001:00021130       ?allocate@?$Array@PAXV?$InlineAllocator@$0BAA@V?$ReflectionAllocator@VNpArticulationReducedCoordinate@physx@@@shdfnd@physx@@@shdfnd@physx@@@shdfnd@physx@@IAEPAPAXI@Z 10022130 f i NpFactory.obj
 0001:000211c0       ?allocate@?$Array@PAXV?$InlineAllocator@$0BAA@V?$ReflectionAllocator@VNpConnectorArray@physx@@@shdfnd@physx@@@shdfnd@physx@@@shdfnd@physx@@IAEPAPAXI@Z 100221c0 f i NpFactory.obj
 0001:00021250       ?allocate@?$Array@PAXV?$InlineAllocator@$0BAA@V?$ReflectionAllocator@VNpConstraint@physx@@@shdfnd@physx@@@shdfnd@physx@@@shdfnd@physx@@IAEPAPAXI@Z 10022250 f i NpFactory.obj
 0001:000212e0       ?allocate@?$Array@PAXV?$InlineAllocator@$0BAA@V?$ReflectionAllocator@VNpMaterial@physx@@@shdfnd@physx@@@shdfnd@physx@@@shdfnd@physx@@IAEPAPAXI@Z 100222e0 f i NpFactory.obj
 0001:00021370       ?allocate@?$Array@PAXV?$InlineAllocator@$0BAA@V?$ReflectionAllocator@VNpRigidDynamic@physx@@@shdfnd@physx@@@shdfnd@physx@@@shdfnd@physx@@IAEPAPAXI@Z 10022370 f i NpFactory.obj
 0001:00021400       ?allocate@?$Array@PAXV?$InlineAllocator@$0BAA@V?$ReflectionAllocator@VNpRigidStatic@physx@@@shdfnd@physx@@@shdfnd@physx@@@shdfnd@physx@@IAEPAPAXI@Z 10022400 f i NpFactory.obj
 0001:00021490       ?allocate@?$Array@PAXV?$InlineAllocator@$0BAA@V?$ReflectionAllocator@VNpShape@physx@@@shdfnd@physx@@@shdfnd@physx@@@shdfnd@physx@@IAEPAPAXI@Z 10022490 f i NpFactory.obj
 0001:00021520       ?allocate@?$ReflectionAllocator@V?$PtrBlock@$03@NpPtrTableStorageManager@physx@@@shdfnd@physx@@QAEPAXIPBDH@Z 10022520 f i NpFactory.obj
 0001:00021580       ?allocate@?$ReflectionAllocator@V?$PtrBlock@$0BA@@NpPtrTableStorageManager@physx@@@shdfnd@physx@@QAEPAXIPBDH@Z 10022580 f i NpFactory.obj
 0001:000215e0       ?allocate@?$ReflectionAllocator@V?$PtrBlock@$0EA@@NpPtrTableStorageManager@physx@@@shdfnd@physx@@QAEPAXIPBDH@Z 100225e0 f i NpFactory.obj
 0001:00021640       ?allocate@?$ReflectionAllocator@VNpAggregate@physx@@@shdfnd@physx@@QAEPAXIPBDH@Z 10022640 f i NpFactory.obj
 0001:000216a0       ?allocate@?$ReflectionAllocator@VNpArticulation@physx@@@shdfnd@physx@@QAEPAXIPBDH@Z 100226a0 f i NpFactory.obj
 0001:00021700       ?allocate@?$ReflectionAllocator@VNpArticulationJoint@physx@@@shdfnd@physx@@QAEPAXIPBDH@Z 10022700 f i NpFactory.obj
 0001:00021760       ?allocate@?$ReflectionAllocator@VNpArticulationJointReducedCoordinate@physx@@@shdfnd@physx@@QAEPAXIPBDH@Z 10022760 f i NpFactory.obj
 0001:000217c0       ?allocate@?$ReflectionAllocator@VNpArticulationLink@physx@@@shdfnd@physx@@QAEPAXIPBDH@Z 100227c0 f i NpFactory.obj
 0001:00021820       ?allocate@?$ReflectionAllocator@VNpArticulationReducedCoordinate@physx@@@shdfnd@physx@@QAEPAXIPBDH@Z 10022820 f i NpFactory.obj
 0001:00021880       ?allocate@?$ReflectionAllocator@VNpConnectorArray@physx@@@shdfnd@physx@@QAEPAXIPBDH@Z 10022880 f i NpFactory.obj
 0001:000218e0       ?allocate@?$ReflectionAllocator@VNpConstraint@physx@@@shdfnd@physx@@QAEPAXIPBDH@Z 100228e0 f i NpFactory.obj
 0001:00021940       ?allocate@?$ReflectionAllocator@VNpMaterial@physx@@@shdfnd@physx@@QAEPAXIPBDH@Z 10022940 f i NpFactory.obj
 0001:000219a0       ?allocate@?$ReflectionAllocator@VNpRigidDynamic@physx@@@shdfnd@physx@@QAEPAXIPBDH@Z 100229a0 f i NpFactory.obj
 0001:00021a00       ?allocate@?$ReflectionAllocator@VNpRigidStatic@physx@@@shdfnd@physx@@QAEPAXIPBDH@Z 10022a00 f i NpFactory.obj
 0001:00021a60       ?allocate@?$ReflectionAllocator@VNpShape@physx@@@shdfnd@physx@@QAEPAXIPBDH@Z 10022a60 f i NpFactory.obj
 0001:00021ac0       ?allocate@NpPtrTableStorageManager@physx@@UAEPAPAXI@Z 10022ac0 f i NpFactory.obj
 0001:00021e40       ?canReuse@NpPtrTableStorageManager@physx@@UAE_NII@Z 10022e40 f i NpFactory.obj
 0001:00021ea0       ?create@?$HashBase@PAVPxActor@physx@@PAV12@U?$Hash@PAVPxActor@physx@@@shdfnd@2@UGetKey@?$HashSetBase@PAVPxActor@physx@@U?$Hash@PAVPxActor@physx@@@shdfnd@2@VNonTrackingAllocator@42@$0A@@internal@42@VNonTrackingAllocator@42@$0A@@internal@shdfnd@physx@@QAEPAPAVPxActor@4@ABQAV54@AA_N@Z 10022ea0 f i NpFactory.obj
 0001:00021ea0       ?create@?$HashBase@PAVPxConstraint@physx@@PAV12@U?$Hash@PAVPxConstraint@physx@@@shdfnd@2@UGetKey@?$HashSetBase@PAVPxConstraint@physx@@U?$Hash@PAVPxConstraint@physx@@@shdfnd@2@VNonTrackingAllocator@42@$0A@@internal@42@VNonTrackingAllocator@42@$0A@@internal@shdfnd@physx@@QAEPAPAVPxConstraint@4@ABQAV54@AA_N@Z 10022ea0 f i NpFactory.obj
 0001:00021ea0       ?create@?$HashBase@PBVPxBase@physx@@PBV12@U?$Hash@PBVPxBase@physx@@@shdfnd@2@UGetKey@?$HashSetBase@PBVPxBase@physx@@U?$Hash@PBVPxBase@physx@@@shdfnd@2@VNonTrackingAllocator@42@$0A@@internal@42@VNonTrackingAllocator@42@$0A@@internal@shdfnd@physx@@QAEPAPBVPxBase@4@ABQBV54@AA_N@Z 10022ea0 f i NpPhysics.obj
 0001:00021ea0       ?create@?$HashBase@PAVPxArticulationBase@physx@@PAV12@U?$Hash@PAVPxArticulationBase@physx@@@shdfnd@2@UGetKey@?$HashSetBase@PAVPxArticulationBase@physx@@U?$Hash@PAVPxArticulationBase@physx@@@shdfnd@2@VNonTrackingAllocator@42@$0A@@internal@42@VNonTrackingAllocator@42@$0A@@internal@shdfnd@physx@@QAEPAPAVPxArticulationBase@4@ABQAV54@AA_N@Z 10022ea0 f i NpFactory.obj
 0001:00021ea0       ?create@?$HashBase@PAVPxAggregate@physx@@PAV12@U?$Hash@PAVPxAggregate@physx@@@shdfnd@2@UGetKey@?$HashSetBase@PAVPxAggregate@physx@@U?$Hash@PAVPxAggregate@physx@@@shdfnd@2@VNonTrackingAllocator@42@$0A@@internal@42@VNonTrackingAllocator@42@$0A@@internal@shdfnd@physx@@QAEPAPAVPxAggregate@4@ABQAV54@AA_N@Z 10022ea0 f i NpFactory.obj
 0001:00021fd0       ?createAggregate@NpFactory@physx@@QAEPAVPxAggregate@2@I_N@Z 10022fd0 f   NpFactory.obj
 0001:00022280       ?createArticulation@NpFactory@physx@@QAEPAVPxArticulation@2@XZ 10023280 f   NpFactory.obj
 0001:00022750       ?createArticulationLink@NpFactory@physx@@QAEPAVPxArticulationLink@2@AAVPxArticulationBase@2@PAVNpArticulationLink@2@ABVPxTransform@2@@Z 10023750 f   NpFactory.obj
 0001:000228f0       ?createArticulationRC@NpFactory@physx@@QAEPAVPxArticulationReducedCoordinate@2@XZ 100238f0 f   NpFactory.obj
 0001:00022970       ?createConstraint@NpFactory@physx@@QAEPAVPxConstraint@2@PAVPxRigidActor@2@0AAVPxConstraintConnector@2@ABUPxConstraintShaderTable@2@I@Z 10023970 f   NpFactory.obj
 0001:00022ae0       ?createInstance@NpFactory@physx@@SAXXZ 10023ae0 f   NpFactory.obj
 0001:00022b50       ?createMaterial@NpFactory@physx@@QAEPAVPxMaterial@2@MMM@Z 10023b50 f   NpFactory.obj
 0001:00022cb0       ?createNpArticulationJoint@NpFactory@physx@@QAEPAVNpArticulationJoint@2@AAVNpArticulationLink@2@ABVPxTransform@2@01@Z 10023cb0 f   NpFactory.obj
 0001:00022df0       ?createNpArticulationJointRC@NpFactory@physx@@QAEPAVNpArticulationJointReducedCoordinate@2@AAVNpArticulationLink@2@ABVPxTransform@2@01@Z 10023df0 f   NpFactory.obj
 0001:00022f30       ?createRigidDynamic@NpFactory@physx@@QAEPAVPxRigidDynamic@2@ABVPxTransform@2@@Z 10023f30 f   NpFactory.obj
 0001:000230a0       ?createRigidStatic@NpFactory@physx@@QAEPAVPxRigidStatic@2@ABVPxTransform@2@@Z 100240a0 f   NpFactory.obj
 0001:00023200       ?createShape@NpFactory@physx@@QAEPAVNpShape@2@ABVPxGeometry@2@V?$PxFlags@W4Enum@PxShapeFlag@physx@@E@2@PBQAVPxMaterial@2@G_N@Z 10024200 f   NpFactory.obj
 0001:000234a0       ?deallocate@NpPtrTableStorageManager@physx@@UAEXPAPAXI@Z 100244a0 f i NpFactory.obj
 0001:00023550       ?destroyInstance@NpFactory@physx@@SAXXZ 10024550 f   NpFactory.obj
 0001:00023570       ?disposeElements@?$PoolBase@VNpConnectorArray@physx@@V?$ReflectionAllocator@VNpConnectorArray@physx@@@shdfnd@2@@shdfnd@physx@@IAEXXZ 10024570 f i NpFactory.obj
 0001:000236e0       ?getNbShapes@NpFactory@physx@@QBEIXZ 100246e0 f   NpFactory.obj
 0001:000236f0       ?getShapes@NpFactory@physx@@QBEIPAPAVPxShape@2@II@Z 100246f0 f   NpFactory.obj
 0001:00023740       ?growAndPushBack@?$Array@PAVPxActor@physx@@V?$ReflectionAllocator@PAVPxActor@physx@@@shdfnd@2@@shdfnd@physx@@IAEAAPAVPxActor@3@ABQAV43@@Z 10024740 f i NpFactory.obj
 0001:000237c0       ?growAndPushBack@?$Array@PAVPxAggregate@physx@@V?$ReflectionAllocator@PAVPxAggregate@physx@@@shdfnd@2@@shdfnd@physx@@IAEAAPAVPxAggregate@3@ABQAV43@@Z 100247c0 f i NpFactory.obj
 0001:00023840       ?growAndPushBack@?$Array@PAVPxArticulationBase@physx@@V?$ReflectionAllocator@PAVPxArticulationBase@physx@@@shdfnd@2@@shdfnd@physx@@IAEAAPAVPxArticulationBase@3@ABQAV43@@Z 10024840 f i NpFactory.obj
 0001:000238c0       ?growAndPushBack@?$Array@PAVPxConstraint@physx@@V?$ReflectionAllocator@PAVPxConstraint@physx@@@shdfnd@2@@shdfnd@physx@@IAEAAPAVPxConstraint@3@ABQAV43@@Z 100248c0 f i NpFactory.obj
 0001:00023940       ?growAndPushBack@?$Array@PAXV?$InlineAllocator@$0BAA@V?$ReflectionAllocator@V?$PtrBlock@$03@NpPtrTableStorageManager@physx@@@shdfnd@physx@@@shdfnd@physx@@@shdfnd@physx@@IAEAAPAXABQAX@Z 10024940 f i NpFactory.obj
 0001:00023a00       ?growAndPushBack@?$Array@PAXV?$InlineAllocator@$0BAA@V?$ReflectionAllocator@V?$PtrBlock@$0BA@@NpPtrTableStorageManager@physx@@@shdfnd@physx@@@shdfnd@physx@@@shdfnd@physx@@IAEAAPAXABQAX@Z 10024a00 f i NpFactory.obj
 0001:00023ac0       ?growAndPushBack@?$Array@PAXV?$InlineAllocator@$0BAA@V?$ReflectionAllocator@V?$PtrBlock@$0EA@@NpPtrTableStorageManager@physx@@@shdfnd@physx@@@shdfnd@physx@@@shdfnd@physx@@IAEAAPAXABQAX@Z 10024ac0 f i NpFactory.obj
 0001:00023b80       ?growAndPushBack@?$Array@PAXV?$InlineAllocator@$0BAA@V?$ReflectionAllocator@VNpAggregate@physx@@@shdfnd@physx@@@shdfnd@physx@@@shdfnd@physx@@IAEAAPAXABQAX@Z 10024b80 f i NpFactory.obj
 0001:00023c40       ?growAndPushBack@?$Array@PAXV?$InlineAllocator@$0BAA@V?$ReflectionAllocator@VNpArticulation@physx@@@shdfnd@physx@@@shdfnd@physx@@@shdfnd@physx@@IAEAAPAXABQAX@Z 10024c40 f i NpFactory.obj
 0001:00023d00       ?growAndPushBack@?$Array@PAXV?$InlineAllocator@$0BAA@V?$ReflectionAllocator@VNpArticulationJoint@physx@@@shdfnd@physx@@@shdfnd@physx@@@shdfnd@physx@@IAEAAPAXABQAX@Z 10024d00 f i NpFactory.obj
 0001:00023dc0       ?growAndPushBack@?$Array@PAXV?$InlineAllocator@$0BAA@V?$ReflectionAllocator@VNpArticulationJointReducedCoordinate@physx@@@shdfnd@physx@@@shdfnd@physx@@@shdfnd@physx@@IAEAAPAXABQAX@Z 10024dc0 f i NpFactory.obj
 0001:00023e80       ?growAndPushBack@?$Array@PAXV?$InlineAllocator@$0BAA@V?$ReflectionAllocator@VNpArticulationLink@physx@@@shdfnd@physx@@@shdfnd@physx@@@shdfnd@physx@@IAEAAPAXABQAX@Z 10024e80 f i NpFactory.obj
 0001:00023f40       ?growAndPushBack@?$Array@PAXV?$InlineAllocator@$0BAA@V?$ReflectionAllocator@VNpArticulationReducedCoordinate@physx@@@shdfnd@physx@@@shdfnd@physx@@@shdfnd@physx@@IAEAAPAXABQAX@Z 10024f40 f i NpFactory.obj
 0001:00024000       ?growAndPushBack@?$Array@PAXV?$InlineAllocator@$0BAA@V?$ReflectionAllocator@VNpConnectorArray@physx@@@shdfnd@physx@@@shdfnd@physx@@@shdfnd@physx@@IAEAAPAXABQAX@Z 10025000 f i NpFactory.obj
 0001:000240c0       ?growAndPushBack@?$Array@PAXV?$InlineAllocator@$0BAA@V?$ReflectionAllocator@VNpConstraint@physx@@@shdfnd@physx@@@shdfnd@physx@@@shdfnd@physx@@IAEAAPAXABQAX@Z 100250c0 f i NpFactory.obj
 0001:00024180       ?growAndPushBack@?$Array@PAXV?$InlineAllocator@$0BAA@V?$ReflectionAllocator@VNpMaterial@physx@@@shdfnd@physx@@@shdfnd@physx@@@shdfnd@physx@@IAEAAPAXABQAX@Z 10025180 f i NpFactory.obj
 0001:00024240       ?growAndPushBack@?$Array@PAXV?$InlineAllocator@$0BAA@V?$ReflectionAllocator@VNpRigidDynamic@physx@@@shdfnd@physx@@@shdfnd@physx@@@shdfnd@physx@@IAEAAPAXABQAX@Z 10025240 f i NpFactory.obj
 0001:00024300       ?growAndPushBack@?$Array@PAXV?$InlineAllocator@$0BAA@V?$ReflectionAllocator@VNpRigidStatic@physx@@@shdfnd@physx@@@shdfnd@physx@@@shdfnd@physx@@IAEAAPAXABQAX@Z 10025300 f i NpFactory.obj
 0001:000243c0       ?growAndPushBack@?$Array@PAXV?$InlineAllocator@$0BAA@V?$ReflectionAllocator@VNpShape@physx@@@shdfnd@physx@@@shdfnd@physx@@@shdfnd@physx@@IAEAAPAXABQAX@Z 100253c0 f i NpFactory.obj
 0001:00024480       ?growAndPushBack@?$Array@PAXV?$ReflectionAllocator@V?$PtrBlock@$03@NpPtrTableStorageManager@physx@@@shdfnd@physx@@@shdfnd@physx@@IAEAAPAXABQAX@Z 10025480 f i NpFactory.obj
 0001:00024520       ?growAndPushBack@?$Array@PAXV?$ReflectionAllocator@V?$PtrBlock@$0BA@@NpPtrTableStorageManager@physx@@@shdfnd@physx@@@shdfnd@physx@@IAEAAPAXABQAX@Z 10025520 f i NpFactory.obj
 0001:000245c0       ?growAndPushBack@?$Array@PAXV?$ReflectionAllocator@V?$PtrBlock@$0EA@@NpPtrTableStorageManager@physx@@@shdfnd@physx@@@shdfnd@physx@@IAEAAPAXABQAX@Z 100255c0 f i NpFactory.obj
 0001:00024660       ?growAndPushBack@?$Array@PAXV?$ReflectionAllocator@VNpAggregate@physx@@@shdfnd@physx@@@shdfnd@physx@@IAEAAPAXABQAX@Z 10025660 f i NpFactory.obj
 0001:00024700       ?growAndPushBack@?$Array@PAXV?$ReflectionAllocator@VNpArticulation@physx@@@shdfnd@physx@@@shdfnd@physx@@IAEAAPAXABQAX@Z 10025700 f i NpFactory.obj
 0001:000247a0       ?growAndPushBack@?$Array@PAXV?$ReflectionAllocator@VNpArticulationJoint@physx@@@shdfnd@physx@@@shdfnd@physx@@IAEAAPAXABQAX@Z 100257a0 f i NpFactory.obj
 0001:00024840       ?growAndPushBack@?$Array@PAXV?$ReflectionAllocator@VNpArticulationJointReducedCoordinate@physx@@@shdfnd@physx@@@shdfnd@physx@@IAEAAPAXABQAX@Z 10025840 f i NpFactory.obj
 0001:000248e0       ?growAndPushBack@?$Array@PAXV?$ReflectionAllocator@VNpArticulationLink@physx@@@shdfnd@physx@@@shdfnd@physx@@IAEAAPAXABQAX@Z 100258e0 f i NpFactory.obj
 0001:00024980       ?growAndPushBack@?$Array@PAXV?$ReflectionAllocator@VNpArticulationReducedCoordinate@physx@@@shdfnd@physx@@@shdfnd@physx@@IAEAAPAXABQAX@Z 10025980 f i NpFactory.obj
 0001:00024a20       ?growAndPushBack@?$Array@PAXV?$ReflectionAllocator@VNpConnectorArray@physx@@@shdfnd@physx@@@shdfnd@physx@@IAEAAPAXABQAX@Z 10025a20 f i NpFactory.obj
 0001:00024ac0       ?growAndPushBack@?$Array@PAXV?$ReflectionAllocator@VNpConstraint@physx@@@shdfnd@physx@@@shdfnd@physx@@IAEAAPAXABQAX@Z 10025ac0 f i NpFactory.obj
 0001:00024b60       ?growAndPushBack@?$Array@PAXV?$ReflectionAllocator@VNpMaterial@physx@@@shdfnd@physx@@@shdfnd@physx@@IAEAAPAXABQAX@Z 10025b60 f i NpFactory.obj
 0001:00024c00       ?growAndPushBack@?$Array@PAXV?$ReflectionAllocator@VNpRigidDynamic@physx@@@shdfnd@physx@@@shdfnd@physx@@IAEAAPAXABQAX@Z 10025c00 f i NpFactory.obj
 0001:00024ca0       ?growAndPushBack@?$Array@PAXV?$ReflectionAllocator@VNpRigidStatic@physx@@@shdfnd@physx@@@shdfnd@physx@@IAEAAPAXABQAX@Z 10025ca0 f i NpFactory.obj
 0001:00024d40       ?growAndPushBack@?$Array@PAXV?$ReflectionAllocator@VNpShape@physx@@@shdfnd@physx@@@shdfnd@physx@@IAEAAPAXABQAX@Z 10025d40 f i NpFactory.obj
 0001:00024de0       ?onActorRelease@NpFactory@physx@@QAEXPAVPxActor@2@@Z 10025de0 f   NpFactory.obj
 0001:00024ec0       ?onAggregateRelease@NpFactory@physx@@QAEXPAVPxAggregate@2@@Z 10025ec0 f   NpFactory.obj
 0001:00024fa0       ?onArticulationRelease@NpFactory@physx@@QAEXPAVPxArticulationBase@2@@Z 10025fa0 f   NpFactory.obj
 0001:00025080       ?onConstraintRelease@NpFactory@physx@@QAEXPAVPxConstraint@2@@Z 10026080 f   NpFactory.obj
 0001:00025160       ?onShapeRelease@NpFactory@physx@@QAEXPAVPxShape@2@@Z 10026160 f   NpFactory.obj
 0001:00025190       ?recreate@?$Array@GV?$InlineAllocator@$07V?$ReflectionAllocator@G@shdfnd@physx@@@shdfnd@physx@@@shdfnd@physx@@IAEXI@Z 10026190 f i NpFactory.obj
 0001:00025200       ?recreate@?$Array@PAVPxActor@physx@@V?$ReflectionAllocator@PAVPxActor@physx@@@shdfnd@2@@shdfnd@physx@@IAEXI@Z 10026200 f i NpFactory.obj
 0001:00025260       ?recreate@?$Array@PAVPxAggregate@physx@@V?$ReflectionAllocator@PAVPxAggregate@physx@@@shdfnd@2@@shdfnd@physx@@IAEXI@Z 10026260 f i NpFactory.obj
 0001:000252c0       ?recreate@?$Array@PAVPxArticulationBase@physx@@V?$ReflectionAllocator@PAVPxArticulationBase@physx@@@shdfnd@2@@shdfnd@physx@@IAEXI@Z 100262c0 f i NpFactory.obj
 0001:00025320       ?recreate@?$Array@PAVPxConstraint@physx@@V?$ReflectionAllocator@PAVPxConstraint@physx@@@shdfnd@2@@shdfnd@physx@@IAEXI@Z 10026320 f i NpFactory.obj
 0001:00025380       ?registerArticulationRCs@NpFactory@physx@@SAXXZ 10026380 f   NpFactory.obj
 0001:000253a0       ?registerArticulations@NpFactory@physx@@SAXXZ 100263a0 f   NpFactory.obj
 0001:000253c0       ?release@NpFactory@physx@@QAEXXZ 100263c0 f   NpFactory.obj
 0001:00025840       ?releaseArticulationJointRCToPool@NpFactory@physx@@QAEXAAVNpArticulationJointReducedCoordinate@2@@Z 10026840 f   NpFactory.obj
 0001:00025890       ?releaseArticulationJointToPool@NpFactory@physx@@QAEXAAVNpArticulationJoint@2@@Z 10026890 f   NpFactory.obj
 0001:000258e0       ?releaseConnectorArray@NpFactory@physx@@QAEXPAVNpConnectorArray@2@@Z 100268e0 f   NpFactory.obj
 0001:00025950       ?releaseMaterialToPool@NpFactory@physx@@QAEXAAVNpMaterial@2@@Z 10026950 f   NpFactory.obj
 0001:000259a0       ?reserveInternal@?$HashBase@PAVPxActor@physx@@PAV12@U?$Hash@PAVPxActor@physx@@@shdfnd@2@UGetKey@?$HashSetBase@PAVPxActor@physx@@U?$Hash@PAVPxActor@physx@@@shdfnd@2@VNonTrackingAllocator@42@$0A@@internal@42@VNonTrackingAllocator@42@$0A@@internal@shdfnd@physx@@AAEXI@Z 100269a0 f i NpFactory.obj
 0001:000259a0       ?reserveInternal@?$HashBase@PAVPxArticulationBase@physx@@PAV12@U?$Hash@PAVPxArticulationBase@physx@@@shdfnd@2@UGetKey@?$HashSetBase@PAVPxArticulationBase@physx@@U?$Hash@PAVPxArticulationBase@physx@@@shdfnd@2@VNonTrackingAllocator@42@$0A@@internal@42@VNonTrackingAllocator@42@$0A@@internal@shdfnd@physx@@AAEXI@Z 100269a0 f i NpFactory.obj
 0001:000259a0       ?reserveInternal@?$HashBase@PBVPxBase@physx@@PBV12@U?$Hash@PBVPxBase@physx@@@shdfnd@2@UGetKey@?$HashSetBase@PBVPxBase@physx@@U?$Hash@PBVPxBase@physx@@@shdfnd@2@VNonTrackingAllocator@42@$0A@@internal@42@VNonTrackingAllocator@42@$0A@@internal@shdfnd@physx@@AAEXI@Z 100269a0 f i NpPhysics.obj
 0001:000259a0       ?reserveInternal@?$HashBase@PAVPxConstraint@physx@@PAV12@U?$Hash@PAVPxConstraint@physx@@@shdfnd@2@UGetKey@?$HashSetBase@PAVPxConstraint@physx@@U?$Hash@PAVPxConstraint@physx@@@shdfnd@2@VNonTrackingAllocator@42@$0A@@internal@42@VNonTrackingAllocator@42@$0A@@internal@shdfnd@physx@@AAEXI@Z 100269a0 f i NpFactory.obj
 0001:000259a0       ?reserveInternal@?$HashBase@PAVPxAggregate@physx@@PAV12@U?$Hash@PAVPxAggregate@physx@@@shdfnd@2@UGetKey@?$HashSetBase@PAVPxAggregate@physx@@U?$Hash@PAVPxAggregate@physx@@@shdfnd@2@VNonTrackingAllocator@42@$0A@@internal@42@VNonTrackingAllocator@42@$0A@@internal@shdfnd@physx@@AAEXI@Z 100269a0 f i NpFactory.obj
 0001:00025d30       ?resize@?$Array@GV?$InlineAllocator@$07V?$ReflectionAllocator@G@shdfnd@physx@@@shdfnd@physx@@@shdfnd@physx@@QAEXIABG@Z 10026d30 f i NpFactory.obj
 0001:00025df0       ??0NpMaterial@physx@@QAE@ABVMaterialCore@Sc@1@@Z 10026df0 f   NpMaterial.obj
 0001:00025e7b       ??_ENpMaterial@physx@@WM@AEPAXI@Z 10026e7b f i NpMaterial.obj
 0001:00025e90       ??_GNpMaterial@physx@@UAEPAXI@Z 10026e90 f i NpMaterial.obj
 0001:00025e90       ??_ENpMaterial@physx@@UAEPAXI@Z 10026e90 f i NpMaterial.obj
 0001:00025ef0       ??_GRefCountable@Cm@physx@@UAEPAXI@Z 10026ef0 f i NpMaterial.obj
 0001:00025ef0       ??_ERefCountable@Cm@physx@@UAEPAXI@Z 10026ef0 f i NpMaterial.obj
 0001:00025f20       ?acquireReference@NpShape@physx@@UAEXXZ 10026f20 f   NpShape.obj
 0001:00025f20       ?acquireReference@NpMaterial@physx@@UAEXXZ 10026f20 f   NpMaterial.obj
 0001:00025f30       ?createObject@NpMaterial@physx@@SAPAV12@AAPAEAAVPxDeserializationContext@2@@Z 10026f30 f   NpMaterial.obj
 0001:00025f90       ?getConcreteTypeName@PxMaterial@physx@@UBEPBDXZ 10026f90 f i NpMaterial.obj
 0001:00025fa0       ?getDynamicFriction@NpMaterial@physx@@UBEMXZ 10026fa0 f   NpMaterial.obj
 0001:00025fb0       ?getFlags@NpMaterial@physx@@UBE?AV?$PxFlags@W4Enum@PxMaterialFlag@physx@@G@2@XZ 10026fb0 f   NpMaterial.obj
 0001:00025fc0       ?getFrictionCombineMode@NpMaterial@physx@@UBE?AW4Enum@PxCombineMode@2@XZ 10026fc0 f   NpMaterial.obj
 0001:00025fd0       ?getReferenceCount@NpMaterial@physx@@UBEIXZ 10026fd0 f   NpMaterial.obj
 0001:00025fd0       ?getReferenceCount@NpShape@physx@@UBEIXZ 10026fd0 f   NpShape.obj
 0001:00025fd0       ?getLines@RenderBuffer@Cm@physx@@UBEPBUPxDebugLine@3@XZ 10026fd0 f   NpScene.obj
 0001:00025fe0       ?getRestitution@NpMaterial@physx@@UBEMXZ 10026fe0 f   NpMaterial.obj
 0001:00025ff0       ?getRestitutionCombineMode@NpMaterial@physx@@UBE?AW4Enum@PxCombineMode@2@XZ 10026ff0 f   NpMaterial.obj
 0001:00026000       ?getStaticFriction@NpMaterial@physx@@UBEMXZ 10027000 f   NpMaterial.obj
 0001:00026010       ?isKindOf@PxMaterial@physx@@MBE_NPBD@Z 10027010 f i NpMaterial.obj
 0001:00026090       ?onRefCountZero@NpMaterial@physx@@UAEXXZ 10027090 f   NpMaterial.obj
 0001:000260e0       ?onRefCountZero@RefCountable@Cm@physx@@UAEXXZ 100270e0 f i NpMaterial.obj
 0001:000260e0       ?destroy@BroadPhaseABP@Bp@physx@@UAEXXZ 100270e0 f i LowLevelAABB_static_32:BpBroadPhaseABP.obj
 0001:000260e0       ?destroy@BroadPhaseMBP@Bp@physx@@UAEXXZ 100270e0 f i LowLevelAABB_static_32:BpBroadPhaseMBP.obj
 0001:000260f0       ?releaseInternal@NpShape@physx@@QAEXXZ 100270f0 f   NpShape.obj
 0001:000260f0       ?release@NpShape@physx@@UAEXXZ 100270f0 f   NpShape.obj
 0001:000260f0       ?release@NpMaterial@physx@@UAEXXZ 100270f0 f   NpMaterial.obj
 0001:00026110       ?resolveReferences@NpMaterial@physx@@UAEXAAVPxDeserializationContext@2@@Z 10027110 f   NpMaterial.obj
 0001:00026130       ?setDynamicFriction@NpMaterial@physx@@UAEXM@Z 10027130 f   NpMaterial.obj
 0001:00026150       ?setFlag@NpMaterial@physx@@UAEXW4Enum@PxMaterialFlag@2@_N@Z 10027150 f   NpMaterial.obj
 0001:00026190       ?setFlags@NpMaterial@physx@@UAEXV?$PxFlags@W4Enum@PxMaterialFlag@physx@@G@2@@Z 10027190 f   NpMaterial.obj
 0001:000261b0       ?setFrictionCombineMode@NpMaterial@physx@@UAEXW4Enum@PxCombineMode@2@@Z 100271b0 f   NpMaterial.obj
 0001:000261e0       ?setRestitution@NpMaterial@physx@@UAEXM@Z 100271e0 f   NpMaterial.obj
 0001:00026240       ?setRestitutionCombineMode@NpMaterial@physx@@UAEXW4Enum@PxCombineMode@2@@Z 10027240 f   NpMaterial.obj
 0001:00026260       ?setStaticFriction@NpMaterial@physx@@UAEXM@Z 10027260 f   NpMaterial.obj
 0001:00026280       ?getBinaryMetaData@NpArticulationLink@physx@@SAXAAVPxOutputStream@2@@Z 10027280 f   NpMetaData.obj
 0001:00026710       ?getBinaryMetaData@NpArticulationLinkArray@physx@@SAXAAVPxOutputStream@2@@Z 10027710 f   NpMetaData.obj
 0001:00026990       ?getBinaryMetaData@NpArticulationReducedCoordinate@physx@@SAXAAVPxOutputStream@2@@Z 10027990 f   NpMetaData.obj
 0001:00026c60       ?getBinaryMetaData@NpConnectorArray@physx@@SAXAAVPxOutputStream@2@@Z 10027c60 f   NpMetaData.obj
 0001:00026ee0       ?getBinaryMetaData@NpRigidDynamic@physx@@SAXAAVPxOutputStream@2@@Z 10027ee0 f   NpMetaData.obj
 0001:000271b0       ?getBinaryMetaData@NpRigidStatic@physx@@SAXAAVPxOutputStream@2@@Z 100281b0 f   NpMetaData.obj
 0001:00027480       ?getBinaryMetaData@NpShape@physx@@SAXAAVPxOutputStream@2@@Z 10028480 f   NpMetaData.obj
 0001:00028990       _PxGetPhysicsBinaryMetaData 10029990 f   NpMetaData.obj
 0001:00029ad0       ??1NpPhysics@physx@@EAE@XZ 1002aad0 f   NpPhysics.obj
 0001:00029d10       ??_EGuMeshFactoryListener@physx@@MAEPAXI@Z 1002ad10 f i NpPhysics.obj
 0001:00029d10       ??_EMeshDeletionListener@NpPhysics@physx@@UAEPAXI@Z 1002ad10 f i NpPhysics.obj
 0001:00029d10       ??_EPxProcessPxBaseCallback@physx@@UAEPAXI@Z 1002ad10 f i NpSerializerAdapter.obj
 0001:00029d10       ??_GPxProcessPxBaseCallback@physx@@UAEPAXI@Z 1002ad10 f i NpSerializerAdapter.obj
 0001:00029d10       ??_GGuMeshFactoryListener@physx@@MAEPAXI@Z 1002ad10 f i NpPhysics.obj
 0001:00029d10       ??_GMeshDeletionListener@NpPhysics@physx@@UAEPAXI@Z 1002ad10 f i NpPhysics.obj
 0001:00029d40       ??_ENpPhysics@physx@@EAEPAXI@Z 1002ad40 f i NpPhysics.obj
 0001:00029d40       ??_GNpPhysics@physx@@EAEPAXI@Z 1002ad40 f i NpPhysics.obj
 0001:00029d80       ??_GPxPhysicsInsertionCallback@physx@@MAEPAXI@Z 1002ad80 f i NpPhysics.obj
 0001:00029d80       ??_ENpPhysicsInsertionCallback@physx@@UAEPAXI@Z 1002ad80 f i NpPhysics.obj
 0001:00029d80       ??_GSqBoundsSync@Sc@physx@@UAEPAXI@Z 1002ad80 f i SceneQuery_static_32:SqSceneQueryManager.obj
 0001:00029d80       ??_GSqRefFinder@@UAEPAXI@Z 1002ad80 f i NpScene.obj
 0001:00029d80       ??_ESqBoundsSync@Sc@physx@@UAEPAXI@Z 1002ad80 f i SceneQuery_static_32:SqSceneQueryManager.obj
 0001:00029d80       ??_ESqRefFinder@@UAEPAXI@Z 1002ad80 f i NpScene.obj
 0001:00029d80       ??_EPrunerCallback@Sq@physx@@UAEPAXI@Z 1002ad80 f i NpSceneQueries.obj
 0001:00029d80       ??_EPxPhysicsInsertionCallback@physx@@MAEPAXI@Z 1002ad80 f i NpPhysics.obj
 0001:00029d80       ??_GSqRefFinder@Sc@physx@@UAEPAXI@Z 1002ad80 f i NpScene.obj
 0001:00029d80       ??_GNpPhysicsInsertionCallback@physx@@UAEPAXI@Z 1002ad80 f i NpPhysics.obj
 0001:00029d80       ??_GPrunerCallback@Sq@physx@@UAEPAXI@Z 1002ad80 f i NpSceneQueries.obj
 0001:00029d80       ??_ESqRefFinder@Sc@physx@@UAEPAXI@Z 1002ad80 f i NpScene.obj
 0001:00029db0       ??_GPxPhysics@physx@@UAEPAXI@Z 1002adb0 f i NpPhysics.obj
 0001:00029db0       ??_EPxPhysics@physx@@UAEPAXI@Z 1002adb0 f i NpPhysics.obj
 0001:00029de0       ?addMaterial@NpPhysics@physx@@QAEPAVNpMaterial@2@PAV32@@Z 1002ade0 f   NpPhysics.obj
 0001:00029f40       ?allocate@?$ReflectionAllocator@I@shdfnd@physx@@QAEPAXIPBDH@Z 1002af40 f i NpPhysics.obj
 0001:00029fc0       ?buildObjectFromData@NpPhysicsInsertionCallback@physx@@UAEPAVPxBase@2@W4Enum@PxConcreteType@2@PAX@Z 1002afc0 f i NpPhysics.obj
 0001:0002a050       ?create@?$HashBase@V?$Pair@QAVPxDeletionListener@physx@@PAUNpDelListenerEntry@NpPhysics@2@@shdfnd@physx@@PAVPxDeletionListener@3@U?$Hash@PAVPxDeletionListener@physx@@@23@UGetKey@?$HashMapBase@PAVPxDeletionListener@physx@@PAUNpDelListenerEntry@NpPhysics@2@U?$Hash@PAVPxDeletionListener@physx@@@shdfnd@2@VNonTrackingAllocator@62@@internal@23@VNonTrackingAllocator@23@$00@internal@shdfnd@physx@@QAEPAV?$Pair@QAVPxDeletionListener@physx@@PAUNpDelListenerEntry@NpPhysics@2@@34@ABQAVPxDeletionListener@4@AA_N@Z 1002b050 f i NpPhysics.obj
 0001:0002a160       ?createAggregate@NpPhysics@physx@@UAEPAVPxAggregate@2@I_N@Z 1002b160 f   NpPhysics.obj
 0001:0002a170       ?createArticulation@NpPhysics@physx@@UAEPAVPxArticulation@2@XZ 1002b170 f   NpPhysics.obj
 0001:0002a180       ?createArticulationReducedCoordinate@NpPhysics@physx@@UAEPAVPxArticulationReducedCoordinate@2@XZ 1002b180 f   NpPhysics.obj
 0001:0002a190       ?createBVHStructure@NpPhysics@physx@@UAEPAVPxBVHStructure@2@AAVPxInputStream@2@@Z 1002b190 f   NpPhysics.obj
 0001:0002a1a0       ?createConstraint@NpPhysics@physx@@UAEPAVPxConstraint@2@PAVPxRigidActor@2@0AAVPxConstraintConnector@2@ABUPxConstraintShaderTable@2@I@Z 1002b1a0 f   NpPhysics.obj
 0001:0002a1b0       ?createConvexMesh@NpPhysics@physx@@UAEPAVPxConvexMesh@2@AAVPxInputStream@2@@Z 1002b1b0 f   NpPhysics.obj
 0001:0002a1c0       ?createHeightField@NpPhysics@physx@@UAEPAVPxHeightField@2@AAVPxInputStream@2@@Z 1002b1c0 f   NpPhysics.obj
 0001:0002a1d0       ?createInstance@NpPhysics@physx@@SAPAV12@IAAVPxFoundation@2@ABVPxTolerancesScale@2@_NPAVPsPvd@pvdsdk@2@@Z 1002b1d0 f   NpPhysics.obj
 0001:0002a4a0       ?createMaterial@NpPhysics@physx@@UAEPAVPxMaterial@2@MMM@Z 1002b4a0 f   NpPhysics.obj
 0001:0002a4e0       ?createPruningStructure@NpPhysics@physx@@UAEPAVPxPruningStructure@2@PBQAVPxRigidActor@2@I@Z 1002b4e0 f   NpPhysics.obj
 0001:0002a590       ?createRigidDynamic@NpPhysics@physx@@UAEPAVPxRigidDynamic@2@ABVPxTransform@2@@Z 1002b590 f   NpPhysics.obj
 0001:0002a650       ?createRigidStatic@NpPhysics@physx@@UAEPAVPxRigidStatic@2@ABVPxTransform@2@@Z 1002b650 f   NpPhysics.obj
 0001:0002a710       ?createScene@NpPhysics@physx@@UAEPAVPxScene@2@ABVPxSceneDesc@2@@Z 1002b710 f   NpPhysics.obj
 0001:0002a890       ?createShape@NpPhysics@physx@@UAEPAVPxShape@2@ABVPxGeometry@2@PBQAVPxMaterial@2@G_NV?$PxFlags@W4Enum@PxShapeFlag@physx@@E@2@@Z 1002b890 f   NpPhysics.obj
 0001:0002a8c0       ?createTriangleMesh@NpPhysics@physx@@UAEPAVPxTriangleMesh@2@AAVPxInputStream@2@@Z 1002b8c0 f   NpPhysics.obj
 0001:0002a8d0       ?erase@?$HashBase@V?$Pair@QAVPxDeletionListener@physx@@PAUNpDelListenerEntry@NpPhysics@2@@shdfnd@physx@@PAVPxDeletionListener@3@U?$Hash@PAVPxDeletionListener@physx@@@23@UGetKey@?$HashMapBase@PAVPxDeletionListener@physx@@PAUNpDelListenerEntry@NpPhysics@2@U?$Hash@PAVPxDeletionListener@physx@@@shdfnd@2@VNonTrackingAllocator@62@@internal@23@VNonTrackingAllocator@23@$00@internal@shdfnd@physx@@QAE_NABQAVPxDeletionListener@4@@Z 1002b8d0 f i NpPhysics.obj
 0001:0002a8d0       ?erase@?$HashBase@V?$Pair@$$CBII@shdfnd@physx@@IU?$Hash@I@23@UGetKey@?$HashMapBase@IIU?$Hash@I@shdfnd@physx@@VNonTrackingAllocator@23@@internal@23@VNonTrackingAllocator@23@$00@internal@shdfnd@physx@@QAE_NABI@Z 1002b8d0 f i SceneQuery_static_32:SqCompoundPruner.obj
 0001:0002a9d0       ?find@?$HashMapBase@PAVPxDeletionListener@physx@@PAUNpDelListenerEntry@NpPhysics@2@U?$Hash@PAVPxDeletionListener@physx@@@shdfnd@2@VNonTrackingAllocator@62@@internal@shdfnd@physx@@QBEPBV?$Pair@QAVPxDeletionListener@physx@@PAUNpDelListenerEntry@NpPhysics@2@@34@ABQAVPxDeletionListener@4@@Z 1002b9d0 f i NpPhysics.obj
 0001:0002a9d0       ?find@?$HashMapBase@IPAVIncrementalAABBTreeNode@Sq@physx@@U?$Hash@I@shdfnd@3@VNonTrackingAllocator@53@@internal@shdfnd@physx@@QBEPBV?$Pair@$$CBIPAVIncrementalAABBTreeNode@Sq@physx@@@34@ABI@Z 1002b9d0 f i SceneQuery_static_32:SqIncrementalAABBPrunerCore.obj
 0001:0002a9d0       ?find@?$HashMapBase@IIU?$Hash@I@shdfnd@physx@@VNonTrackingAllocator@23@@internal@shdfnd@physx@@QBEPBV?$Pair@$$CBII@34@ABI@Z 1002b9d0 f i SceneQuery_static_32:SqCompoundPruner.obj
 0001:0002aa50       ?getBVHStructures@NpPhysics@physx@@UBEIPAPAVPxBVHStructure@2@II@Z 1002ba50 f   NpPhysics.obj
 0001:0002aa60       ?getConvexMeshes@NpPhysics@physx@@UBEIPAPAVPxConvexMesh@2@II@Z 1002ba60 f   NpPhysics.obj
 0001:0002aa70       ?getFoundation@NpPhysics@physx@@UAEAAVPxFoundation@2@XZ 1002ba70 f   NpPhysics.obj
 0001:0002aa80       ?getHeightFields@NpPhysics@physx@@UBEIPAPAVPxHeightField@2@II@Z 1002ba80 f   NpPhysics.obj
 0001:0002aa90       ?getMaterials@NpPhysics@physx@@UBEIPAPAVPxMaterial@2@II@Z 1002ba90 f   NpPhysics.obj
 0001:0002ab00       ?getNbBVHStructures@NpPhysics@physx@@UBEIXZ 1002bb00 f   NpPhysics.obj
 0001:0002ab10       ?getNbConvexMeshes@NpPhysics@physx@@UBEIXZ 1002bb10 f   NpPhysics.obj
 0001:0002ab20       ?getNbHeightFields@NpPhysics@physx@@UBEIXZ 1002bb20 f   NpPhysics.obj
 0001:0002ab30       ?getNbMaterials@NpPhysics@physx@@UBEIXZ 1002bb30 f   NpPhysics.obj
 0001:0002ab50       ?getNbScenes@NpPhysics@physx@@UBEIXZ 1002bb50 f   NpPhysics.obj
 0001:0002ab70       ?getNbShapes@NpPhysics@physx@@UBEIXZ 1002bb70 f   NpPhysics.obj
 0001:0002ab80       ?getNbTriangleMeshes@NpPhysics@physx@@UBEIXZ 1002bb80 f   NpPhysics.obj
 0001:0002ab90       ?getPhysicsInsertionCallback@NpPhysics@physx@@UAEAAVPxPhysicsInsertionCallback@2@XZ 1002bb90 f i NpPhysics.obj
 0001:0002aba0       ?getScenes@NpPhysics@physx@@UBEIPAPAVPxScene@2@II@Z 1002bba0 f   NpPhysics.obj
 0001:0002ac00       ?getShapes@NpPhysics@physx@@UBEIPAPAVPxShape@2@II@Z 1002bc00 f   NpPhysics.obj
 0001:0002ac10       ?getTolerancesScale@NpPhysics@physx@@UBEABVPxTolerancesScale@2@XZ 1002bc10 f   NpPhysics.obj
 0001:0002ac20       ?getTriangleMeshes@NpPhysics@physx@@UBEIPAPAVPxTriangleMesh@2@II@Z 1002bc20 f   NpPhysics.obj
 0001:0002ac30       ?growAndPushBack@?$Array@IV?$ReflectionAllocator@I@shdfnd@physx@@@shdfnd@physx@@IAEAAIABI@Z 1002bc30 f i NpPhysics.obj
 0001:0002acd0       ?growAndPushBack@?$Array@PAVNpScene@physx@@V?$ReflectionAllocator@PAVNpScene@physx@@@shdfnd@2@@shdfnd@physx@@IAEAAPAVNpScene@3@ABQAV43@@Z 1002bcd0 f i NpPhysics.obj
 0001:0002adb0       ?notifyDeletionListeners@NpPhysics@physx@@QAEXPBVPxBase@2@PAXW4Enum@PxDeletionEventFlag@2@@Z 1002bdb0 f   NpPhysics.obj
 0001:0002aeb0       ?onGuMeshFactoryBufferRelease@MeshDeletionListener@NpPhysics@physx@@UAEXPBVPxBase@3@G@Z 1002beb0 f i NpPhysics.obj
 0001:0002aed0       ?registerDeletionListener@NpPhysics@physx@@UAEXAAVPxDeletionListener@2@ABV?$PxFlags@W4Enum@PxDeletionEventFlag@physx@@E@2@_N@Z 1002bed0 f   NpPhysics.obj
 0001:0002b010       ?registerDeletionListenerObjects@NpPhysics@physx@@UAEXAAVPxDeletionListener@2@PBQBVPxBase@2@I@Z 1002c010 f   NpPhysics.obj
 0001:0002b090       ?release@NpPhysics@physx@@UAEXXZ 1002c090 f   NpPhysics.obj
 0001:0002b0c0       ?releaseSceneInternal@NpPhysics@physx@@QAEXAAVPxScene@2@@Z 1002c0c0 f   NpPhysics.obj
 0001:0002b120       ?removeMaterialFromTable@NpPhysics@physx@@QAEXAAVNpMaterial@2@@Z 1002c120 f   NpPhysics.obj
 0001:0002b1d0       ?reserveInternal@?$HashBase@V?$Pair@QAVPxDeletionListener@physx@@PAUNpDelListenerEntry@NpPhysics@2@@shdfnd@physx@@PAVPxDeletionListener@3@U?$Hash@PAVPxDeletionListener@physx@@@23@UGetKey@?$HashMapBase@PAVPxDeletionListener@physx@@PAUNpDelListenerEntry@NpPhysics@2@U?$Hash@PAVPxDeletionListener@physx@@@shdfnd@2@VNonTrackingAllocator@62@@internal@23@VNonTrackingAllocator@23@$00@internal@shdfnd@physx@@AAEXI@Z 1002c1d0 f i NpPhysics.obj
 0001:0002b360       ?unregisterDeletionListener@NpPhysics@physx@@UAEXAAVPxDeletionListener@2@@Z 1002c360 f   NpPhysics.obj
 0001:0002b3e0       ?unregisterDeletionListenerObjects@NpPhysics@physx@@UAEXAAVPxDeletionListener@2@PBQBVPxBase@2@I@Z 1002c3e0 f   NpPhysics.obj
 0001:0002b4e0       ?updateMaterial@NpPhysics@physx@@QAEXAAVNpMaterial@2@@Z 1002c4e0 f   NpPhysics.obj
 0001:0002b530       _PxAddCollectionToPhysics  1002c530 f   NpPhysics.obj
 0001:0002b540       _PxCreateBasePhysics       1002c540 f   NpPhysics.obj
 0001:0002b550       _PxGetPhysics              1002c550 f   NpPhysics.obj
 0001:0002b550       ?getPhysics@NpScene@physx@@UAEAAVPxPhysics@2@XZ 1002c550 f   NpScene.obj
 0001:0002b560       _PxRegisterArticulations   1002c560 f   NpPhysics.obj
 0001:0002b570       _PxRegisterArticulationsReducedCoordinate 1002c570 f   NpPhysics.obj
 0001:0002b580       _PxRegisterHeightFields    1002c580 f   NpPhysics.obj
 0001:0002b590       ??0NpRigidDynamic@physx@@QAE@ABVPxTransform@1@@Z 1002c590 f   NpRigidDynamic.obj
 0001:0002b6c0       ??_E?$NpActorTemplate@VPxRigidDynamic@physx@@@physx@@UAEPAXI@Z 1002c6c0 f i NpRigidDynamic.obj
 0001:0002b6c0       ??_G?$NpActorTemplate@VPxRigidDynamic@physx@@@physx@@UAEPAXI@Z 1002c6c0 f i NpRigidDynamic.obj
 0001:0002b710       ??_G?$NpRigidActorTemplate@VPxRigidDynamic@physx@@@physx@@UAEPAXI@Z 1002c710 f i NpRigidDynamic.obj
 0001:0002b710       ??_E?$NpRigidActorTemplate@VPxRigidDynamic@physx@@@physx@@UAEPAXI@Z 1002c710 f i NpRigidDynamic.obj
 0001:0002b770       ??_GNpRigidDynamic@physx@@UAEPAXI@Z 1002c770 f i NpRigidDynamic.obj
 0001:0002b770       ??_E?$NpRigidBodyTemplate@VPxRigidDynamic@physx@@@physx@@UAEPAXI@Z 1002c770 f i NpRigidDynamic.obj
 0001:0002b770       ??_G?$NpRigidBodyTemplate@VPxRigidDynamic@physx@@@physx@@UAEPAXI@Z 1002c770 f i NpRigidDynamic.obj
 0001:0002b770       ??_ENpRigidDynamic@physx@@UAEPAXI@Z 1002c770 f i NpRigidDynamic.obj
 0001:0002b7e0       ?NpRigidDynamicGetShapes@physx@@YAIAAVBody@Scb@1@AAPBQAXPA_N@Z 1002c7e0 f   NpRigidDynamic.obj
 0001:0002b820       ?addForce@NpRigidDynamic@physx@@UAEXABVPxVec3@2@W4Enum@PxForceMode@2@_N@Z 1002c820 f   NpRigidDynamic.obj
 0001:0002b8d0       ?addTorque@NpRigidDynamic@physx@@UAEXABVPxVec3@2@W4Enum@PxForceMode@2@_N@Z 1002c8d0 f   NpRigidDynamic.obj
 0001:0002b980       ?clearForce@NpRigidDynamic@physx@@UAEXW4Enum@PxForceMode@2@@Z 1002c980 f   NpRigidDynamic.obj
 0001:0002b990       ?clearTorque@NpRigidDynamic@physx@@UAEXW4Enum@PxForceMode@2@@Z 1002c990 f   NpRigidDynamic.obj
 0001:0002b9a0       ?createObject@NpRigidDynamic@physx@@SAPAV12@AAPAEAAVPxDeserializationContext@2@@Z 1002c9a0 f   NpRigidDynamic.obj
 0001:0002ba70       ?getConcreteTypeName@PxRigidDynamic@physx@@UBEPBDXZ 1002ca70 f i NpRigidDynamic.obj
 0001:0002ba80       ?getContactReportThreshold@NpRigidDynamic@physx@@UBEMXZ 1002ca80 f   NpRigidDynamic.obj
 0001:0002bac0       ?getGlobalPose@NpRigidDynamic@physx@@UBE?AVPxTransform@2@XZ 1002cac0 f i NpRigidDynamic.obj
 0001:0002be70       ?getKinematicTarget@NpRigidDynamic@physx@@UBE_NAAVPxTransform@2@@Z 1002ce70 f   NpRigidDynamic.obj
 0001:0002c230       ?getRigidDynamicLockFlags@NpRigidDynamic@physx@@UBE?AV?$PxFlags@W4Enum@PxRigidDynamicLockFlag@physx@@E@2@XZ 1002d230 f   NpRigidDynamic.obj
 0001:0002c260       ?getSleepThreshold@NpRigidDynamic@physx@@UBEMXZ 1002d260 f   NpRigidDynamic.obj
 0001:0002c290       ?getSolverIterationCounts@NpRigidDynamic@physx@@UBEXAAI0@Z 1002d290 f   NpRigidDynamic.obj
 0001:0002c2d0       ?getStabilizationThreshold@NpRigidDynamic@physx@@UBEMXZ 1002d2d0 f   NpRigidDynamic.obj
 0001:0002c310       ?getType@BroadPhaseMBP@Bp@physx@@UBE?AW4Enum@PxBroadPhaseType@3@XZ 1002d310 f i LowLevelAABB_static_32:BpBroadPhaseMBP.obj
 0001:0002c310       ?getType@NpRigidDynamic@physx@@UBE?AW4Enum@PxActorType@2@XZ 1002d310 f i NpRigidDynamic.obj
 0001:0002c320       ?getWakeCounter@NpRigidDynamic@physx@@UBEMXZ 1002d320 f   NpRigidDynamic.obj
 0001:0002c330       ?isKindOf@PxRigidDynamic@physx@@MBE_NPBD@Z 1002d330 f i NpRigidDynamic.obj
 0001:0002c440       ?isSleeping@NpRigidDynamic@physx@@UBE_NXZ 1002d440 f   NpRigidDynamic.obj
 0001:0002c450       ?preExportDataReset@NpRigidDynamic@physx@@QAEXXZ 1002d450 f   NpRigidDynamic.obj
 0001:0002c4d0       ?putToSleep@NpRigidDynamic@physx@@UAEXXZ 1002d4d0 f   NpRigidDynamic.obj
 0001:0002c4e0       ?release@NpRigidDynamic@physx@@UAEXXZ 1002d4e0 f   NpRigidDynamic.obj
 0001:0002c590       ?setActorFlag@?$NpRigidActorTemplate@VPxRigidDynamic@physx@@@physx@@UAEXW4Enum@PxActorFlag@2@_N@Z 1002d590 f i NpRigidDynamic.obj
 0001:0002c700       ?setActorFlags@?$NpRigidActorTemplate@VPxRigidDynamic@physx@@@physx@@UAEXV?$PxFlags@W4Enum@PxActorFlag@physx@@E@2@@Z 1002d700 f i NpRigidDynamic.obj
 0001:0002c800       ?setAngularVelocity@NpRigidDynamic@physx@@UAEXABVPxVec3@2@_N@Z 1002d800 f   NpRigidDynamic.obj
 0001:0002c870       ?setCMassLocalPose@NpRigidDynamic@physx@@UAEXABVPxTransform@2@@Z 1002d870 f   NpRigidDynamic.obj
 0001:0002d050       ?setContactReportThreshold@NpRigidDynamic@physx@@UAEXM@Z 1002e050 f   NpRigidDynamic.obj
 0001:0002d0d0       ?setForceAndTorque@NpRigidDynamic@physx@@UAEXABVPxVec3@2@0W4Enum@PxForceMode@2@@Z 1002e0d0 f   NpRigidDynamic.obj
 0001:0002d140       ?setGlobalPose@NpRigidDynamic@physx@@UAEXABVPxTransform@2@_N@Z 1002e140 f   NpRigidDynamic.obj
 0001:0002d4e0       ?setKinematicTarget@Body@Scb@physx@@QAEXABVPxTransform@3@@Z 1002e4e0 f i NpRigidDynamic.obj
 0001:0002d5d0       ?setKinematicTarget@NpRigidDynamic@physx@@UAEXABVPxTransform@2@@Z 1002e5d0 f   NpRigidDynamic.obj
 0001:0002d8c0       ?setLinearVelocity@NpRigidDynamic@physx@@UAEXABVPxVec3@2@_N@Z 1002e8c0 f   NpRigidDynamic.obj
 0001:0002d930       ?setLockFlags@Body@Scb@physx@@QAEXV?$PxFlags@W4Enum@PxRigidDynamicLockFlag@physx@@E@3@@Z 1002e930 f i NpRigidDynamic.obj
 0001:0002d9b0       ?setRigidDynamicLockFlag@NpRigidDynamic@physx@@UAEXW4Enum@PxRigidDynamicLockFlag@2@_N@Z 1002e9b0 f   NpRigidDynamic.obj
 0001:0002da10       ?setRigidDynamicLockFlags@NpRigidDynamic@physx@@UAEXV?$PxFlags@W4Enum@PxRigidDynamicLockFlag@physx@@E@2@@Z 1002ea10 f   NpRigidDynamic.obj
 0001:0002da30       ?setSleepThreshold@NpRigidDynamic@physx@@UAEXM@Z 1002ea30 f   NpRigidDynamic.obj
 0001:0002daa0       ?setSolverIterationCounts@NpRigidDynamic@physx@@UAEXII@Z 1002eaa0 f   NpRigidDynamic.obj
 0001:0002db20       ?setStabilizationThreshold@NpRigidDynamic@physx@@UAEXM@Z 1002eb20 f   NpRigidDynamic.obj
 0001:0002dba0       ?setWakeCounter@NpRigidDynamic@physx@@UAEXM@Z 1002eba0 f   NpRigidDynamic.obj
 0001:0002dc30       ?switchFromNoSim@NpRigidDynamic@physx@@UAEXXZ 1002ec30 f   NpRigidDynamic.obj
 0001:0002dc50       ?switchToNoSim@NpRigidDynamic@physx@@UAEXXZ 1002ec50 f   NpRigidDynamic.obj
 0001:0002dd60       ?visualize@NpRigidDynamic@physx@@QAEXAAVRenderOutput@Cm@2@PAVNpScene@2@@Z 1002ed60 f   NpRigidDynamic.obj
 0001:0002dfd0       ?wakeUp@NpRigidDynamic@physx@@UAEXXZ 1002efd0 f   NpRigidDynamic.obj
 0001:0002dff0       ?wakeUpInternalNoKinematicTest@NpRigidDynamic@physx@@QAEXAAVBody@Scb@2@_N1@Z 1002eff0 f   NpRigidDynamic.obj
 0001:0002e060       ??0NpRigidStatic@physx@@QAE@ABVPxTransform@1@@Z 1002f060 f   NpRigidStatic.obj
 0001:0002e110       ??_E?$NpActorTemplate@VPxRigidStatic@physx@@@physx@@UAEPAXI@Z 1002f110 f i NpRigidStatic.obj
 0001:0002e110       ??_G?$NpActorTemplate@VPxRigidStatic@physx@@@physx@@UAEPAXI@Z 1002f110 f i NpRigidStatic.obj
 0001:0002e160       ??_G?$NpRigidActorTemplate@VPxRigidStatic@physx@@@physx@@UAEPAXI@Z 1002f160 f i NpRigidStatic.obj
 0001:0002e160       ??_E?$NpRigidActorTemplate@VPxRigidStatic@physx@@@physx@@UAEPAXI@Z 1002f160 f i NpRigidStatic.obj
 0001:0002e1c0       ??_GNpRigidStatic@physx@@UAEPAXI@Z 1002f1c0 f i NpRigidStatic.obj
 0001:0002e1c0       ??_ENpRigidStatic@physx@@UAEPAXI@Z 1002f1c0 f i NpRigidStatic.obj
 0001:0002e230       ?NpRigidStaticGetShapes@physx@@YAIAAVRigidStatic@Scb@1@AAPBQAX@Z 1002f230 f   NpRigidStatic.obj
 0001:0002e270       ?createObject@NpRigidStatic@physx@@SAPAV12@AAPAEAAVPxDeserializationContext@2@@Z 1002f270 f   NpRigidStatic.obj
 0001:0002e320       ?getConcreteTypeName@PxRigidStatic@physx@@UBEPBDXZ 1002f320 f i NpRigidStatic.obj
 0001:0002e330       ?getGlobalPose@NpRigidStatic@physx@@UBE?AVPxTransform@2@XZ 1002f330 f   NpRigidStatic.obj
 0001:0002e380       ?getShapeSims@SimulationController@Sc@physx@@UAEPAPAUPxsShapeSim@3@XZ 1002f380 f i SimulationController_static_32:ScSimulationController.obj
 0001:0002e380       ?getBroadPhasePairs@BroadPhaseMBP@Bp@physx@@UBEPAUBroadPhasePair@23@XZ 1002f380 f i LowLevelAABB_static_32:BpBroadPhaseMBP.obj
 0001:0002e380       ?getFrozenShapes@SimulationController@Sc@physx@@UAEPAIXZ 1002f380 f i SimulationController_static_32:ScSimulationController.obj
 0001:0002e380       ?getNbOutOfBoundsObjects@BroadPhaseBase@Bp@physx@@UBEIXZ 1002f380 f i LowLevelAABB_static_32:BpBroadPhaseSap.obj
 0001:0002e380       ?getType@BroadPhaseSap@Bp@physx@@UBE?AW4Enum@PxBroadPhaseType@3@XZ 1002f380 f i LowLevelAABB_static_32:BpBroadPhaseSap.obj
 0001:0002e380       ?getNbBodies@SimulationController@Sc@physx@@UAEIXZ 1002f380 f i SimulationController_static_32:ScSimulationController.obj
 0001:0002e380       ?getDofs@ArticulationV@Dy@physx@@UAEIXZ 1002f380 f i LowLevelDynamics_static_32:DyArticulation.obj
 0001:0002e380       ?getBroadPhasePairs@BroadPhaseABP@Bp@physx@@UBEPAUBroadPhasePair@23@XZ 1002f380 f i LowLevelAABB_static_32:BpBroadPhaseABP.obj
 0001:0002e380       ?getRigidBodies@SimulationController@Sc@physx@@UAEPAPAXXZ 1002f380 f i SimulationController_static_32:ScSimulationController.obj
 0001:0002e380       ?getGPUContactManagerOutputBase@PxsNphaseImplementationContext@physx@@UAEPAUPxsContactManagerOutput@2@XZ 1002f380 f i LowLevel_static_32:PxsNphaseImplementationContext.obj
 0001:0002e380       ?getNbShapes@SimulationController@Sc@physx@@UAEIXZ 1002f380 f i SimulationController_static_32:ScSimulationController.obj
 0001:0002e380       ?getNbFrozenShapes@SimulationController@Sc@physx@@UAEIXZ 1002f380 f i SimulationController_static_32:ScSimulationController.obj
 0001:0002e380       ?getNbUnfrozenShapes@SimulationController@Sc@physx@@UAEIXZ 1002f380 f i SimulationController_static_32:ScSimulationController.obj
 0001:0002e380       ?getUnfrozenShapes@SimulationController@Sc@physx@@UAEPAIXZ 1002f380 f i SimulationController_static_32:ScSimulationController.obj
 0001:0002e380       ?getDeactiveBodies@SimulationController@Sc@physx@@UAEPAIXZ 1002f380 f i SimulationController_static_32:ScSimulationController.obj
 0001:0002e380       ?getScenePvdClient@NpScene@physx@@UAEPAVPxPvdSceneClient@2@XZ 1002f380 f i NpScene.obj
 0001:0002e380       ?getOutOfBoundsObjects@BroadPhaseBase@Bp@physx@@UBEPBIXZ 1002f380 f i LowLevelAABB_static_32:BpBroadPhaseSap.obj
 0001:0002e380       ?getActiveBodies@SimulationController@Sc@physx@@UAEPAIXZ 1002f380 f i SimulationController_static_32:ScSimulationController.obj
 0001:0002e380       ?getNbRegions@BroadPhaseBase@Bp@physx@@UBEIXZ 1002f380 f i LowLevelAABB_static_32:BpBroadPhaseSap.obj
 0001:0002e380       ?getType@NpRigidStatic@physx@@UBE?AW4Enum@PxActorType@2@XZ 1002f380 f i NpRigidStatic.obj
 0001:0002e390       ?isKindOf@PxRigidStatic@physx@@MBE_NPBD@Z 1002f390 f i NpRigidStatic.obj
 0001:0002e3f0       ?release@NpRigidStatic@physx@@UAEXXZ 1002f3f0 f   NpRigidStatic.obj
 0001:0002e4a0       ?setActorFlag@?$NpRigidActorTemplate@VPxRigidStatic@physx@@@physx@@UAEXW4Enum@PxActorFlag@2@_N@Z 1002f4a0 f i NpRigidStatic.obj
 0001:0002e610       ?setActorFlags@?$NpRigidActorTemplate@VPxRigidStatic@physx@@@physx@@UAEXV?$PxFlags@W4Enum@PxActorFlag@physx@@E@2@@Z 1002f610 f i NpRigidStatic.obj
 0001:0002e700       ?setGlobalPose@NpRigidStatic@physx@@UAEXABVPxTransform@2@_N@Z 1002f700 f   NpRigidStatic.obj
 0001:0002e8f0       ?switchFromNoSim@NpRigidStatic@physx@@UAEXXZ 1002f8f0 f   NpRigidStatic.obj
 0001:0002e910       ?switchToNoSim@NpRigidStatic@physx@@UAEXXZ 1002f910 f   NpRigidStatic.obj
 0001:0002e930       ?visualize@NpRigidStatic@physx@@QAEXAAVRenderOutput@Cm@2@PAVNpScene@2@@Z 1002f930 f   NpRigidStatic.obj
 0001:0002ea50       ??$sort@PAXU?$Less@PAX@shdfnd@physx@@V?$ReflectionAllocator@U?$Block@E$0BAA@@Scene@Sc@physx@@@23@@shdfnd@physx@@YAXPAPAXIABU?$Less@PAX@01@ABV?$ReflectionAllocator@U?$Block@E$0BAA@@Scene@Sc@physx@@@01@I@Z 1002fa50 f i NpScene.obj
 0001:0002edf0       ??$sort@PAXU?$Less@PAX@shdfnd@physx@@V?$ReflectionAllocator@U?$Block@E$0BIA@@Scene@Sc@physx@@@23@@shdfnd@physx@@YAXPAPAXIABU?$Less@PAX@01@ABV?$ReflectionAllocator@U?$Block@E$0BIA@@Scene@Sc@physx@@@01@I@Z 1002fdf0 f i NpScene.obj
 0001:0002f190       ??$sort@PAXU?$Less@PAX@shdfnd@physx@@V?$ReflectionAllocator@U?$Block@E$0IA@@Scene@Sc@physx@@@23@@shdfnd@physx@@YAXPAPAXIABU?$Less@PAX@01@ABV?$ReflectionAllocator@U?$Block@E$0IA@@Scene@Sc@physx@@@01@I@Z 10030190 f i NpScene.obj
 0001:0002f530       ??$sort@PAXU?$Less@PAX@shdfnd@physx@@V?$ReflectionAllocator@U?$Block@PAX$07@Scene@Sc@physx@@@23@@shdfnd@physx@@YAXPAPAXIABU?$Less@PAX@01@ABV?$ReflectionAllocator@U?$Block@PAX$07@Scene@Sc@physx@@@01@I@Z 10030530 f i NpScene.obj
 0001:0002f8d0       ??$sort@PAXU?$Less@PAX@shdfnd@physx@@V?$ReflectionAllocator@U?$Block@PAX$0BA@@Scene@Sc@physx@@@23@@shdfnd@physx@@YAXPAPAXIABU?$Less@PAX@01@ABV?$ReflectionAllocator@U?$Block@PAX$0BA@@Scene@Sc@physx@@@01@I@Z 100308d0 f i NpScene.obj
 0001:0002fc70       ??$sort@PAXU?$Less@PAX@shdfnd@physx@@V?$ReflectionAllocator@U?$Block@PAX$0CA@@Scene@Sc@physx@@@23@@shdfnd@physx@@YAXPAPAXIABU?$Less@PAX@01@ABV?$ReflectionAllocator@U?$Block@PAX$0CA@@Scene@Sc@physx@@@01@I@Z 10030c70 f i NpScene.obj
 0001:00030010       ??0?$SyncT@V?$ReflectionAllocator@VSyncImpl@shdfnd@physx@@@shdfnd@physx@@@shdfnd@physx@@QAE@ABV?$ReflectionAllocator@VSyncImpl@shdfnd@physx@@@12@@Z 10031010 f i NpScene.obj
 0001:00030090       ??0NpScene@physx@@QAE@ABVPxSceneDesc@1@@Z 10031090 f   NpScene.obj
 0001:000305f0       ??1?$PoolBase@U?$Block@E$0BAA@@Scene@Sc@physx@@V?$ReflectionAllocator@U?$Block@E$0BAA@@Scene@Sc@physx@@@shdfnd@4@@shdfnd@physx@@QAE@XZ 100315f0 f i NpScene.obj
 0001:000307a0       ??1?$PoolBase@U?$Block@E$0BIA@@Scene@Sc@physx@@V?$ReflectionAllocator@U?$Block@E$0BIA@@Scene@Sc@physx@@@shdfnd@4@@shdfnd@physx@@QAE@XZ 100317a0 f i NpScene.obj
 0001:00030950       ??1?$PoolBase@U?$Block@E$0IA@@Scene@Sc@physx@@V?$ReflectionAllocator@U?$Block@E$0IA@@Scene@Sc@physx@@@shdfnd@4@@shdfnd@physx@@QAE@XZ 10031950 f i NpScene.obj
 0001:00030b00       ??1?$PoolBase@U?$Block@PAX$07@Scene@Sc@physx@@V?$ReflectionAllocator@U?$Block@PAX$07@Scene@Sc@physx@@@shdfnd@4@@shdfnd@physx@@QAE@XZ 10031b00 f i NpScene.obj
 0001:00030cb0       ??1?$PoolBase@U?$Block@PAX$0BA@@Scene@Sc@physx@@V?$ReflectionAllocator@U?$Block@PAX$0BA@@Scene@Sc@physx@@@shdfnd@4@@shdfnd@physx@@QAE@XZ 10031cb0 f i NpScene.obj
 0001:00030e60       ??1?$PoolBase@U?$Block@PAX$0CA@@Scene@Sc@physx@@V?$ReflectionAllocator@U?$Block@PAX$0CA@@Scene@Sc@physx@@@shdfnd@4@@shdfnd@physx@@QAE@XZ 10031e60 f i NpScene.obj
 0001:00031010       ??1FanoutTask@Cm@physx@@UAE@XZ 10032010 f i NpScene.obj
 0001:000310a0       ??1FlushPool@Cm@physx@@QAE@XZ 100320a0 f i NpScene.obj
 0001:00031110       ??1NpScene@physx@@UAE@XZ   10032110 f   NpScene.obj
 0001:00031630       ??1RenderBuffer@Cm@physx@@UAE@XZ 10032630 f i NpScene.obj
 0001:000316f0       ??1Scene@Sc@physx@@QAE@XZ  100326f0 f i NpScene.obj
 0001:00032140       ??1Scene@Scb@physx@@QAE@XZ 10033140 f i NpScene.obj
 0001:000322c0       ??_G?$DelegateTask@VNpScene@physx@@$H?executeScene@12@QAEXPAVPxBaseTask@2@@ZA@@Cm@physx@@UAEPAXI@Z 100332c0 f i NpScene.obj
 0001:000322c0       ??_E?$DelegateTask@VNpScene@physx@@$H?executeScene@12@QAEXPAVPxBaseTask@2@@ZA@@Cm@physx@@UAEPAXI@Z 100332c0 f i NpScene.obj
 0001:000322c0       ??_E?$DelegateTask@VNpScene@physx@@$H?executeCollide@12@QAEXPAVPxBaseTask@2@@ZA@@Cm@physx@@UAEPAXI@Z 100332c0 f i NpScene.obj
 0001:000322c0       ??_E?$DelegateTask@VNpSceneQueries@physx@@$1?sceneQueriesDynamicPrunerUpdate@12@QAEXPAVPxBaseTask@2@@Z@Cm@physx@@UAEPAXI@Z 100332c0 f i NpScene.obj
 0001:000322c0       ??_E?$DelegateTask@VNpScene@physx@@$H?executeAdvance@12@QAEXPAVPxBaseTask@2@@ZA@@Cm@physx@@UAEPAXI@Z 100332c0 f i NpScene.obj
 0001:000322c0       ??_G?$DelegateTask@VNpScene@physx@@$H?executeCollide@12@QAEXPAVPxBaseTask@2@@ZA@@Cm@physx@@UAEPAXI@Z 100332c0 f i NpScene.obj
 0001:000322c0       ??_G?$DelegateTask@VNpSceneQueries@physx@@$1?sceneQueriesStaticPrunerUpdate@12@QAEXPAVPxBaseTask@2@@Z@Cm@physx@@UAEPAXI@Z 100332c0 f i NpScene.obj
 0001:000322c0       ??_G?$DelegateTask@VNpSceneQueries@physx@@$1?sceneQueriesDynamicPrunerUpdate@12@QAEXPAVPxBaseTask@2@@Z@Cm@physx@@UAEPAXI@Z 100332c0 f i NpScene.obj
 0001:000322c0       ??_G?$DelegateTask@VNpScene@physx@@$H?executeAdvance@12@QAEXPAVPxBaseTask@2@@ZA@@Cm@physx@@UAEPAXI@Z 100332c0 f i NpScene.obj
 0001:000322c0       ??_E?$DelegateTask@VNpSceneQueries@physx@@$1?sceneQueriesStaticPrunerUpdate@12@QAEXPAVPxBaseTask@2@@Z@Cm@physx@@UAEPAXI@Z 100332c0 f i NpScene.obj
 0001:00032300       ??_ESetStepperTask@Dy@physx@@UAEPAXI@Z 10033300 f i LowLevelDynamics_static_32:DyTGSDynamics.obj
 0001:00032300       ??_GNpContactCallbackTask@physx@@UAEPAXI@Z 10033300 f i NpScene.obj
 0001:00032300       ??_EScKinematicUpdateTask@@UAEPAXI@Z 10033300 f i SimulationController_static_32:ScScene.obj
 0001:00032300       ??_ESpeculativeCCDContactDistanceArticulationUpdateTask@@UAEPAXI@Z 10033300 f i SimulationController_static_32:ScScene.obj
 0001:00032300       ??_GKinematicCopyTask@Dy@physx@@UAEPAXI@Z 10033300 f i LowLevelDynamics_static_32:DyDynamics.obj
 0001:00032300       ??_ENpContactCallbackTask@physx@@UAEPAXI@Z 10033300 f i NpScene.obj
 0001:00032300       ??_EPxsParallelSolverTask@Dy@physx@@UAEPAXI@Z 10033300 f i LowLevelDynamics_static_32:DyDynamics.obj
 0001:00032300       ??_EUpdateContinuationTask@Dy@physx@@UAEPAXI@Z 10033300 f i LowLevelDynamics_static_32:DyDynamics.obj
 0001:00032300       ??_GUpdateCCDBoundsTask@@UAEPAXI@Z 10033300 f i SimulationController_static_32:ScScene.obj
 0001:00032300       ??_GScKinematicUpdateTask@@UAEPAXI@Z 10033300 f i SimulationController_static_32:ScScene.obj
 0001:00032300       ??_GSpeculativeCCDContactDistanceArticulationUpdateTask@@UAEPAXI@Z 10033300 f i SimulationController_static_32:ScScene.obj
 0001:00032300       ??_EScKinematicAddDynamicTask@@UAEPAXI@Z 10033300 f i SimulationController_static_32:ScScene.obj
 0001:00032300       ??_EUpdateContinuationTGSTask@Dy@physx@@UAEPAXI@Z 10033300 f i LowLevelDynamics_static_32:DyTGSDynamics.obj
 0001:00032300       ??_EConstraintProjectionTask@@UAEPAXI@Z 10033300 f i SimulationController_static_32:ScScene.obj
 0001:00032300       ??_GScKinematicAddDynamicTask@@UAEPAXI@Z 10033300 f i SimulationController_static_32:ScScene.obj
 0001:00032300       ??_EPxsCCDSweepTask@physx@@UAEPAXI@Z 10033300 f i LowLevel_static_32:PxsCCD.obj
 0001:00032300       ??_GUpdateArticulationTask@@UAEPAXI@Z 10033300 f i SimulationController_static_32:ScScene.obj
 0001:00032300       ??_GConstraintProjectionTask@@UAEPAXI@Z 10033300 f i SimulationController_static_32:ScScene.obj
 0001:00032300       ??_GPxsParallelSolverTask@Dy@physx@@UAEPAXI@Z 10033300 f i LowLevelDynamics_static_32:DyDynamics.obj
 0001:00032300       ??_EScKinematicShapeUpdateTask@@UAEPAXI@Z 10033300 f i SimulationController_static_32:ScScene.obj
 0001:00032300       ??_GSetStepperTask@Dy@physx@@UAEPAXI@Z 10033300 f i LowLevelDynamics_static_32:DyTGSDynamics.obj
 0001:00032300       ??_EKinematicCopyTask@Dy@physx@@UAEPAXI@Z 10033300 f i LowLevelDynamics_static_32:DyDynamics.obj
 0001:00032300       ??_GScKinematicShapeUpdateTask@@UAEPAXI@Z 10033300 f i SimulationController_static_32:ScScene.obj
 0001:00032300       ??_EUpdateArticulationTask@@UAEPAXI@Z 10033300 f i SimulationController_static_32:ScScene.obj
 0001:00032300       ??_GUpdateContinuationTask@Dy@physx@@UAEPAXI@Z 10033300 f i LowLevelDynamics_static_32:DyDynamics.obj
 0001:00032300       ??_GUpdateContinuationTGSTask@Dy@physx@@UAEPAXI@Z 10033300 f i LowLevelDynamics_static_32:DyTGSDynamics.obj
 0001:00032300       ??_GPxsCCDSweepTask@physx@@UAEPAXI@Z 10033300 f i LowLevel_static_32:PxsCCD.obj
 0001:00032300       ??_EUpdateCCDBoundsTask@@UAEPAXI@Z 10033300 f i SimulationController_static_32:ScScene.obj
 0001:00032330       ??_GNpScene@physx@@UAEPAXI@Z 10033330 f i NpScene.obj
 0001:00032330       ??_ENpScene@physx@@UAEPAXI@Z 10033330 f i NpScene.obj
 0001:00032370       ??_GNpSceneQueries@physx@@UAEPAXI@Z 10033370 f i NpScene.obj
 0001:00032370       ??_ENpSceneQueries@physx@@UAEPAXI@Z 10033370 f i NpScene.obj
 0001:000323e0       ??_EPxBaseTask@physx@@UAEPAXI@Z 100333e0 f i NpScene.obj
 0001:000323e0       ??_GPxBaseTask@physx@@UAEPAXI@Z 100333e0 f i NpScene.obj
 0001:00032410       ??_EPxLightCpuTask@physx@@UAEPAXI@Z 10033410 f i NpScene.obj
 0001:00032410       ??_GPxLightCpuTask@physx@@UAEPAXI@Z 10033410 f i NpScene.obj
 0001:00032440       ??_EPxRenderBuffer@physx@@UAEPAXI@Z 10033440 f i NpScene.obj
 0001:00032440       ??_GPxRenderBuffer@physx@@UAEPAXI@Z 10033440 f i NpScene.obj
 0001:00032470       ??_GPxScene@physx@@MAEPAXI@Z 10033470 f i NpScene.obj
 0001:00032470       ??_EPxScene@physx@@MAEPAXI@Z 10033470 f i NpScene.obj
 0001:000324a0       ??_GRenderBuffer@Cm@physx@@UAEPAXI@Z 100334a0 f i NpScene.obj
 0001:000324a0       ??_ERenderBuffer@Cm@physx@@UAEPAXI@Z 100334a0 f i NpScene.obj
 0001:000324e0       ??_GScKinematicPoseUpdateTask@@UAEPAXI@Z 100334e0 f i SimulationController_static_32:ScScene.obj
 0001:000324e0       ??_ESapPostUpdateWorkTask@Bp@physx@@UAEPAXI@Z 100334e0 f i LowLevelAABB_static_32:BpBroadPhaseSap.obj
 0001:000324e0       ??_GEndIslandTask@Dy@physx@@UAEPAXI@Z 100334e0 f i LowLevelDynamics_static_32:DyTGSDynamics.obj
 0001:000324e0       ??_ESapUpdateWorkTask@Bp@physx@@UAEPAXI@Z 100334e0 f i LowLevelAABB_static_32:BpBroadPhaseSap.obj
 0001:000324e0       ??_GPostBroadPhaseStage2Task@Bp@physx@@UAEPAXI@Z 100334e0 f i LowLevelAABB_static_32:BpAABBManager.obj
 0001:000324e0       ??_EPostBroadPhaseStage2Task@Bp@physx@@UAEPAXI@Z 100334e0 f i LowLevelAABB_static_32:BpAABBManager.obj
 0001:000324e0       ??_ESortAggregateBoundsParallel@Bp@physx@@UAEPAXI@Z 100334e0 f i LowLevelAABB_static_32:BpAABBManager.obj
 0001:000324e0       ??_GSapPostUpdateWorkTask@Bp@physx@@UAEPAXI@Z 100334e0 f i LowLevelAABB_static_32:BpBroadPhaseSap.obj
 0001:000324e0       ??_EThirdPassTask@IG@physx@@UAEPAXI@Z 100334e0 f i LowLevel_static_32:PxsSimpleIslandManager.obj
 0001:000324e0       ??_GPxsForceThresholdTask@Dy@physx@@UAEPAXI@Z 100334e0 f i LowLevelDynamics_static_32:DyDynamics.obj
 0001:000324e0       ??_GSortAggregateBoundsParallel@Bp@physx@@UAEPAXI@Z 100334e0 f i LowLevelAABB_static_32:BpAABBManager.obj
 0001:000324e0       ??_GThirdPassTask@IG@physx@@UAEPAXI@Z 100334e0 f i LowLevel_static_32:PxsSimpleIslandManager.obj
 0001:000324e0       ??_EEndIslandTask@Dy@physx@@UAEPAXI@Z 100334e0 f i LowLevelDynamics_static_32:DyTGSDynamics.obj
 0001:000324e0       ??_GPostThirdPassTask@IG@physx@@UAEPAXI@Z 100334e0 f i LowLevel_static_32:PxsSimpleIslandManager.obj
 0001:000324e0       ??_GSceneCompletion@NpScene@physx@@UAEPAXI@Z 100334e0 f i NpScene.obj
 0001:000324e0       ??_ESceneCompletion@NpScene@physx@@UAEPAXI@Z 100334e0 f i NpScene.obj
 0001:000324e0       ??_EScKinematicPoseUpdateTask@@UAEPAXI@Z 100334e0 f i SimulationController_static_32:ScScene.obj
 0001:000324e0       ??_GDynamicsMergeTask@Dy@physx@@UAEPAXI@Z 100334e0 f i LowLevelDynamics_static_32:DyTGSDynamics.obj
 0001:000324e0       ??_EUpdatProjectedPoseTask@@UAEPAXI@Z 100334e0 f i SimulationController_static_32:ScScene.obj
 0001:000324e0       ??_GUpdatProjectedPoseTask@@UAEPAXI@Z 100334e0 f i SimulationController_static_32:ScScene.obj
 0001:000324e0       ??_EDynamicsMergeTask@Dy@physx@@UAEPAXI@Z 100334e0 f i LowLevelDynamics_static_32:DyTGSDynamics.obj
 0001:000324e0       ??_EPxsForceThresholdTask@Dy@physx@@UAEPAXI@Z 100334e0 f i LowLevelDynamics_static_32:DyDynamics.obj
 0001:000324e0       ??_EPostThirdPassTask@IG@physx@@UAEPAXI@Z 100334e0 f i LowLevel_static_32:PxsSimpleIslandManager.obj
 0001:000324e0       ??_GSapUpdateWorkTask@Bp@physx@@UAEPAXI@Z 100334e0 f i LowLevelAABB_static_32:BpBroadPhaseSap.obj
 0001:00032510       ?addActor@NpScene@physx@@UAEXAAVPxActor@2@PBVPxBVHStructure@2@@Z 10033510 f   NpScene.obj
 0001:000326e0       ?addActorInternal@NpScene@physx@@QAEXAAVPxActor@2@PBVPxBVHStructure@2@@Z 100336e0 f   NpScene.obj
 0001:000327b0       ?addActors@NpScene@physx@@UAEXABVPxPruningStructure@2@@Z 100337b0 f   NpScene.obj
 0001:000327f0       ?addActors@NpScene@physx@@UAEXPBQAVPxActor@2@I@Z 100337f0 f   NpScene.obj
 0001:00032810       ?addActorsInternal@NpScene@physx@@QAEXPIBQAVPxActor@2@IPBVPruningStructure@Sq@2@@Z 10033810 f   NpScene.obj
 0001:00032d00       ?addAggregate@NpScene@physx@@UAEXAAVPxAggregate@2@@Z 10033d00 f   NpScene.obj
 0001:00032ea0       ?addArticulation@NpScene@physx@@UAEXAAVPxArticulationBase@2@@Z 10033ea0 f   NpScene.obj
 0001:00032f80       ?addArticulationInternal@NpScene@physx@@QAEXAAVPxArticulationBase@2@@Z 10033f80 f   NpScene.obj
 0001:00033470       ?addArticulationLink@NpScene@physx@@QAEXAAVNpArticulationLink@2@@Z 10034470 f   NpScene.obj
 0001:00033500       ?addBroadPhaseRegion@NpScene@physx@@UAEIABUPxBroadPhaseRegion@2@_N@Z 10034500 f   NpScene.obj
 0001:00033540       ?addCollection@NpScene@physx@@UAEXABVPxCollection@2@@Z 10034540 f   NpScene.obj
 0001:000336e0       ?addMaterial@NpScene@physx@@QAEXABVNpMaterial@2@@Z 100346e0 f   NpScene.obj
 0001:000336f0       ?addReference@PxLightCpuTask@physx@@UAEXXZ 100346f0 f i NpScene.obj
 0001:00033700       ?addRigidDynamic@NpScene@physx@@AAEXAAVNpRigidDynamic@2@PBVBVHStructure@Gu@2@_N@Z 10034700 f   NpScene.obj
 0001:000337f0       ?addRigidStatic@NpScene@physx@@AAEXAAVNpRigidStatic@2@PBVBVHStructure@Gu@2@_N@Z 100347f0 f   NpScene.obj
 0001:000338e0       ?advance@NpScene@physx@@UAEXPAVPxBaseTask@2@@Z 100348e0 f   NpScene.obj
 0001:00033980       ?allocate@?$Array@PAVPxRigidActor@physx@@V?$ReflectionAllocator@PAVPxRigidActor@physx@@@shdfnd@2@@shdfnd@physx@@IAEPAPAVPxRigidActor@3@I@Z 10034980 f i NpScene.obj
 0001:000339f0       ?allocate@?$Array@UPxDebugPoint@physx@@V?$ReflectionAllocator@UPxDebugPoint@physx@@@shdfnd@2@@shdfnd@physx@@IAEPAUPxDebugPoint@3@I@Z 100349f0 f i NpScene.obj
 0001:00033a60       ?allocate@?$Array@UPxDebugText@physx@@V?$ReflectionAllocator@UPxDebugText@physx@@@shdfnd@2@@shdfnd@physx@@IAEPAUPxDebugText@3@I@Z 10034a60 f i NpScene.obj
 0001:00033ad0       ?allocate@?$Array@UPxDebugTriangle@physx@@V?$ReflectionAllocator@UPxDebugTriangle@physx@@@shdfnd@2@@shdfnd@physx@@IAEPAUPxDebugTriangle@3@I@Z 10034ad0 f i NpScene.obj
 0001:00033b40       ?allocate@?$Array@VPxBounds3@physx@@V?$InlineAllocator@$0MA@V?$ReflectionAllocator@VPxBounds3@physx@@@shdfnd@physx@@@shdfnd@2@@shdfnd@physx@@IAEPAVPxBounds3@3@I@Z 10034b40 f i NpScene.obj
 0001:00033be0       ?allocate@?$ReflectionAllocator@G@shdfnd@physx@@QAEPAXIPBDH@Z 10034be0 f i NpScene.obj
 0001:00033c40       ?allocate@?$ReflectionAllocator@PAVShape@Scb@physx@@@shdfnd@physx@@QAEPAXIPBDH@Z 10034c40 f i NpScene.obj
 0001:00033ca0       ?allocate@?$ReflectionAllocator@U?$Block@E$0BAA@@Scene@Sc@physx@@@shdfnd@physx@@QAEPAXIPBDH@Z 10034ca0 f i NpScene.obj
 0001:00033d00       ?allocate@?$ReflectionAllocator@U?$Block@E$0BIA@@Scene@Sc@physx@@@shdfnd@physx@@QAEPAXIPBDH@Z 10034d00 f i NpScene.obj
 0001:00033d60       ?allocate@?$ReflectionAllocator@U?$Block@E$0IA@@Scene@Sc@physx@@@shdfnd@physx@@QAEPAXIPBDH@Z 10034d60 f i NpScene.obj
 0001:00033dc0       ?allocate@?$ReflectionAllocator@U?$Block@PAX$07@Scene@Sc@physx@@@shdfnd@physx@@QAEPAXIPBDH@Z 10034dc0 f i NpScene.obj
 0001:00033e20       ?allocate@?$ReflectionAllocator@U?$Block@PAX$0BA@@Scene@Sc@physx@@@shdfnd@physx@@QAEPAXIPBDH@Z 10034e20 f i NpScene.obj
 0001:00033e80       ?allocate@?$ReflectionAllocator@U?$Block@PAX$0CA@@Scene@Sc@physx@@@shdfnd@physx@@QAEPAXIPBDH@Z 10034e80 f i NpScene.obj
 0001:00033ee0       ?append@RenderBuffer@Cm@physx@@UAEXABVPxRenderBuffer@3@@Z 10034ee0 f i NpScene.obj
 0001:00034260       ?checkCollision@NpScene@physx@@UAE_N_N@Z 10035260 f   NpScene.obj
 0001:00034280       ?checkQueries@NpScene@physx@@UAE_N_N@Z 10035280 f   NpScene.obj
 0001:000342a0       ?checkResults@NpScene@physx@@UAE_N_N@Z 100352a0 f   NpScene.obj
 0001:000342c0       ?clear@RenderBuffer@Cm@physx@@UAEXXZ 100352c0 f i NpScene.obj
 0001:000342f0       ?collide@NpScene@physx@@UAEXMPAVPxBaseTask@2@PAXI_N@Z 100352f0 f   NpScene.obj
 0001:00034320       ?copy@?$Array@UPxDebugPoint@physx@@V?$ReflectionAllocator@UPxDebugPoint@physx@@@shdfnd@2@@shdfnd@physx@@KAXPAUPxDebugPoint@3@0PBU43@@Z 10035320 f i NpScene.obj
 0001:00034370       ?copy@?$Array@UPxDebugText@physx@@V?$ReflectionAllocator@UPxDebugText@physx@@@shdfnd@2@@shdfnd@physx@@KAXPAUPxDebugText@3@0PBU43@@Z 10035370 f i NpScene.obj
 0001:000343d0       ?copy@?$Array@UPxDebugTriangle@physx@@V?$ReflectionAllocator@UPxDebugTriangle@physx@@@shdfnd@2@@shdfnd@physx@@KAXPAUPxDebugTriangle@3@0PBU43@@Z 100353d0 f i NpScene.obj
 0001:00034450       ?createBatchQuery@NpScene@physx@@UAEPAVPxBatchQuery@2@ABVPxBatchQueryDesc@2@@Z 10035450 f   NpScene.obj
 0001:000344f0       ?createClient@NpScene@physx@@UAEEXZ 100354f0 f   NpScene.obj
 0001:00034520       ?fetchCollision@NpScene@physx@@UAE_N_N@Z 10035520 f   NpScene.obj
 0001:00034580       ?fetchQueries@NpScene@physx@@UAE_N_N@Z 10035580 f   NpScene.obj
 0001:00034620       ?fetchResults@NpScene@physx@@UAE_N_NPAI@Z 10035620 f   NpScene.obj
 0001:000346c0       ?fetchResultsFinish@NpScene@physx@@UAEXPAI@Z 100356c0 f   NpScene.obj
 0001:00034710       ?fetchResultsPostContactCallbacks@NpScene@physx@@AAEXXZ 10035710 f   NpScene.obj
 0001:00034800       ?fetchResultsPreContactCallbacks@NpScene@physx@@AAEXXZ 10035800 f   NpScene.obj
 0001:000348d0       ?fetchResultsStart@NpScene@physx@@UAE_NAAPBUPxContactPairHeader@2@AAI_N@Z 100358d0 f   NpScene.obj
 0001:00034970       ?find@SqRefFinder@@UAEIPBVPxRigidBody@physx@@PBVPxShape@3@@Z 10035970 f i NpScene.obj
 0001:00034990       ?flush@NpScene@physx@@UAEX_N@Z 10035990 f i NpScene.obj
 0001:000349a0       ?flushQueryUpdates@NpScene@physx@@UAEXXZ 100359a0 f   NpScene.obj
 0001:000349e0       ?flushSimulation@NpScene@physx@@UAEX_N@Z 100359e0 f   NpScene.obj
 0001:00034af0       ?forceDynamicTreeRebuild@NpScene@physx@@UAEX_N0@Z 10035af0 f   NpScene.obj
 0001:00034b30       ?forceSceneQueryRebuild@NpScene@physx@@UAEXXZ 10035b30 f   NpScene.obj
 0001:00034b70       ?getActiveActors@NpScene@physx@@UAEPAPAVPxActor@2@AAI@Z 10035b70 f   NpScene.obj
 0001:00034bb0       ?getActors@NpScene@physx@@UBEIV?$PxFlags@W4Enum@PxActorTypeFlag@physx@@G@2@PAPAVPxActor@2@II@Z 10035bb0 f   NpScene.obj
 0001:00034c60       ?getAggregates@NpScene@physx@@UBEIPAPAVPxAggregate@2@II@Z 10035c60 f   NpScene.obj
 0001:00034cb0       ?getArticulations@NpScene@physx@@UBEIPAPAVPxArticulationBase@2@II@Z 10035cb0 f   NpScene.obj
 0001:00034d00       ?getBounceThresholdVelocity@NpScene@physx@@UBEMXZ 10035d00 f   NpScene.obj
 0001:00034d30       ?getBroadPhaseCallback@NpScene@physx@@UBEPAVPxBroadPhaseCallback@2@XZ 10035d30 f   NpScene.obj
 0001:00034d40       ?getBroadPhaseCaps@NpScene@physx@@UBE_NAAUPxBroadPhaseCaps@2@@Z 10035d40 f   NpScene.obj
 0001:00034d50       ?getBroadPhaseRegions@NpScene@physx@@UBEIPAUPxBroadPhaseRegionInfo@2@II@Z 10035d50 f   NpScene.obj
 0001:00034d60       ?getBroadPhaseType@NpScene@physx@@UBE?AW4Enum@PxBroadPhaseType@2@XZ 10035d60 f   NpScene.obj
 0001:00034d70       ?getCCDContactModifyCallback@NpScene@physx@@UBEPAVPxCCDContactModifyCallback@2@XZ 10035d70 f   NpScene.obj
 0001:00034d80       ?getCCDMaxPasses@NpScene@physx@@UBEIXZ 10035d80 f   NpScene.obj
 0001:00034d90       ?getConstraints@NpScene@physx@@UBEIPAPAVPxConstraint@2@II@Z 10035d90 f   NpScene.obj
 0001:00034de0       ?getContactModifyCallback@NpScene@physx@@UBEPAVPxContactModifyCallback@2@XZ 10035de0 f   NpScene.obj
 0001:00034df0       ?getContactReportStreamBufferSize@NpScene@physx@@UBEIXZ 10035df0 f   NpScene.obj
 0001:00034e00       ?getCpuDispatcher@NpScene@physx@@UBEPAVPxCpuDispatcher@2@XZ 10035e00 f   NpScene.obj
 0001:00034e10       ?getCudaContextManager@NpScene@physx@@UBEPAVPxCudaContextManager@2@XZ 10035e10 f i NpScene.obj
 0001:00034e10       ?getCudaContextManager@NpScene@physx@@UAEPAVPxCudaContextManager@2@XZ 10035e10 f i NpScene.obj
 0001:00034e20       ?getDominanceGroupPair@NpScene@physx@@UBE?AUPxDominanceGroupPair@2@EE@Z 10035e20 f   NpScene.obj
 0001:00034ed0       ?getDynamicStructure@NpScene@physx@@UBE?AW4Enum@PxPruningStructureType@2@XZ 10035ed0 f   NpScene.obj
 0001:00034ee0       ?getDynamicTreeRebuildRateHint@NpScene@physx@@UBEIXZ 10035ee0 f   NpScene.obj
 0001:00034ef0       ?getFilterCallback@NpScene@physx@@UBEPAVPxSimulationFilterCallback@2@XZ 10035ef0 f   NpScene.obj
 0001:00034f00       ?getFilterShader@NpScene@physx@@UBEP6A?AV?$PxFlags@W4Enum@PxFilterFlag@physx@@G@2@IUPxFilterData@2@I0AAV?$PxFlags@W4Enum@PxPairFlag@physx@@G@2@PBXI@ZXZ 10035f00 f   NpScene.obj
 0001:00034f10       ?getFilterShaderData@NpScene@physx@@UBEPBXXZ 10035f10 f   NpScene.obj
 0001:00034f20       ?getFilterShaderDataSize@NpScene@physx@@UBEIXZ 10035f20 f   NpScene.obj
 0001:00034f30       ?getFlags@NpScene@physx@@UBE?AV?$PxFlags@W4Enum@PxSceneFlag@physx@@I@2@XZ 10035f30 f   NpScene.obj
 0001:00034f60       ?getFrictionOffsetThreshold@NpScene@physx@@UBEMXZ 10035f60 f   NpScene.obj
 0001:00034f70       ?getFrictionType@NpScene@physx@@UBE?AW4Enum@PxFrictionType@2@XZ 10035f70 f   NpScene.obj
 0001:00034f80       ?getFrozenActors@NpScene@physx@@UAEPAPAVPxActor@2@AAI@Z 10035f80 f   NpScene.obj
 0001:00034fc0       ?getGravity@NpScene@physx@@UBE?AVPxVec3@2@XZ 10035fc0 f   NpScene.obj
 0001:00035020       ?getKinematicKinematicFilteringMode@NpScene@physx@@UBE?AW4Enum@PxPairFilteringMode@2@XZ 10036020 f   NpScene.obj
 0001:00035030       ?getLimits@NpScene@physx@@UBE?AVPxSceneLimits@2@XZ 10036030 f   NpScene.obj
 0001:00035050       ?getMaxNbContactDataBlocksUsed@NpScene@physx@@UBEIXZ 10036050 f   NpScene.obj
 0001:00035060       ?getName@NpContactCallbackTask@physx@@UBEPBDXZ 10036060 f i NpScene.obj
 0001:00035070       ?getName@SceneCompletion@NpScene@physx@@UBEPBDXZ 10036070 f i NpScene.obj
 0001:00035080       ?getNbActors@NpScene@physx@@UBEIV?$PxFlags@W4Enum@PxActorTypeFlag@physx@@G@2@@Z 10036080 f   NpScene.obj
 0001:00035110       ?getNbAggregates@NpScene@physx@@UBEIXZ 10036110 f   NpScene.obj
 0001:00035120       ?getNbArticulations@NpScene@physx@@UBEIXZ 10036120 f   NpScene.obj
 0001:00035130       ?getNbBroadPhaseRegions@NpScene@physx@@UBEIXZ 10036130 f   NpScene.obj
 0001:00035140       ?getNbConstraints@NpScene@physx@@UBEIXZ 10036140 f   NpScene.obj
 0001:00035150       ?getNbContactDataBlocksUsed@NpScene@physx@@UBEIXZ 10036150 f   NpScene.obj
 0001:00035160       ?getDeletedPairs@BroadPhaseABP@Bp@physx@@UAEPAUBroadPhasePair@23@XZ 10036160 f i LowLevelAABB_static_32:BpBroadPhaseABP.obj
 0001:00035160       ?getActor@NpShape@physx@@UBEPAVPxRigidActor@2@XZ 10036160 f i NpShape.obj
 0001:00035160       ?getNbLines@RenderBuffer@Cm@physx@@UBEIXZ 10036160 f i NpScene.obj
 0001:00035170       ?getNbTriangles@RenderBuffer@Cm@physx@@UBEIXZ 10036170 f i NpScene.obj
 0001:00035180       ?getRenderBuffer@NpScene@physx@@UAEABVPxRenderBuffer@2@XZ 10036180 f   NpScene.obj
 0001:000351c0       ?getSceneQueryStaticTimestamp@NpScene@physx@@UBEIXZ 100361c0 f   NpScene.obj
 0001:000351d0       ?getSceneQueryUpdateMode@NpScene@physx@@UBE?AW4Enum@PxSceneQueryUpdateMode@2@XZ 100361d0 f   NpScene.obj
 0001:000351e0       ?getSimulationController@NpScene@physx@@UAEPAVPxsSimulationController@2@XZ 100361e0 f   NpScene.obj
 0001:000351f0       ?getSimulationEventCallback@NpScene@physx@@UBEPAVPxSimulationEventCallback@2@XZ 100361f0 f   NpScene.obj
 0001:00035200       ?getSimulationStatistics@NpScene@physx@@UBEXAAVPxSimulationStatistics@2@@Z 10036200 f   NpScene.obj
 0001:00035240       ?getSolverArticulationBatchSize@NpScene@physx@@UBEIXZ 10036240 f   NpScene.obj
 0001:00035260       ?getSolverBatchSize@NpScene@physx@@UBEIXZ 10036260 f   NpScene.obj
 0001:00035280       ?getStaticKinematicFilteringMode@NpScene@physx@@UBE?AW4Enum@PxPairFilteringMode@2@XZ 10036280 f   NpScene.obj
 0001:00035290       ?getStaticStructure@NpScene@physx@@UBE?AW4Enum@PxPruningStructureType@2@XZ 10036290 f   NpScene.obj
 0001:000352a0       ?getTaskManager@NpScene@physx@@UBEPAVPxTaskManager@2@XZ 100362a0 f i NpScene.obj
 0001:000352a0       ?getTaskManager@NpScene@physx@@UAEPAVPxTaskManager@2@XZ 100362a0 f i NpScene.obj
 0001:000352b0       ?getTexts@RenderBuffer@Cm@physx@@UBEPBUPxDebugText@3@XZ 100362b0 f i NpScene.obj
 0001:000352b0       ?getNbRigidActors@PruningStructure@Sq@physx@@UBEIXZ 100362b0 f i SceneQuery_static_32:SqPruningStructure.obj
 0001:000352c0       ?getTimestamp@NpScene@physx@@UBEIXZ 100362c0 f   NpScene.obj
 0001:000352d0       ?getVisualizationCullingBox@NpScene@physx@@UBE?AVPxBounds3@2@XZ 100362d0 f   NpScene.obj
 0001:00035320       ?getVisualizationParameter@NpScene@physx@@UBEMW4Enum@PxVisualizationParameter@2@@Z 10036320 f   NpScene.obj
 0001:00035390       ?getWakeCounterResetValue@NpScene@physx@@UBEMXZ 10036390 f   NpScene.obj
 0001:000353a0       ?growAndPushBack@?$Array@PAEV?$ReflectionAllocator@PAE@shdfnd@physx@@@shdfnd@physx@@IAEAAPAEABQAE@Z 100363a0 f i NpScene.obj
 0001:00035480       ?growAndPushBack@?$Array@PAVNpBatchQuery@physx@@V?$ReflectionAllocator@PAVNpBatchQuery@physx@@@shdfnd@2@@shdfnd@physx@@IAEAAPAVNpBatchQuery@3@ABQAV43@@Z 10036480 f i NpScene.obj
 0001:00035560       ?growAndPushBack@?$Array@PAVPxRigidActor@physx@@V?$ReflectionAllocator@PAVPxRigidActor@physx@@@shdfnd@2@@shdfnd@physx@@IAEAAPAVPxRigidActor@3@ABQAV43@@Z 10036560 f i NpScene.obj
 0001:000355e0       ?growAndPushBack@?$Array@PAXV?$ReflectionAllocator@U?$Block@E$0BAA@@Scene@Sc@physx@@@shdfnd@physx@@@shdfnd@physx@@IAEAAPAXABQAX@Z 100365e0 f i NpScene.obj
 0001:00035680       ?growAndPushBack@?$Array@PAXV?$ReflectionAllocator@U?$Block@E$0BIA@@Scene@Sc@physx@@@shdfnd@physx@@@shdfnd@physx@@IAEAAPAXABQAX@Z 10036680 f i NpScene.obj
 0001:00035720       ?growAndPushBack@?$Array@PAXV?$ReflectionAllocator@U?$Block@E$0IA@@Scene@Sc@physx@@@shdfnd@physx@@@shdfnd@physx@@IAEAAPAXABQAX@Z 10036720 f i NpScene.obj
 0001:000357c0       ?growAndPushBack@?$Array@PAXV?$ReflectionAllocator@U?$Block@PAX$07@Scene@Sc@physx@@@shdfnd@physx@@@shdfnd@physx@@IAEAAPAXABQAX@Z 100367c0 f i NpScene.obj
 0001:00035860       ?growAndPushBack@?$Array@PAXV?$ReflectionAllocator@U?$Block@PAX$0BA@@Scene@Sc@physx@@@shdfnd@physx@@@shdfnd@physx@@IAEAAPAXABQAX@Z 10036860 f i NpScene.obj
 0001:00035900       ?growAndPushBack@?$Array@PAXV?$ReflectionAllocator@U?$Block@PAX$0CA@@Scene@Sc@physx@@@shdfnd@physx@@@shdfnd@physx@@IAEAAPAXABQAX@Z 10036900 f i NpScene.obj
 0001:000359a0       ?growAndPushBack@?$Array@UPxDebugLine@physx@@V?$ReflectionAllocator@UPxDebugLine@physx@@@shdfnd@2@@shdfnd@physx@@IAEAAUPxDebugLine@3@ABU43@@Z 100369a0 f i NpScene.obj
 0001:00035a50       ?growAndPushBack@?$Array@UPxDebugPoint@physx@@V?$ReflectionAllocator@UPxDebugPoint@physx@@@shdfnd@2@@shdfnd@physx@@IAEAAUPxDebugPoint@3@ABU43@@Z 10036a50 f i NpScene.obj
 0001:00035ae0       ?growAndPushBack@?$Array@UPxDebugText@physx@@V?$ReflectionAllocator@UPxDebugText@physx@@@shdfnd@2@@shdfnd@physx@@IAEAAUPxDebugText@3@ABU43@@Z 10036ae0 f i NpScene.obj
 0001:00035b80       ?growAndPushBack@?$Array@UPxDebugTriangle@physx@@V?$ReflectionAllocator@UPxDebugTriangle@physx@@@shdfnd@2@@shdfnd@physx@@IAEAAUPxDebugTriangle@3@ABU43@@Z 10036b80 f i NpScene.obj
 0001:00035c50       ?isAddedShape@RigidObject@Scb@physx@@QAE_NAAVShape@23@@Z 10036c50 f i NpScene.obj
 0001:00035cc0       ?loadFromDesc@NpScene@physx@@QAE_NABVPxSceneDesc@2@@Z 10036cc0 f   NpScene.obj
 0001:00035d20       ?lockRead@NpScene@physx@@UAEXPBDI@Z 10036d20 f   NpScene.obj
 0001:00035da0       ?lockWrite@NpScene@physx@@UAEXPBDI@Z 10036da0 f   NpScene.obj
 0001:00035e70       ?processCallbacks@NpScene@physx@@UAEXPAVPxBaseTask@2@@Z 10036e70 f   NpScene.obj
 0001:00036050       ?recreate@?$Array@GV?$ReflectionAllocator@G@shdfnd@physx@@@shdfnd@physx@@IAEXI@Z 10037050 f i NpScene.obj
 0001:000360c0       ?recreate@?$Array@PAVActor@Scb@physx@@V?$ReflectionAllocator@PAVActor@Scb@physx@@@shdfnd@3@@shdfnd@physx@@IAEXI@Z 100370c0 f i NpScene.obj
 0001:00036170       ?recreate@?$Array@PAVPxRigidActor@physx@@V?$ReflectionAllocator@PAVPxRigidActor@physx@@@shdfnd@2@@shdfnd@physx@@IAEXI@Z 10037170 f i NpScene.obj
 0001:000361d0       ?recreate@?$Array@PAVShape@Scb@physx@@V?$ReflectionAllocator@PAVShape@Scb@physx@@@shdfnd@3@@shdfnd@physx@@IAEXI@Z 100371d0 f i NpScene.obj
 0001:00036250       ?recreate@?$Array@UPxDebugPoint@physx@@V?$ReflectionAllocator@UPxDebugPoint@physx@@@shdfnd@2@@shdfnd@physx@@IAEXI@Z 10037250 f i NpScene.obj
 0001:000362b0       ?recreate@?$Array@UPxDebugText@physx@@V?$ReflectionAllocator@UPxDebugText@physx@@@shdfnd@2@@shdfnd@physx@@IAEXI@Z 100372b0 f i NpScene.obj
 0001:00036310       ?recreate@?$Array@UPxDebugTriangle@physx@@V?$ReflectionAllocator@UPxDebugTriangle@physx@@@shdfnd@2@@shdfnd@physx@@IAEXI@Z 10037310 f i NpScene.obj
 0001:00036370       ?recreate@?$Array@VPxBounds3@physx@@V?$InlineAllocator@$0MA@V?$ReflectionAllocator@VPxBounds3@physx@@@shdfnd@physx@@@shdfnd@2@@shdfnd@physx@@IAEXI@Z 10037370 f i NpScene.obj
 0001:00036450       ?release@NpScene@physx@@UAEXXZ 10037450 f   NpScene.obj
 0001:00036500       ?release@PxLightCpuTask@physx@@UAEXXZ 10037500 f i NpScene.obj
 0001:00036510       ?release@SceneCompletion@NpScene@physx@@UAEXXZ 10037510 f i NpScene.obj
 0001:00036530       ?releaseBatchQuery@NpScene@physx@@QAEXPAVPxBatchQuery@2@@Z 10037530 f   NpScene.obj
 0001:00036590       ?removeActor@NpScene@physx@@UAEXAAVPxActor@2@_N@Z 10037590 f   NpScene.obj
 0001:000365e0       ?removeActorInternal@NpScene@physx@@QAEXAAVPxActor@2@_N1@Z 100375e0 f   NpScene.obj
 0001:000367b0       ?removeActors@NpScene@physx@@UAEXPBQAVPxActor@2@I_N@Z 100377b0 f   NpScene.obj
 0001:00036c60       ?removeAggregate@NpScene@physx@@UAEXAAVPxAggregate@2@_N@Z 10037c60 f   NpScene.obj
 0001:00036db0       ?removeArticulation@NpScene@physx@@UAEXAAVPxArticulationBase@2@_N@Z 10037db0 f   NpScene.obj
 0001:00036e00       ?removeArticulationInternal@NpScene@physx@@QAEXAAVPxArticulationBase@2@_N1@Z 10037e00 f   NpScene.obj
 0001:00037020       ?removeBroadPhaseRegion@NpScene@physx@@UAE_NI@Z 10038020 f   NpScene.obj
 0001:00037030       ?removeFromRigidActorList@NpScene@physx@@QAEXABI@Z 10038030 f   NpScene.obj
 0001:00037090       ?removeMaterial@NpScene@physx@@QAEXABVNpMaterial@2@@Z 10038090 f   NpScene.obj
 0001:000370a0       ?removeReference@PxLightCpuTask@physx@@UAEXXZ 100380a0 f i NpScene.obj
 0001:000370b0       ?resetFiltering@?$NpRigidActorTemplate@VPxArticulationLink@physx@@@physx@@QAE_NAAVRigidObject@Scb@2@PBQAVPxShape@2@I@Z 100380b0 f i NpScene.obj
 0001:000370b0       ?resetFiltering@?$NpRigidActorTemplate@VPxRigidStatic@physx@@@physx@@QAE_NAAVRigidObject@Scb@2@PBQAVPxShape@2@I@Z 100380b0 f i NpScene.obj
 0001:000370b0       ?resetFiltering@?$NpRigidActorTemplate@VPxRigidDynamic@physx@@@physx@@QAE_NAAVRigidObject@Scb@2@PBQAVPxShape@2@I@Z 100380b0 f i NpScene.obj
 0001:000371f0       ?resetFiltering@NpScene@physx@@UAEXAAVPxActor@2@@Z 100381f0 f   NpScene.obj
 0001:000372b0       ?resetFiltering@NpScene@physx@@UAEXAAVPxRigidActor@2@PBQAVPxShape@2@I@Z 100382b0 f   NpScene.obj
 0001:000373d0       ?resetFiltering@RigidObject@Scb@physx@@QAEXPBQAVShape@23@I@Z 100383d0 f i NpScene.obj
 0001:000375e0       ?resize@?$Array@GV?$ReflectionAllocator@G@shdfnd@physx@@@shdfnd@physx@@QAEXIABG@Z 100385e0 f i NpScene.obj
 0001:000376a0       ?resize@?$Array@PAVActor@Scb@physx@@V?$ReflectionAllocator@PAVActor@Scb@physx@@@shdfnd@3@@shdfnd@physx@@QAEXIABQAVActor@Scb@3@@Z 100386a0 f i NpScene.obj
 0001:00037740       ?resize@?$Array@PAVShape@Scb@physx@@V?$ReflectionAllocator@PAVShape@Scb@physx@@@shdfnd@3@@shdfnd@physx@@QAEXIABQAVShape@Scb@3@@Z 10038740 f i NpScene.obj
 0001:000377e0       ?resizeUninitialized@?$Array@VPxBounds3@physx@@V?$InlineAllocator@$0MA@V?$ReflectionAllocator@VPxBounds3@physx@@@shdfnd@physx@@@shdfnd@2@@shdfnd@physx@@QAEXI@Z 100387e0 f i NpScene.obj
 0001:00037810       ?run@NpContactCallbackTask@physx@@UAEXXZ 10038810 f   NpScene.obj
 0001:00037870       ?run@BaseTask@Cm@physx@@UAEXXZ 10038870 f i SimulationController_static_32:ScScene.obj
 0001:00037870       ?run@Task@Cm@physx@@UAEXXZ 10038870 f i NpScene.obj
 0001:000378a0       ?runInternal@?$DelegateTask@VNpScene@physx@@$H?executeAdvance@12@QAEXPAVPxBaseTask@2@@ZA@@Cm@physx@@UAEXXZ 100388a0 f i NpScene.obj
 0001:000378c0       ?runInternal@?$DelegateTask@VNpScene@physx@@$H?executeCollide@12@QAEXPAVPxBaseTask@2@@ZA@@Cm@physx@@UAEXXZ 100388c0 f i NpScene.obj
 0001:000378e0       ?runInternal@?$DelegateTask@VNpScene@physx@@$H?executeScene@12@QAEXPAVPxBaseTask@2@@ZA@@Cm@physx@@UAEXXZ 100388e0 f i NpScene.obj
 0001:00037900       ?runInternal@?$DelegateTask@VNpSceneQueries@physx@@$1?sceneQueriesDynamicPrunerUpdate@12@QAEXPAVPxBaseTask@2@@Z@Cm@physx@@UAEXXZ 10038900 f i NpScene.obj
 0001:00037910       ?runInternal@?$DelegateTask@VNpSceneQueries@physx@@$1?sceneQueriesStaticPrunerUpdate@12@QAEXPAVPxBaseTask@2@@Z@Cm@physx@@UAEXXZ 10038910 f i NpScene.obj
 0001:00037920       ?sceneQueriesUpdate@NpScene@physx@@UAEXPAVPxBaseTask@2@_N@Z 10038920 f   NpScene.obj
 0001:00037aa0       ?setActiveActors@NpScene@physx@@UAEXPAPAVPxActor@2@I@Z 10038aa0 f   NpScene.obj
 0001:00037ab0       ?setBounceThresholdVelocity@NpScene@physx@@UAEXM@Z 10038ab0 f   NpScene.obj
 0001:00037af0       ?setBroadPhaseCallback@NpScene@physx@@UAEXPAVPxBroadPhaseCallback@2@@Z 10038af0 f   NpScene.obj
 0001:00037b30       ?setCCDContactModifyCallback@NpScene@physx@@UAEXPAVPxCCDContactModifyCallback@2@@Z 10038b30 f   NpScene.obj
 0001:00037b70       ?setCCDMaxPasses@NpScene@physx@@UAEXI@Z 10038b70 f   NpScene.obj
 0001:00037bb0       ?setContactModifyCallback@NpScene@physx@@UAEXPAVPxContactModifyCallback@2@@Z 10038bb0 f   NpScene.obj
 0001:00037bf0       ?setDominanceGroupPair@NpScene@physx@@UAEXEEABUPxDominanceGroupPair@2@@Z 10038bf0 f   NpScene.obj
 0001:00037cb0       ?setDynamicTreeRebuildRateHint@NpScene@physx@@UAEXI@Z 10038cb0 f   NpScene.obj
 0001:00037cc0       ?setFilterShaderData@NpScene@physx@@UAEXPBXI@Z 10038cc0 f   NpScene.obj
 0001:00037d00       ?setFlag@NpScene@physx@@UAEXW4Enum@PxSceneFlag@2@_N@Z 10038d00 f   NpScene.obj
 0001:00037d80       ?setFrictionType@NpScene@physx@@UAEXW4Enum@PxFrictionType@2@@Z 10038d80 f   NpScene.obj
 0001:00037d90       ?setFrozenActorFlag@NpScene@physx@@UAEX_N@Z 10038d90 f   NpScene.obj
 0001:00037da0       ?setGravity@NpScene@physx@@UAEXABVPxVec3@2@@Z 10038da0 f   NpScene.obj
 0001:00037e00       ?setLimits@NpScene@physx@@UAEXABVPxSceneLimits@2@@Z 10038e00 f   NpScene.obj
 0001:00037e70       ?setNbContactDataBlocks@NpScene@physx@@UAEXI@Z 10038e70 f   NpScene.obj
 0001:00037e80       ?setSceneQueryUpdateMode@NpScene@physx@@UAEXW4Enum@PxSceneQueryUpdateMode@2@@Z 10038e80 f   NpScene.obj
 0001:00037e90       ?setSimulationEventCallback@NpScene@physx@@UAEXPAVPxSimulationEventCallback@2@@Z 10038e90 f   NpScene.obj
 0001:00037ed0       ?setSolverArticulationBatchSize@NpScene@physx@@UAEXI@Z 10038ed0 f   NpScene.obj
 0001:00037f00       ?setSolverBatchSize@NpScene@physx@@UAEXI@Z 10038f00 f   NpScene.obj
 0001:00037f30       ?setVisualizationCullingBox@NpScene@physx@@UAEXABVPxBounds3@2@@Z 10038f30 f   NpScene.obj
 0001:00037f90       ?setVisualizationParameter@NpScene@physx@@UAE_NW4Enum@PxVisualizationParameter@2@M@Z 10038f90 f   NpScene.obj
 0001:00038020       ?shift@RenderBuffer@Cm@physx@@QAEXABVPxVec3@3@@Z 10039020 f i NpScene.obj
 0001:000381e0       ?shiftOrigin@NpScene@physx@@UAEXABVPxVec3@2@@Z 100391e0 f   NpScene.obj
 0001:00038640       ?simulate@NpScene@physx@@UAEXMPAVPxBaseTask@2@PAXI_N@Z 10039640 f   NpScene.obj
 0001:00038670       ?simulateOrCollide@NpScene@physx@@AAEXMPAVPxBaseTask@2@PAXI_NPBDW4Enum@SimulationStage@Sc@2@@Z 10039670 f   NpScene.obj
 0001:00038880       ?unlockRead@NpScene@physx@@UAEXXZ 10039880 f   NpScene.obj
 0001:00038910       ?unlockWrite@NpScene@physx@@UAEXXZ 10039910 f   NpScene.obj
 0001:000389b0       ?updateMaterial@NpScene@physx@@QAEXABVNpMaterial@2@@Z 100399b0 f   NpScene.obj
 0001:000389c0       ?updateScbStateAndSetupSq@NpScene@physx@@AAEXABVPxRigidActor@2@AAVActor@Scb@2@AAVNpShapeManager@2@_NPBVPxBounds3@2@3@Z 100399c0 f   NpScene.obj
 0001:00038aa0       ?visualize@NpScene@physx@@AAEXXZ 10039aa0 f   NpScene.obj
 0001:00038f60       ??$multiQuery@UPxOverlapHit@physx@@@NpSceneQueries@physx@@QBE_NABUMultiQueryInput@1@AAU?$PxHitCallback@UPxOverlapHit@physx@@@1@V?$PxFlags@W4Enum@PxHitFlag@physx@@G@1@PBUPxQueryCache@1@ABUPxQueryFilterData@1@PAVPxQueryFilterCallback@1@PAUBatchQueryFilterData@1@@Z 10039f60 f i NpSceneQueries.obj
 0001:00039210       ??$multiQuery@UPxRaycastHit@physx@@@NpSceneQueries@physx@@QBE_NABUMultiQueryInput@1@AAU?$PxHitCallback@UPxRaycastHit@physx@@@1@V?$PxFlags@W4Enum@PxHitFlag@physx@@G@1@PBUPxQueryCache@1@ABUPxQueryFilterData@1@PAVPxQueryFilterCallback@1@PAUBatchQueryFilterData@1@@Z 1003a210 f i NpSceneQueries.obj
 0001:00039490       ??$multiQuery@UPxSweepHit@physx@@@NpSceneQueries@physx@@QBE_NABUMultiQueryInput@1@AAU?$PxHitCallback@UPxSweepHit@physx@@@1@V?$PxFlags@W4Enum@PxHitFlag@physx@@G@1@PBUPxQueryCache@1@ABUPxQueryFilterData@1@PAVPxQueryFilterCallback@1@PAUBatchQueryFilterData@1@@Z 1003a490 f i NpSceneQueries.obj
 0001:00039800       ??0Capsule@Gu@physx@@QAE@ABVPxVec3@2@0M@Z 1003a800 f i NpSceneQueries.obj
 0001:00039840       ??4PxRaycastHit@physx@@QAEAAU01@ABU01@@Z 1003a840 f i NpSceneQueries.obj
 0001:000398b0       ??_E?$MultiQueryCallback@UPxRaycastHit@physx@@@@UAEPAXI@Z 1003a8b0 f i NpSceneQueries.obj
 0001:000398b0       ??_E?$MultiQueryCallback@UPxOverlapHit@physx@@@@UAEPAXI@Z 1003a8b0 f i NpSceneQueries.obj
 0001:000398b0       ??_G?$MultiQueryCallback@UPxOverlapHit@physx@@@@UAEPAXI@Z 1003a8b0 f i NpSceneQueries.obj
 0001:000398b0       ??_E?$MultiQueryCallback@UPxSweepHit@physx@@@@UAEPAXI@Z 1003a8b0 f i NpSceneQueries.obj
 0001:000398b0       ??_G?$MultiQueryCallback@UPxSweepHit@physx@@@@UAEPAXI@Z 1003a8b0 f i NpSceneQueries.obj
 0001:000398b0       ??_G?$MultiQueryCallback@UPxRaycastHit@physx@@@@UAEPAXI@Z 1003a8b0 f i NpSceneQueries.obj
 0001:000398e0       ?invoke@?$MultiQueryCallback@UPxOverlapHit@physx@@@@UAE_NAAMABUPrunerPayload@Sq@physx@@@Z 1003a8e0 f i NpSceneQueries.obj
 0001:00039cf0       ?invoke@?$MultiQueryCallback@UPxRaycastHit@physx@@@@UAE_NAAMABUPrunerPayload@Sq@physx@@@Z 1003acf0 f i NpSceneQueries.obj
 0001:0003a2c0       ?invoke@?$MultiQueryCallback@UPxSweepHit@physx@@@@UAE_NAAMABUPrunerPayload@Sq@physx@@@Z 1003b2c0 f i NpSceneQueries.obj
 0001:0003afa0       ?overlap@NpSceneQueries@physx@@UBE_NABVPxGeometry@2@ABVPxTransform@2@AAU?$PxHitCallback@UPxOverlapHit@physx@@@2@ABUPxQueryFilterData@2@PAVPxQueryFilterCallback@2@@Z 1003bfa0 f   NpSceneQueries.obj
 0001:0003b020       ?raycast@NpSceneQueries@physx@@UBE_NABVPxVec3@2@0MAAU?$PxHitCallback@UPxRaycastHit@physx@@@2@V?$PxFlags@W4Enum@PxHitFlag@physx@@G@2@ABUPxQueryFilterData@2@PAVPxQueryFilterCallback@2@PBUPxQueryCache@2@@Z 1003c020 f   NpSceneQueries.obj
 0001:0003b0c0       ?sceneQueriesDynamicPrunerUpdate@NpSceneQueries@physx@@QAEXPAVPxBaseTask@2@@Z 1003c0c0 f   NpSceneQueries.obj
 0001:0003b0e0       ?sceneQueriesStaticPrunerUpdate@NpSceneQueries@physx@@QAEXPAVPxBaseTask@2@@Z 1003c0e0 f   NpSceneQueries.obj
 0001:0003b100       ?sweep@NpSceneQueries@physx@@UBE_NABVPxGeometry@2@ABVPxTransform@2@ABVPxVec3@2@MAAU?$PxHitCallback@UPxSweepHit@physx@@@2@V?$PxFlags@W4Enum@PxHitFlag@physx@@G@2@ABUPxQueryFilterData@2@PAVPxQueryFilterCallback@2@PBUPxQueryCache@2@M@Z 1003c100 f   NpSceneQueries.obj
 0001:0003b260       ??_G?$PxSerializerDefaultAdapter@VNpArticulationJointReducedCoordinate@physx@@@physx@@UAEPAXI@Z 1003c260 f i NpSerializerAdapter.obj
 0001:0003b260       ??_G?$PxSerializerDefaultAdapter@VConvexMesh@Gu@physx@@@physx@@UAEPAXI@Z 1003c260 f i NpSerializerAdapter.obj
 0001:0003b260       ??_G?$PxSerializerDefaultAdapter@VNpAggregate@physx@@@physx@@UAEPAXI@Z 1003c260 f i NpSerializerAdapter.obj
 0001:0003b260       ??_G?$PxSerializerDefaultAdapter@VNpArticulationReducedCoordinate@physx@@@physx@@UAEPAXI@Z 1003c260 f i NpSerializerAdapter.obj
 0001:0003b260       ??_E?$PxSerializerDefaultAdapter@VConvexMesh@Gu@physx@@@physx@@UAEPAXI@Z 1003c260 f i NpSerializerAdapter.obj
 0001:0003b260       ??_G?$PxSerializerDefaultAdapter@VNpShape@physx@@@physx@@UAEPAXI@Z 1003c260 f i NpSerializerAdapter.obj
 0001:0003b260       ??_E?$PxSerializerDefaultAdapter@VPruningStructure@Sq@physx@@@physx@@UAEPAXI@Z 1003c260 f i NpSerializerAdapter.obj
 0001:0003b260       ??_G?$PxSerializerDefaultAdapter@VHeightField@Gu@physx@@@physx@@UAEPAXI@Z 1003c260 f i NpSerializerAdapter.obj
 0001:0003b260       ??_E?$PxSerializerDefaultAdapter@VNpArticulationLink@physx@@@physx@@UAEPAXI@Z 1003c260 f i NpSerializerAdapter.obj
 0001:0003b260       ??_E?$PxSerializerDefaultAdapter@VNpMaterial@physx@@@physx@@UAEPAXI@Z 1003c260 f i NpSerializerAdapter.obj
 0001:0003b260       ??_G?$PxSerializerDefaultAdapter@VPruningStructure@Sq@physx@@@physx@@UAEPAXI@Z 1003c260 f i NpSerializerAdapter.obj
 0001:0003b260       ??_E?$PxSerializerDefaultAdapter@VNpShape@physx@@@physx@@UAEPAXI@Z 1003c260 f i NpSerializerAdapter.obj
 0001:0003b260       ??_E?$PxSerializerDefaultAdapter@VHeightField@Gu@physx@@@physx@@UAEPAXI@Z 1003c260 f i NpSerializerAdapter.obj
 0001:0003b260       ??_E?$PxSerializerDefaultAdapter@VNpArticulationReducedCoordinate@physx@@@physx@@UAEPAXI@Z 1003c260 f i NpSerializerAdapter.obj
 0001:0003b260       ??_G?$PxSerializerDefaultAdapter@VNpArticulationLink@physx@@@physx@@UAEPAXI@Z 1003c260 f i NpSerializerAdapter.obj
 0001:0003b260       ??_G?$PxSerializerDefaultAdapter@VNpRigidStatic@physx@@@physx@@UAEPAXI@Z 1003c260 f i NpSerializerAdapter.obj
 0001:0003b260       ??_E?$PxSerializerDefaultAdapter@VNpRigidStatic@physx@@@physx@@UAEPAXI@Z 1003c260 f i NpSerializerAdapter.obj
 0001:0003b260       ??_G?$PxSerializerDefaultAdapter@VNpArticulationJoint@physx@@@physx@@UAEPAXI@Z 1003c260 f i NpSerializerAdapter.obj
 0001:0003b260       ??_E?$PxSerializerDefaultAdapter@VNpArticulationJoint@physx@@@physx@@UAEPAXI@Z 1003c260 f i NpSerializerAdapter.obj
 0001:0003b260       ??_G?$PxSerializerDefaultAdapter@VNpRigidDynamic@physx@@@physx@@UAEPAXI@Z 1003c260 f i NpSerializerAdapter.obj
 0001:0003b260       ??_G?$PxSerializerDefaultAdapter@VBV4TriangleMesh@Gu@physx@@@physx@@UAEPAXI@Z 1003c260 f i NpSerializerAdapter.obj
 0001:0003b260       ??_E?$PxSerializerDefaultAdapter@VNpAggregate@physx@@@physx@@UAEPAXI@Z 1003c260 f i NpSerializerAdapter.obj
 0001:0003b260       ??_E?$PxSerializerDefaultAdapter@VNpConstraint@physx@@@physx@@UAEPAXI@Z 1003c260 f i NpSerializerAdapter.obj
 0001:0003b260       ??_E?$PxSerializerDefaultAdapter@VBV4TriangleMesh@Gu@physx@@@physx@@UAEPAXI@Z 1003c260 f i NpSerializerAdapter.obj
 0001:0003b260       ??_E?$PxSerializerDefaultAdapter@VNpRigidDynamic@physx@@@physx@@UAEPAXI@Z 1003c260 f i NpSerializerAdapter.obj
 0001:0003b260       ??_G?$PxSerializerDefaultAdapter@VRTreeTriangleMesh@Gu@physx@@@physx@@UAEPAXI@Z 1003c260 f i NpSerializerAdapter.obj
 0001:0003b260       ??_E?$PxSerializerDefaultAdapter@VNpArticulationJointReducedCoordinate@physx@@@physx@@UAEPAXI@Z 1003c260 f i NpSerializerAdapter.obj
 0001:0003b260       ??_E?$PxSerializerDefaultAdapter@VNpArticulation@physx@@@physx@@UAEPAXI@Z 1003c260 f i NpSerializerAdapter.obj
 0001:0003b260       ??_E?$PxSerializerDefaultAdapter@VRTreeTriangleMesh@Gu@physx@@@physx@@UAEPAXI@Z 1003c260 f i NpSerializerAdapter.obj
 0001:0003b260       ??_G?$PxSerializerDefaultAdapter@VNpArticulation@physx@@@physx@@UAEPAXI@Z 1003c260 f i NpSerializerAdapter.obj
 0001:0003b260       ??_G?$PxSerializerDefaultAdapter@VNpConstraint@physx@@@physx@@UAEPAXI@Z 1003c260 f i NpSerializerAdapter.obj
 0001:0003b260       ??_G?$PxSerializerDefaultAdapter@VNpMaterial@physx@@@physx@@UAEPAXI@Z 1003c260 f i NpSerializerAdapter.obj
 0001:0003b290       ??_EPxSerializer@physx@@UAEPAXI@Z 1003c290 f i NpSerializerAdapter.obj
 0001:0003b290       ??_GPxSerializer@physx@@UAEPAXI@Z 1003c290 f i NpSerializerAdapter.obj
 0001:0003b2c0       ??_GRequiresCallback@?1??registerReferences@?$PxSerializerDefaultAdapter@VPruningStructure@Sq@physx@@@physx@@UBEXAAVPxBase@3@AAVPxSerializationContext@3@@Z@UAEPAXI@Z 1003c2c0 f i NpSerializerAdapter.obj
 0001:0003b2c0       ??_ERequiresCallback@?1??registerReferences@?$PxSerializerDefaultAdapter@VHeightField@Gu@physx@@@physx@@UBEXAAVPxBase@3@AAVPxSerializationContext@3@@Z@UAEPAXI@Z 1003c2c0 f i NpSerializerAdapter.obj
 0001:0003b2c0       ??_ERequiresCallback@?1??registerReferences@?$PxSerializerDefaultAdapter@VPruningStructure@Sq@physx@@@physx@@UBEXAAVPxBase@3@AAVPxSerializationContext@3@@Z@UAEPAXI@Z 1003c2c0 f i NpSerializerAdapter.obj
 0001:0003b2c0       ??_GRequiresCallback@?1??registerReferences@?$PxSerializerDefaultAdapter@VRTreeTriangleMesh@Gu@physx@@@physx@@UBEXAAVPxBase@3@AAVPxSerializationContext@3@@Z@UAEPAXI@Z 1003c2c0 f i NpSerializerAdapter.obj
 0001:0003b2c0       ??_ERequiresCallback@?1??registerReferences@?$PxSerializerDefaultAdapter@VNpArticulationLink@physx@@@physx@@UBEXAAVPxBase@3@AAVPxSerializationContext@3@@Z@UAEPAXI@Z 1003c2c0 f i NpSerializerAdapter.obj
 0001:0003b2c0       ??_ERequiresCallback@?1??registerReferences@?$PxSerializerDefaultAdapter@VNpArticulationReducedCoordinate@physx@@@physx@@UBEXAAVPxBase@3@AAVPxSerializationContext@3@@Z@UAEPAXI@Z 1003c2c0 f i NpSerializerAdapter.obj
 0001:0003b2c0       ??_ERequiresCallback@?1??registerReferences@?$PxSerializerDefaultAdapter@VRTreeTriangleMesh@Gu@physx@@@physx@@UBEXAAVPxBase@3@AAVPxSerializationContext@3@@Z@UAEPAXI@Z 1003c2c0 f i NpSerializerAdapter.obj
 0001:0003b2c0       ??_GRequiresCallback@?1??registerReferences@?$PxSerializerDefaultAdapter@VHeightField@Gu@physx@@@physx@@UBEXAAVPxBase@3@AAVPxSerializationContext@3@@Z@UAEPAXI@Z 1003c2c0 f i NpSerializerAdapter.obj
 0001:0003b2c0       ??_ERequiresCallback@?1??registerReferences@?$PxSerializerDefaultAdapter@VNpRigidDynamic@physx@@@physx@@UBEXAAVPxBase@3@AAVPxSerializationContext@3@@Z@UAEPAXI@Z 1003c2c0 f i NpSerializerAdapter.obj
 0001:0003b2c0       ??_ERequiresCallback@?1??registerReferences@?$PxSerializerDefaultAdapter@VNpArticulationJoint@physx@@@physx@@UBEXAAVPxBase@3@AAVPxSerializationContext@3@@Z@UAEPAXI@Z 1003c2c0 f i NpSerializerAdapter.obj
 0001:0003b2c0       ??_GRequiresCallback@?1??registerReferences@?$PxSerializerDefaultAdapter@VBV4TriangleMesh@Gu@physx@@@physx@@UBEXAAVPxBase@3@AAVPxSerializationContext@3@@Z@UAEPAXI@Z 1003c2c0 f i NpSerializerAdapter.obj
 0001:0003b2c0       ??_ERequiresCallback@?1??registerReferences@?$PxSerializerDefaultAdapter@VNpConstraint@physx@@@physx@@UBEXAAVPxBase@3@AAVPxSerializationContext@3@@Z@UAEPAXI@Z 1003c2c0 f i NpSerializerAdapter.obj
 0001:0003b2c0       ??_ERequiresCallback@?1??registerReferences@?$PxSerializerDefaultAdapter@VBV4TriangleMesh@Gu@physx@@@physx@@UBEXAAVPxBase@3@AAVPxSerializationContext@3@@Z@UAEPAXI@Z 1003c2c0 f i NpSerializerAdapter.obj
 0001:0003b2c0       ??_GRequiresCallback@?1??registerReferences@?$PxSerializerDefaultAdapter@VNpConstraint@physx@@@physx@@UBEXAAVPxBase@3@AAVPxSerializationContext@3@@Z@UAEPAXI@Z 1003c2c0 f i NpSerializerAdapter.obj
 0001:0003b2c0       ??_GRequiresCallback@?1??registerReferences@?$PxSerializerDefaultAdapter@VNpArticulationReducedCoordinate@physx@@@physx@@UBEXAAVPxBase@3@AAVPxSerializationContext@3@@Z@UAEPAXI@Z 1003c2c0 f i NpSerializerAdapter.obj
 0001:0003b2c0       ??_GRequiresCallback@?1??registerReferences@?$PxSerializerDefaultAdapter@VNpRigidDynamic@physx@@@physx@@UBEXAAVPxBase@3@AAVPxSerializationContext@3@@Z@UAEPAXI@Z 1003c2c0 f i NpSerializerAdapter.obj
 0001:0003b2c0       ??_GRequiresCallback@?1??registerReferences@?$PxSerializerDefaultAdapter@VNpShape@physx@@@physx@@UBEXAAVPxBase@3@AAVPxSerializationContext@3@@Z@UAEPAXI@Z 1003c2c0 f i NpSerializerAdapter.obj
 0001:0003b2c0       ??_GRequiresCallback@?1??registerReferences@?$PxSerializerDefaultAdapter@VNpArticulation@physx@@@physx@@UBEXAAVPxBase@3@AAVPxSerializationContext@3@@Z@UAEPAXI@Z 1003c2c0 f i NpSerializerAdapter.obj
 0001:0003b2c0       ??_GRequiresCallback@?1??registerReferences@?$PxSerializerDefaultAdapter@VNpArticulationLink@physx@@@physx@@UBEXAAVPxBase@3@AAVPxSerializationContext@3@@Z@UAEPAXI@Z 1003c2c0 f i NpSerializerAdapter.obj
 0001:0003b2c0       ??_ERequiresCallback@?1??registerReferences@?$PxSerializerDefaultAdapter@VNpArticulationJointReducedCoordinate@physx@@@physx@@UBEXAAVPxBase@3@AAVPxSerializationContext@3@@Z@UAEPAXI@Z 1003c2c0 f i NpSerializerAdapter.obj
 0001:0003b2c0       ??_ERequiresCallback@?1??registerReferences@?$PxSerializerDefaultAdapter@VNpShape@physx@@@physx@@UBEXAAVPxBase@3@AAVPxSerializationContext@3@@Z@UAEPAXI@Z 1003c2c0 f i NpSerializerAdapter.obj
 0001:0003b2c0       ??_ERequiresCallback@?1??registerReferences@?$PxSerializerDefaultAdapter@VNpArticulation@physx@@@physx@@UBEXAAVPxBase@3@AAVPxSerializationContext@3@@Z@UAEPAXI@Z 1003c2c0 f i NpSerializerAdapter.obj
 0001:0003b2c0       ??_GRequiresCallback@?1??registerReferences@?$PxSerializerDefaultAdapter@VConvexMesh@Gu@physx@@@physx@@UBEXAAVPxBase@3@AAVPxSerializationContext@3@@Z@UAEPAXI@Z 1003c2c0 f i NpSerializerAdapter.obj
 0001:0003b2c0       ??_GRequiresCallback@?1??registerReferences@?$PxSerializerDefaultAdapter@VNpArticulationJoint@physx@@@physx@@UBEXAAVPxBase@3@AAVPxSerializationContext@3@@Z@UAEPAXI@Z 1003c2c0 f i NpSerializerAdapter.obj
 0001:0003b2c0       ??_GRequiresCallback@?1??registerReferences@?$PxSerializerDefaultAdapter@VNpArticulationJointReducedCoordinate@physx@@@physx@@UBEXAAVPxBase@3@AAVPxSerializationContext@3@@Z@UAEPAXI@Z 1003c2c0 f i NpSerializerAdapter.obj
 0001:0003b2c0       ??_ERequiresCallback@?1??registerReferences@?$PxSerializerDefaultAdapter@VNpAggregate@physx@@@physx@@UBEXAAVPxBase@3@AAVPxSerializationContext@3@@Z@UAEPAXI@Z 1003c2c0 f i NpSerializerAdapter.obj
 0001:0003b2c0       ??_GRequiresCallback@?1??registerReferences@?$PxSerializerDefaultAdapter@VNpAggregate@physx@@@physx@@UBEXAAVPxBase@3@AAVPxSerializationContext@3@@Z@UAEPAXI@Z 1003c2c0 f i NpSerializerAdapter.obj
 0001:0003b2c0       ??_ERequiresCallback@?1??registerReferences@?$PxSerializerDefaultAdapter@VNpRigidStatic@physx@@@physx@@UBEXAAVPxBase@3@AAVPxSerializationContext@3@@Z@UAEPAXI@Z 1003c2c0 f i NpSerializerAdapter.obj
 0001:0003b2c0       ??_ERequiresCallback@?1??registerReferences@?$PxSerializerDefaultAdapter@VConvexMesh@Gu@physx@@@physx@@UBEXAAVPxBase@3@AAVPxSerializationContext@3@@Z@UAEPAXI@Z 1003c2c0 f i NpSerializerAdapter.obj
 0001:0003b2c0       ??_GRequiresCallback@?1??registerReferences@?$PxSerializerDefaultAdapter@VNpRigidStatic@physx@@@physx@@UBEXAAVPxBase@3@AAVPxSerializationContext@3@@Z@UAEPAXI@Z 1003c2c0 f i NpSerializerAdapter.obj
 0001:0003b2f0       ?createObject@?$PxSerializerDefaultAdapter@VBV4TriangleMesh@Gu@physx@@@physx@@UBEPAVPxBase@2@AAPAEAAVPxDeserializationContext@2@@Z 1003c2f0 f i NpSerializerAdapter.obj
 0001:0003b310       ?createObject@?$PxSerializerDefaultAdapter@VConvexMesh@Gu@physx@@@physx@@UBEPAVPxBase@2@AAPAEAAVPxDeserializationContext@2@@Z 1003c310 f i NpSerializerAdapter.obj
 0001:0003b330       ?createObject@?$PxSerializerDefaultAdapter@VHeightField@Gu@physx@@@physx@@UBEPAVPxBase@2@AAPAEAAVPxDeserializationContext@2@@Z 1003c330 f i NpSerializerAdapter.obj
 0001:0003b350       ?createObject@?$PxSerializerDefaultAdapter@VNpAggregate@physx@@@physx@@UBEPAVPxBase@2@AAPAEAAVPxDeserializationContext@2@@Z 1003c350 f i NpSerializerAdapter.obj
 0001:0003b370       ?createObject@?$PxSerializerDefaultAdapter@VNpArticulation@physx@@@physx@@UBEPAVPxBase@2@AAPAEAAVPxDeserializationContext@2@@Z 1003c370 f i NpSerializerAdapter.obj
 0001:0003b390       ?createObject@?$PxSerializerDefaultAdapter@VNpArticulationJoint@physx@@@physx@@UBEPAVPxBase@2@AAPAEAAVPxDeserializationContext@2@@Z 1003c390 f i NpSerializerAdapter.obj
 0001:0003b3b0       ?createObject@?$PxSerializerDefaultAdapter@VNpArticulationJointReducedCoordinate@physx@@@physx@@UBEPAVPxBase@2@AAPAEAAVPxDeserializationContext@2@@Z 1003c3b0 f i NpSerializerAdapter.obj
 0001:0003b3d0       ?createObject@?$PxSerializerDefaultAdapter@VNpArticulationLink@physx@@@physx@@UBEPAVPxBase@2@AAPAEAAVPxDeserializationContext@2@@Z 1003c3d0 f i NpSerializerAdapter.obj
 0001:0003b3f0       ?createObject@?$PxSerializerDefaultAdapter@VNpArticulationReducedCoordinate@physx@@@physx@@UBEPAVPxBase@2@AAPAEAAVPxDeserializationContext@2@@Z 1003c3f0 f i NpSerializerAdapter.obj
 0001:0003b410       ?createObject@?$PxSerializerDefaultAdapter@VNpConstraint@physx@@@physx@@UBEPAVPxBase@2@AAPAEAAVPxDeserializationContext@2@@Z 1003c410 f i NpSerializerAdapter.obj
 0001:0003b430       ?createObject@?$PxSerializerDefaultAdapter@VNpMaterial@physx@@@physx@@UBEPAVPxBase@2@AAPAEAAVPxDeserializationContext@2@@Z 1003c430 f i NpSerializerAdapter.obj
 0001:0003b450       ?createObject@?$PxSerializerDefaultAdapter@VNpRigidDynamic@physx@@@physx@@UBEPAVPxBase@2@AAPAEAAVPxDeserializationContext@2@@Z 1003c450 f i NpSerializerAdapter.obj
 0001:0003b470       ?createObject@?$PxSerializerDefaultAdapter@VNpRigidStatic@physx@@@physx@@UBEPAVPxBase@2@AAPAEAAVPxDeserializationContext@2@@Z 1003c470 f i NpSerializerAdapter.obj
 0001:0003b490       ?createObject@?$PxSerializerDefaultAdapter@VNpShape@physx@@@physx@@UBEPAVPxBase@2@AAPAEAAVPxDeserializationContext@2@@Z 1003c490 f i NpSerializerAdapter.obj
 0001:0003b4b0       ?createObject@?$PxSerializerDefaultAdapter@VPruningStructure@Sq@physx@@@physx@@UBEPAVPxBase@2@AAPAEAAVPxDeserializationContext@2@@Z 1003c4b0 f i NpSerializerAdapter.obj
 0001:0003b4d0       ?createObject@?$PxSerializerDefaultAdapter@VRTreeTriangleMesh@Gu@physx@@@physx@@UBEPAVPxBase@2@AAPAEAAVPxDeserializationContext@2@@Z 1003c4d0 f i NpSerializerAdapter.obj
 0001:0003b4f0       ?exportData@?$PxSerializerDefaultAdapter@VBV4TriangleMesh@Gu@physx@@@physx@@UBEXAAVPxBase@2@AAVPxSerializationContext@2@@Z 1003c4f0 f i NpSerializerAdapter.obj
 0001:0003b560       ?exportData@?$PxSerializerDefaultAdapter@VConvexMesh@Gu@physx@@@physx@@UBEXAAVPxBase@2@AAVPxSerializationContext@2@@Z 1003c560 f i NpSerializerAdapter.obj
 0001:0003b5d0       ?exportData@?$PxSerializerDefaultAdapter@VHeightField@Gu@physx@@@physx@@UBEXAAVPxBase@2@AAVPxSerializationContext@2@@Z 1003c5d0 f i NpSerializerAdapter.obj
 0001:0003b630       ?exportData@?$PxSerializerDefaultAdapter@VNpAggregate@physx@@@physx@@UBEXAAVPxBase@2@AAVPxSerializationContext@2@@Z 1003c630 f i NpSerializerAdapter.obj
 0001:0003b6a0       ?exportData@?$PxSerializerDefaultAdapter@VNpArticulation@physx@@@physx@@UBEXAAVPxBase@2@AAVPxSerializationContext@2@@Z 1003c6a0 f i NpSerializerAdapter.obj
 0001:0003b700       ?exportData@?$PxSerializerDefaultAdapter@VNpArticulationJointReducedCoordinate@physx@@@physx@@UBEXAAVPxBase@2@AAVPxSerializationContext@2@@Z 1003c700 f i NpSerializerAdapter.obj
 0001:0003b700       ?exportData@?$PxSerializerDefaultAdapter@VNpArticulationJoint@physx@@@physx@@UBEXAAVPxBase@2@AAVPxSerializationContext@2@@Z 1003c700 f i NpSerializerAdapter.obj
 0001:0003b770       ?exportData@?$PxSerializerDefaultAdapter@VNpArticulationLink@physx@@@physx@@UBEXAAVPxBase@2@AAVPxSerializationContext@2@@Z 1003c770 f i NpSerializerAdapter.obj
 0001:0003b800       ?exportData@?$PxSerializerDefaultAdapter@VNpArticulationReducedCoordinate@physx@@@physx@@UBEXAAVPxBase@2@AAVPxSerializationContext@2@@Z 1003c800 f i NpSerializerAdapter.obj
 0001:0003b870       ?exportData@?$PxSerializerDefaultAdapter@VNpConstraint@physx@@@physx@@UBEXAAVPxBase@2@AAVPxSerializationContext@2@@Z 1003c870 f i NpSerializerAdapter.obj
 0001:0003b8d0       ?exportData@?$PxSerializerDefaultAdapter@VNpMaterial@physx@@@physx@@UBEXAAVPxBase@2@AAVPxSerializationContext@2@@Z 1003c8d0 f i NpSerializerAdapter.obj
 0001:0003b940       ?exportData@?$PxSerializerDefaultAdapter@VNpRigidDynamic@physx@@@physx@@UBEXAAVPxBase@2@AAVPxSerializationContext@2@@Z 1003c940 f i NpSerializerAdapter.obj
 0001:0003b9b0       ?exportData@?$PxSerializerDefaultAdapter@VNpRigidStatic@physx@@@physx@@UBEXAAVPxBase@2@AAVPxSerializationContext@2@@Z 1003c9b0 f i NpSerializerAdapter.obj
 0001:0003ba40       ?exportData@?$PxSerializerDefaultAdapter@VNpShape@physx@@@physx@@UBEXAAVPxBase@2@AAVPxSerializationContext@2@@Z 1003ca40 f i NpSerializerAdapter.obj
 0001:0003bab0       ?exportData@?$PxSerializerDefaultAdapter@VPruningStructure@Sq@physx@@@physx@@UBEXAAVPxBase@2@AAVPxSerializationContext@2@@Z 1003cab0 f i NpSerializerAdapter.obj
 0001:0003bb20       ?exportData@?$PxSerializerDefaultAdapter@VRTreeTriangleMesh@Gu@physx@@@physx@@UBEXAAVPxBase@2@AAVPxSerializationContext@2@@Z 1003cb20 f i NpSerializerAdapter.obj
 0001:0003bb90       ?exportExtraData@?$PxSerializerDefaultAdapter@VBV4TriangleMesh@Gu@physx@@@physx@@UBEXAAVPxBase@2@AAVPxSerializationContext@2@@Z 1003cb90 f i NpSerializerAdapter.obj
 0001:0003bb90       ?exportExtraData@?$PxSerializerDefaultAdapter@VRTreeTriangleMesh@Gu@physx@@@physx@@UBEXAAVPxBase@2@AAVPxSerializationContext@2@@Z 1003cb90 f i NpSerializerAdapter.obj
 0001:0003bba0       ?exportExtraData@?$PxSerializerDefaultAdapter@VConvexMesh@Gu@physx@@@physx@@UBEXAAVPxBase@2@AAVPxSerializationContext@2@@Z 1003cba0 f i NpSerializerAdapter.obj
 0001:0003bba0       ?requiresObjects@?$PxSerializerDefaultAdapter@VNpAggregate@physx@@@physx@@UBEXAAVPxBase@2@AAVPxProcessPxBaseCallback@2@@Z 1003cba0 f i NpSerializerAdapter.obj
 0001:0003bbb0       ?requiresObjects@?$PxSerializerDefaultAdapter@VNpConstraint@physx@@@physx@@UBEXAAVPxBase@2@AAVPxProcessPxBaseCallback@2@@Z 1003cbb0 f i NpSerializerAdapter.obj
 0001:0003bbb0       ?exportExtraData@?$PxSerializerDefaultAdapter@VHeightField@Gu@physx@@@physx@@UBEXAAVPxBase@2@AAVPxSerializationContext@2@@Z 1003cbb0 f i NpSerializerAdapter.obj
 0001:0003bbc0       ?exportExtraData@?$PxSerializerDefaultAdapter@VNpAggregate@physx@@@physx@@UBEXAAVPxBase@2@AAVPxSerializationContext@2@@Z 1003cbc0 f i NpSerializerAdapter.obj
 0001:0003bbd0       ?exportExtraData@?$PxSerializerDefaultAdapter@VNpArticulation@physx@@@physx@@UBEXAAVPxBase@2@AAVPxSerializationContext@2@@Z 1003cbd0 f i NpSerializerAdapter.obj
 0001:0003bbf0       ?postActorFlagChange@ActorSim@Sc@physx@@UAEXII@Z 1003cbf0 f i SimulationController_static_32:ScScene.obj
 0001:0003bbf0       ?updateArticulationJoint@SimulationController@Sc@physx@@UAEXPAVArticulationV@Dy@3@ABVNodeIndex@IG@3@@Z 1003cbf0 f i SimulationController_static_32:ScSimulationController.obj
 0001:0003bbf0       ?updateDynamic@SimulationController@Sc@physx@@UAEX_NABVNodeIndex@IG@3@@Z 1003cbf0 f i SimulationController_static_32:ScSimulationController.obj
 0001:0003bbf0       ?addArticulation@SimulationController@Sc@physx@@UAEXPAVArticulationV@Dy@3@ABVNodeIndex@IG@3@@Z 1003cbf0 f i SimulationController_static_32:ScSimulationController.obj
 0001:0003bbf0       ?visualize@CompoundPruner@Sq@physx@@UBEXAAVRenderOutput@Cm@3@I@Z 1003cbf0 f i SceneQuery_static_32:SqCompoundPruner.obj
 0001:0003bbf0       ?visualize@BVHCompoundPruner@Sq@physx@@UBEXAAVRenderOutput@Cm@3@I@Z 1003cbf0 f i SceneQuery_static_32:SqCompoundPruner.obj
 0001:0003bbf0       ?copyInternalStateToCache@ArticulationV@Dy@physx@@UAEXAAVPxArticulationCache@3@V?$PxFlags@W4Enum@PxArticulationCache@physx@@E@3@@Z 1003cbf0 f i LowLevelDynamics_static_32:DyArticulation.obj
 0001:0003bbf0       ?addShape@SimulationController@Sc@physx@@UAEXPAUPxsShapeSim@3@I@Z 1003cbf0 f i SimulationController_static_32:ScSimulationController.obj
 0001:0003bbf0       ?getJointAcceleration@ArticulationV@Dy@physx@@UAEXABVPxVec3@3@AAVPxArticulationCache@3@@Z 1003cbf0 f i LowLevelDynamics_static_32:DyArticulation.obj
 0001:0003bbf0       ?visualize@Pruner@Sq@physx@@UBEXAAVRenderOutput@Cm@3@I@Z 1003cbf0 f i SceneQuery_static_32:SqBucketPruner.obj
 0001:0003bbf0       ?exportExtraData@?$PxSerializerDefaultAdapter@VNpMaterial@physx@@@physx@@UBEXAAVPxBase@2@AAVPxSerializationContext@2@@Z 1003cbf0 f i NpSerializerAdapter.obj
 0001:0003bbf0       ?releaseArticulation@SimulationController@Sc@physx@@UAEXPAVArticulationV@Dy@3@ABVNodeIndex@IG@3@@Z 1003cbf0 f i SimulationController_static_32:ScSimulationController.obj
 0001:0003bbf0       ?exportExtraData@?$PxSerializerDefaultAdapter@VNpConstraint@physx@@@physx@@UBEXAAVPxBase@2@AAVPxSerializationContext@2@@Z 1003cbf0 f i NpSerializerAdapter.obj
 0001:0003bbf0       ?updateBody@SimulationController@Sc@physx@@UAEXPAVPxsRigidBody@3@I@Z 1003cbf0 f i SimulationController_static_32:ScSimulationController.obj
 0001:0003bbf0       ?updateArticulation@SimulationController@Sc@physx@@UAEXPAVArticulationV@Dy@3@ABVNodeIndex@IG@3@@Z 1003cbf0 f i SimulationController_static_32:ScSimulationController.obj
 0001:0003bbf0       ?getGeneralizedGravityForce@ArticulationV@Dy@physx@@UAEXABVPxVec3@3@AAVPxArticulationCache@3@@Z 1003cbf0 f i LowLevelDynamics_static_32:DyArticulation.obj
 0001:0003bbf0       ?preallocateNewBuffers@PxsNphaseImplementationContext@physx@@UAEXII@Z 1003cbf0 f i LowLevel_static_32:PxsNphaseImplementationContext.obj
 0001:0003bbf0       ?unpackJointData@ArticulationV@Dy@physx@@UAEXPBMPAM@Z 1003cbf0 f i LowLevelDynamics_static_32:DyArticulation.obj
 0001:0003bbf0       ?exportExtraData@?$PxSerializerDefaultAdapter@VNpArticulationJoint@physx@@@physx@@UBEXAAVPxBase@2@AAVPxSerializationContext@2@@Z 1003cbf0 f i NpSerializerAdapter.obj
 0001:0003bbf0       ?exportExtraData@?$PxSerializerDefaultAdapter@VNpArticulationJointReducedCoordinate@physx@@@physx@@UBEXAAVPxBase@2@AAVPxSerializationContext@2@@Z 1003cbf0 f i NpSerializerAdapter.obj
 0001:0003bbf0       ?packJointData@ArticulationV@Dy@physx@@UAEXPBMPAM@Z 1003cbf0 f i LowLevelDynamics_static_32:DyArticulation.obj
 0001:0003bbf0       ?updateJoint@SimulationController@Sc@physx@@UAEXIPAUConstraint@Dy@3@@Z 1003cbf0 f i SimulationController_static_32:ScSimulationController.obj
 0001:0003bbf0       ?addDynamic@SimulationController@Sc@physx@@UAEXPAVPxsRigidBody@3@ABVNodeIndex@IG@3@@Z 1003cbf0 f i SimulationController_static_32:ScSimulationController.obj
 0001:0003bc00       ?exportExtraData@?$PxSerializerDefaultAdapter@VNpArticulationLink@physx@@@physx@@UBEXAAVPxBase@2@AAVPxSerializationContext@2@@Z 1003cc00 f i NpSerializerAdapter.obj
 0001:0003bc20       ?exportExtraData@?$PxSerializerDefaultAdapter@VNpArticulationReducedCoordinate@physx@@@physx@@UBEXAAVPxBase@2@AAVPxSerializationContext@2@@Z 1003cc20 f i NpSerializerAdapter.obj
 0001:0003bc40       ?exportExtraData@?$PxSerializerDefaultAdapter@VNpRigidDynamic@physx@@@physx@@UBEXAAVPxBase@2@AAVPxSerializationContext@2@@Z 1003cc40 f i NpSerializerAdapter.obj
 0001:0003bc60       ?exportExtraData@?$PxSerializerDefaultAdapter@VNpRigidStatic@physx@@@physx@@UBEXAAVPxBase@2@AAVPxSerializationContext@2@@Z 1003cc60 f i NpSerializerAdapter.obj
 0001:0003bc70       ?exportExtraData@?$PxSerializerDefaultAdapter@VNpShape@physx@@@physx@@UBEXAAVPxBase@2@AAVPxSerializationContext@2@@Z 1003cc70 f i NpSerializerAdapter.obj
 0001:0003bc70       ?requiresObjects@?$PxSerializerDefaultAdapter@VNpArticulation@physx@@@physx@@UBEXAAVPxBase@2@AAVPxProcessPxBaseCallback@2@@Z 1003cc70 f i NpSerializerAdapter.obj
 0001:0003bc90       ?exportExtraData@?$PxSerializerDefaultAdapter@VPruningStructure@Sq@physx@@@physx@@UBEXAAVPxBase@2@AAVPxSerializationContext@2@@Z 1003cc90 f i NpSerializerAdapter.obj
 0001:0003bca0       ?getClassSize@?$PxSerializerDefaultAdapter@VBV4TriangleMesh@Gu@physx@@@physx@@UBEIXZ 1003cca0 f i NpSerializerAdapter.obj
 0001:0003bcb0       ?getClassSize@?$PxSerializerDefaultAdapter@VConvexMesh@Gu@physx@@@physx@@UBEIXZ 1003ccb0 f i NpSerializerAdapter.obj
 0001:0003bcb0       ?getClassSize@?$PxSerializerDefaultAdapter@VNpArticulationReducedCoordinate@physx@@@physx@@UBEIXZ 1003ccb0 f i NpSerializerAdapter.obj
 0001:0003bcc0       ?getClassSize@?$PxSerializerDefaultAdapter@VHeightField@Gu@physx@@@physx@@UBEIXZ 1003ccc0 f i NpSerializerAdapter.obj
 0001:0003bcd0       ?getClassSize@?$PxSerializerDefaultAdapter@VNpAggregate@physx@@@physx@@UBEIXZ 1003ccd0 f i NpSerializerAdapter.obj
 0001:0003bce0       ?getClassSize@?$PxSerializerDefaultAdapter@VNpArticulation@physx@@@physx@@UBEIXZ 1003cce0 f i NpSerializerAdapter.obj
 0001:0003bcf0       ?getClassSize@?$PxSerializerDefaultAdapter@VNpArticulationJointReducedCoordinate@physx@@@physx@@UBEIXZ 1003ccf0 f i NpSerializerAdapter.obj
 0001:0003bcf0       ?getClassSize@?$PxSerializerDefaultAdapter@VNpArticulationJoint@physx@@@physx@@UBEIXZ 1003ccf0 f i NpSerializerAdapter.obj
 0001:0003bd00       ?getClassSize@?$PxSerializerDefaultAdapter@VNpArticulationLink@physx@@@physx@@UBEIXZ 1003cd00 f i NpSerializerAdapter.obj
 0001:0003bd10       ?getClassSize@?$PxSerializerDefaultAdapter@VNpConstraint@physx@@@physx@@UBEIXZ 1003cd10 f i NpSerializerAdapter.obj
 0001:0003bd20       ?getClassSize@?$PxSerializerDefaultAdapter@VNpMaterial@physx@@@physx@@UBEIXZ 1003cd20 f i NpSerializerAdapter.obj
 0001:0003bd30       ?getClassSize@?$PxSerializerDefaultAdapter@VNpRigidDynamic@physx@@@physx@@UBEIXZ 1003cd30 f i NpSerializerAdapter.obj
 0001:0003bd40       ?getClassSize@?$PxSerializerDefaultAdapter@VNpRigidStatic@physx@@@physx@@UBEIXZ 1003cd40 f i NpSerializerAdapter.obj
 0001:0003bd50       ?getClassSize@?$PxSerializerDefaultAdapter@VRTreeTriangleMesh@Gu@physx@@@physx@@UBEIXZ 1003cd50 f i NpSerializerAdapter.obj
 0001:0003bd50       ?getClassSize@?$PxSerializerDefaultAdapter@VNpShape@physx@@@physx@@UBEIXZ 1003cd50 f i NpSerializerAdapter.obj
 0001:0003bd60       ?getClassSize@?$PxSerializerDefaultAdapter@VPruningStructure@Sq@physx@@@physx@@UBEIXZ 1003cd60 f i NpSerializerAdapter.obj
 0001:0003bd70       ?isSubordinate@?$PxSerializerDefaultAdapter@VHeightField@Gu@physx@@@physx@@UBE_NXZ 1003cd70 f i NpSerializerAdapter.obj
 0001:0003bd70       ?isSubordinate@?$PxSerializerDefaultAdapter@VNpArticulationJointReducedCoordinate@physx@@@physx@@UBE_NXZ 1003cd70 f i NpSerializerAdapter.obj
 0001:0003bd70       ?isSubordinate@?$PxSerializerDefaultAdapter@VNpShape@physx@@@physx@@UBE_NXZ 1003cd70 f i NpSerializerAdapter.obj
 0001:0003bd70       ?isSubordinate@?$PxSerializerDefaultAdapter@VBV4TriangleMesh@Gu@physx@@@physx@@UBE_NXZ 1003cd70 f i NpSerializerAdapter.obj
 0001:0003bd70       ?isSubordinate@?$PxSerializerDefaultAdapter@VRTreeTriangleMesh@Gu@physx@@@physx@@UBE_NXZ 1003cd70 f i NpSerializerAdapter.obj
 0001:0003bd70       ?isSubordinate@?$PxSerializerDefaultAdapter@VNpRigidStatic@physx@@@physx@@UBE_NXZ 1003cd70 f i NpSerializerAdapter.obj
 0001:0003bd70       ?isSubordinate@?$PxSerializerDefaultAdapter@VNpAggregate@physx@@@physx@@UBE_NXZ 1003cd70 f i NpSerializerAdapter.obj
 0001:0003bd70       ?isSubordinate@?$PxSerializerDefaultAdapter@VNpRigidDynamic@physx@@@physx@@UBE_NXZ 1003cd70 f i NpSerializerAdapter.obj
 0001:0003bd70       ?isSubordinate@?$PxSerializerDefaultAdapter@VConvexMesh@Gu@physx@@@physx@@UBE_NXZ 1003cd70 f i NpSerializerAdapter.obj
 0001:0003bd70       ?isSubordinate@?$PxSerializerDefaultAdapter@VNpArticulation@physx@@@physx@@UBE_NXZ 1003cd70 f i NpSerializerAdapter.obj
 0001:0003bd70       ?isSubordinate@?$PxSerializerDefaultAdapter@VNpArticulationReducedCoordinate@physx@@@physx@@UBE_NXZ 1003cd70 f i NpSerializerAdapter.obj
 0001:0003bd70       ?willStoreStaticConstraint@ArticulationV@Dy@physx@@UAE_NXZ 1003cd70 f i LowLevelDynamics_static_32:DyArticulation.obj
 0001:0003bd70       ?isSubordinate@?$PxSerializerDefaultAdapter@VNpMaterial@physx@@@physx@@UBE_NXZ 1003cd70 f i NpSerializerAdapter.obj
 0001:0003bd70       ?isSubordinate@?$PxSerializerDefaultAdapter@VPruningStructure@Sq@physx@@@physx@@UBE_NXZ 1003cd70 f i NpSerializerAdapter.obj
 0001:0003bd80       ?process@RequiresCallback@?1??registerReferences@?$PxSerializerDefaultAdapter@VPruningStructure@Sq@physx@@@physx@@UBEXAAVPxBase@4@AAVPxSerializationContext@4@@Z@UAEX0@Z 1003cd80 f i NpSerializerAdapter.obj
 0001:0003bd80       ?process@RequiresCallback@?1??registerReferences@?$PxSerializerDefaultAdapter@VHeightField@Gu@physx@@@physx@@UBEXAAVPxBase@4@AAVPxSerializationContext@4@@Z@UAEX0@Z 1003cd80 f i NpSerializerAdapter.obj
 0001:0003bd80       ?process@RequiresCallback@?1??registerReferences@?$PxSerializerDefaultAdapter@VNpArticulationReducedCoordinate@physx@@@physx@@UBEXAAVPxBase@4@AAVPxSerializationContext@4@@Z@UAEX0@Z 1003cd80 f i NpSerializerAdapter.obj
 0001:0003bd80       ?process@RequiresCallback@?1??registerReferences@?$PxSerializerDefaultAdapter@VConvexMesh@Gu@physx@@@physx@@UBEXAAVPxBase@4@AAVPxSerializationContext@4@@Z@UAEX0@Z 1003cd80 f i NpSerializerAdapter.obj
 0001:0003bd80       ?process@RequiresCallback@?1??registerReferences@?$PxSerializerDefaultAdapter@VNpArticulationJointReducedCoordinate@physx@@@physx@@UBEXAAVPxBase@4@AAVPxSerializationContext@4@@Z@UAEX0@Z 1003cd80 f i NpSerializerAdapter.obj
 0001:0003bd80       ?process@RequiresCallback@?1??registerReferences@?$PxSerializerDefaultAdapter@VNpRigidStatic@physx@@@physx@@UBEXAAVPxBase@4@AAVPxSerializationContext@4@@Z@UAEX0@Z 1003cd80 f i NpSerializerAdapter.obj
 0001:0003bd80       ?process@RequiresCallback@?1??registerReferences@?$PxSerializerDefaultAdapter@VRTreeTriangleMesh@Gu@physx@@@physx@@UBEXAAVPxBase@4@AAVPxSerializationContext@4@@Z@UAEX0@Z 1003cd80 f i NpSerializerAdapter.obj
 0001:0003bd80       ?process@RequiresCallback@?1??registerReferences@?$PxSerializerDefaultAdapter@VNpAggregate@physx@@@physx@@UBEXAAVPxBase@4@AAVPxSerializationContext@4@@Z@UAEX0@Z 1003cd80 f i NpSerializerAdapter.obj
 0001:0003bd80       ?process@RequiresCallback@?1??registerReferences@?$PxSerializerDefaultAdapter@VNpArticulation@physx@@@physx@@UBEXAAVPxBase@4@AAVPxSerializationContext@4@@Z@UAEX0@Z 1003cd80 f i NpSerializerAdapter.obj
 0001:0003bd80       ?process@RequiresCallback@?1??registerReferences@?$PxSerializerDefaultAdapter@VNpConstraint@physx@@@physx@@UBEXAAVPxBase@4@AAVPxSerializationContext@4@@Z@UAEX0@Z 1003cd80 f i NpSerializerAdapter.obj
 0001:0003bd80       ?process@RequiresCallback@?1??registerReferences@?$PxSerializerDefaultAdapter@VNpRigidDynamic@physx@@@physx@@UBEXAAVPxBase@4@AAVPxSerializationContext@4@@Z@UAEX0@Z 1003cd80 f i NpSerializerAdapter.obj
 0001:0003bd80       ?process@RequiresCallback@?1??registerReferences@?$PxSerializerDefaultAdapter@VNpArticulationLink@physx@@@physx@@UBEXAAVPxBase@4@AAVPxSerializationContext@4@@Z@UAEX0@Z 1003cd80 f i NpSerializerAdapter.obj
 0001:0003bd80       ?process@RequiresCallback@?1??registerReferences@?$PxSerializerDefaultAdapter@VBV4TriangleMesh@Gu@physx@@@physx@@UBEXAAVPxBase@4@AAVPxSerializationContext@4@@Z@UAEX0@Z 1003cd80 f i NpSerializerAdapter.obj
 0001:0003bd80       ?process@RequiresCallback@?1??registerReferences@?$PxSerializerDefaultAdapter@VNpArticulationJoint@physx@@@physx@@UBEXAAVPxBase@4@AAVPxSerializationContext@4@@Z@UAEX0@Z 1003cd80 f i NpSerializerAdapter.obj
 0001:0003bda0       ?process@RequiresCallback@?1??registerReferences@?$PxSerializerDefaultAdapter@VNpShape@physx@@@physx@@UBEXAAVPxBase@4@AAVPxSerializationContext@4@@Z@UAEX0@Z 1003cda0 f i NpSerializerAdapter.obj
 0001:0003bde0       ?registerReferences@?$PxSerializerDefaultAdapter@VRTreeTriangleMesh@Gu@physx@@@physx@@UBEXAAVPxBase@2@AAVPxSerializationContext@2@@Z 1003cde0 f i NpSerializerAdapter.obj
 0001:0003bde0       ?registerReferences@?$PxSerializerDefaultAdapter@VBV4TriangleMesh@Gu@physx@@@physx@@UBEXAAVPxBase@2@AAVPxSerializationContext@2@@Z 1003cde0 f i NpSerializerAdapter.obj
 0001:0003be20       ?registerReferences@?$PxSerializerDefaultAdapter@VConvexMesh@Gu@physx@@@physx@@UBEXAAVPxBase@2@AAVPxSerializationContext@2@@Z 1003ce20 f i NpSerializerAdapter.obj
 0001:0003be60       ?registerReferences@?$PxSerializerDefaultAdapter@VHeightField@Gu@physx@@@physx@@UBEXAAVPxBase@2@AAVPxSerializationContext@2@@Z 1003ce60 f i NpSerializerAdapter.obj
 0001:0003bea0       ?registerReferences@?$PxSerializerDefaultAdapter@VNpAggregate@physx@@@physx@@UBEXAAVPxBase@2@AAVPxSerializationContext@2@@Z 1003cea0 f i NpSerializerAdapter.obj
 0001:0003bee0       ?registerReferences@?$PxSerializerDefaultAdapter@VNpArticulation@physx@@@physx@@UBEXAAVPxBase@2@AAVPxSerializationContext@2@@Z 1003cee0 f i NpSerializerAdapter.obj
 0001:0003bf20       ?registerReferences@?$PxSerializerDefaultAdapter@VNpArticulationJoint@physx@@@physx@@UBEXAAVPxBase@2@AAVPxSerializationContext@2@@Z 1003cf20 f i NpSerializerAdapter.obj
 0001:0003bf60       ?registerReferences@?$PxSerializerDefaultAdapter@VNpArticulationJointReducedCoordinate@physx@@@physx@@UBEXAAVPxBase@2@AAVPxSerializationContext@2@@Z 1003cf60 f i NpSerializerAdapter.obj
 0001:0003bfa0       ?registerReferences@?$PxSerializerDefaultAdapter@VNpArticulationLink@physx@@@physx@@UBEXAAVPxBase@2@AAVPxSerializationContext@2@@Z 1003cfa0 f i NpSerializerAdapter.obj
 0001:0003bfe0       ?registerReferences@?$PxSerializerDefaultAdapter@VNpArticulationReducedCoordinate@physx@@@physx@@UBEXAAVPxBase@2@AAVPxSerializationContext@2@@Z 1003cfe0 f i NpSerializerAdapter.obj
 0001:0003c020       ?registerReferences@?$PxSerializerDefaultAdapter@VNpConstraint@physx@@@physx@@UBEXAAVPxBase@2@AAVPxSerializationContext@2@@Z 1003d020 f i NpSerializerAdapter.obj
 0001:0003c060       ?registerReferences@?$PxSerializerDefaultAdapter@VNpMaterial@physx@@@physx@@UBEXAAVPxBase@2@AAVPxSerializationContext@2@@Z 1003d060 f i NpSerializerAdapter.obj
 0001:0003c090       ?registerReferences@?$PxSerializerDefaultAdapter@VNpRigidDynamic@physx@@@physx@@UBEXAAVPxBase@2@AAVPxSerializationContext@2@@Z 1003d090 f i NpSerializerAdapter.obj
 0001:0003c0d0       ?registerReferences@?$PxSerializerDefaultAdapter@VNpRigidStatic@physx@@@physx@@UBEXAAVPxBase@2@AAVPxSerializationContext@2@@Z 1003d0d0 f i NpSerializerAdapter.obj
 0001:0003c110       ?registerReferences@?$PxSerializerDefaultAdapter@VNpShape@physx@@@physx@@UBEXAAVPxBase@2@AAVPxSerializationContext@2@@Z 1003d110 f i NpSerializerAdapter.obj
 0001:0003c150       ?registerReferences@?$PxSerializerDefaultAdapter@VPruningStructure@Sq@physx@@@physx@@UBEXAAVPxBase@2@AAVPxSerializationContext@2@@Z 1003d150 f i NpSerializerAdapter.obj
 0001:0003c190       ?requiresObjects@?$PxSerializerDefaultAdapter@VBV4TriangleMesh@Gu@physx@@@physx@@UBEXAAVPxBase@2@AAVPxProcessPxBaseCallback@2@@Z 1003d190 f i NpSerializerAdapter.obj
 0001:0003c190       ?requiresObjects@?$PxSerializerDefaultAdapter@VRTreeTriangleMesh@Gu@physx@@@physx@@UBEXAAVPxBase@2@AAVPxProcessPxBaseCallback@2@@Z 1003d190 f i NpSerializerAdapter.obj
 0001:0003c1a0       ?requiresObjects@?$PxSerializerDefaultAdapter@VConvexMesh@Gu@physx@@@physx@@UBEXAAVPxBase@2@AAVPxProcessPxBaseCallback@2@@Z 1003d1a0 f i NpSerializerAdapter.obj
 0001:0003c1b0       ?requiresObjects@?$PxSerializerDefaultAdapter@VNpMaterial@physx@@@physx@@UBEXAAVPxBase@2@AAVPxProcessPxBaseCallback@2@@Z 1003d1b0 f i NpSerializerAdapter.obj
 0001:0003c1b0       ?requiresObjects@?$PxSerializerDefaultAdapter@VHeightField@Gu@physx@@@physx@@UBEXAAVPxBase@2@AAVPxProcessPxBaseCallback@2@@Z 1003d1b0 f i NpSerializerAdapter.obj
 0001:0003c1c0       ?requiresObjects@?$PxSerializerDefaultAdapter@VNpArticulationJoint@physx@@@physx@@UBEXAAVPxBase@2@AAVPxProcessPxBaseCallback@2@@Z 1003d1c0 f i NpSerializerAdapter.obj
 0001:0003c1e0       ?requiresObjects@?$PxSerializerDefaultAdapter@VNpArticulationJointReducedCoordinate@physx@@@physx@@UBEXAAVPxBase@2@AAVPxProcessPxBaseCallback@2@@Z 1003d1e0 f i NpSerializerAdapter.obj
 0001:0003c1f0       ?requiresObjects@?$PxSerializerDefaultAdapter@VNpArticulationLink@physx@@@physx@@UBEXAAVPxBase@2@AAVPxProcessPxBaseCallback@2@@Z 1003d1f0 f i NpSerializerAdapter.obj
 0001:0003c210       ?requiresObjects@?$PxSerializerDefaultAdapter@VNpArticulationReducedCoordinate@physx@@@physx@@UBEXAAVPxBase@2@AAVPxProcessPxBaseCallback@2@@Z 1003d210 f i NpSerializerAdapter.obj
 0001:0003c230       ?requiresObjects@?$PxSerializerDefaultAdapter@VNpRigidDynamic@physx@@@physx@@UBEXAAVPxBase@2@AAVPxProcessPxBaseCallback@2@@Z 1003d230 f i NpSerializerAdapter.obj
 0001:0003c250       ?requiresObjects@?$PxSerializerDefaultAdapter@VNpRigidStatic@physx@@@physx@@UBEXAAVPxBase@2@AAVPxProcessPxBaseCallback@2@@Z 1003d250 f i NpSerializerAdapter.obj
 0001:0003c260       ?requiresObjects@?$PxSerializerDefaultAdapter@VNpShape@physx@@@physx@@UBEXAAVPxBase@2@AAVPxProcessPxBaseCallback@2@@Z 1003d260 f i NpSerializerAdapter.obj
 0001:0003c280       ?requiresObjects@?$PxSerializerDefaultAdapter@VPruningStructure@Sq@physx@@@physx@@UBEXAAVPxBase@2@AAVPxProcessPxBaseCallback@2@@Z 1003d280 f i NpSerializerAdapter.obj
 0001:0003c290       _PxRegisterPhysicsSerializers 1003d290 f   NpSerializerAdapter.obj
 0001:0003c640       _PxUnregisterPhysicsSerializers 1003d640 f   NpSerializerAdapter.obj
 0001:0003c910       ??0NpShape@physx@@QAE@ABVPxGeometry@1@V?$PxFlags@W4Enum@PxShapeFlag@physx@@E@1@PBGG_N@Z 1003d910 f   NpShape.obj
 0001:0003ca40       ??_ENpShape@physx@@WM@AEPAXI@Z 1003da40 f i NpShape.obj
 0001:0003ca50       ??_GNpShape@physx@@UAEPAXI@Z 1003da50 f i NpShape.obj
 0001:0003ca50       ??_ENpShape@physx@@UAEPAXI@Z 1003da50 f i NpShape.obj
 0001:0003cb60       ?NpShapeDecRefCount@physx@@YAXAAVShape@Scb@1@@Z 1003db60 f   NpShape.obj
 0001:0003cb90       ?NpShapeGetScPtrOffset@physx@@YAIXZ 1003db90 f   NpShape.obj
 0001:0003cba0       ?NpShapeGetScRigidObjectFromScbSLOW@physx@@YAPAVRigidCore@Sc@1@ABVShape@Scb@1@@Z 1003dba0 f   NpShape.obj
 0001:0003cbc0       ?NpShapeIncRefCount@physx@@YAXAAVShape@Scb@1@@Z 1003dbc0 f   NpShape.obj
 0001:0003cbd0       ?createObject@NpShape@physx@@SAPAV12@AAPAEAAVPxDeserializationContext@2@@Z 1003dbd0 f   NpShape.obj
 0001:0003cc80       ?exportExtraData@NpShape@physx@@UAEXAAVPxSerializationContext@2@@Z 1003dc80 f   NpShape.obj
 0001:0003ccb0       ?getBoxGeometry@NpShape@physx@@UBE_NAAVPxBoxGeometry@2@@Z 1003dcb0 f   NpShape.obj
 0001:0003ccf0       ?getCapsuleGeometry@NpShape@physx@@UBE_NAAVPxCapsuleGeometry@2@@Z 1003dcf0 f   NpShape.obj
 0001:0003cd30       ?getConcreteTypeName@PxShape@physx@@UBEPBDXZ 1003dd30 f i NpShape.obj
 0001:0003cd40       ?getContactOffset@NpShape@physx@@UBEMXZ 1003dd40 f   NpShape.obj
 0001:0003cd70       ?getConvexMeshGeometry@NpShape@physx@@UBE_NAAVPxConvexMeshGeometry@2@@Z 1003dd70 f   NpShape.obj
 0001:0003cde0       ?getFlags@NpShape@physx@@UBE?AV?$PxFlags@W4Enum@PxShapeFlag@physx@@E@2@XZ 1003dde0 f   NpShape.obj
 0001:0003ce10       ?getGeometry@NpShape@physx@@UBE?AVPxGeometryHolder@2@XZ 1003de10 f   NpShape.obj
 0001:0003ce40       ?getGeometryType@NpShape@physx@@UBE?AW4Enum@PxGeometryType@2@XZ 1003de40 f   NpShape.obj
 0001:0003ce40       ?getCreatedPairs@BroadPhaseMBP@Bp@physx@@UAEPAUBroadPhasePair@23@XZ 1003de40 f   LowLevelAABB_static_32:BpBroadPhaseMBP.obj
 0001:0003ce50       ?getHeightFieldGeometry@NpShape@physx@@UBE_NAAVPxHeightFieldGeometry@2@@Z 1003de50 f   NpShape.obj
 0001:0003ceb0       ?getLocalPose@NpShape@physx@@UBE?AVPxTransform@2@XZ 1003deb0 f   NpShape.obj
 0001:0003cf00       ?getMaterialFromInternalFaceIndex@NpShape@physx@@UBEPAVPxMaterial@2@I@Z 1003df00 f   NpShape.obj
 0001:0003d050       ?getMaterials@NpShape@physx@@UBEIPAPAVPxMaterial@2@II@Z 1003e050 f   NpShape.obj
 0001:0003d060       ?getMaterials@Shape@Scb@physx@@QBEIPAPAVPxMaterial@3@II@Z 1003e060 f i NpShape.obj
 0001:0003d0f0       ?getMeshRefCountable@NpShape@physx@@AAEPAVRefCountable@Cm@2@XZ 1003e0f0 f   NpShape.obj
 0001:0003d160       ?getMinTorsionalPatchRadius@NpShape@physx@@UBEMXZ 1003e160 f   NpShape.obj
 0001:0003d190       ?getNbMaterials@NpShape@physx@@UBEGXZ 1003e190 f   NpShape.obj
 0001:0003d1b0       ?getPlaneGeometry@NpShape@physx@@UBE_NAAVPxPlaneGeometry@2@@Z 1003e1b0 f   NpShape.obj
 0001:0003d1e0       ?getQueryFilterData@NpShape@physx@@UBE?AUPxFilterData@2@XZ 1003e1e0 f   NpShape.obj
 0001:0003d200       ?getRestOffset@NpShape@physx@@UBEMXZ 1003e200 f   NpShape.obj
 0001:0003d230       ?getSimulationFilterData@NpShape@physx@@UBE?AUPxFilterData@2@XZ 1003e230 f   NpShape.obj
 0001:0003d260       ?getSphereGeometry@NpShape@physx@@UBE_NAAVPxSphereGeometry@2@@Z 1003e260 f   NpShape.obj
 0001:0003d290       ?getTorsionalPatchRadius@NpShape@physx@@UBEMXZ 1003e290 f   NpShape.obj
 0001:0003d2c0       ?getTriangleMeshGeometry@NpShape@physx@@UBE_NAAVPxTriangleMeshGeometry@2@@Z 1003e2c0 f   NpShape.obj
 0001:0003d330       ?isExclusive@NpShape@physx@@UBE_NXZ 1003e330 f   NpShape.obj
 0001:0003d340       ?isKindOf@PxShape@physx@@MBE_NPBD@Z 1003e340 f i NpShape.obj
 0001:0003d3c0       ?onActorAttach@NpShape@physx@@QAEXAAVPxRigidActor@2@@Z 1003e3c0 f   NpShape.obj
 0001:0003d400       ?onActorDetach@NpShape@physx@@QAEXXZ 1003e400 f   NpShape.obj
 0001:0003d440       ?onRefCountZero@NpShape@physx@@UAEXXZ 1003e440 f   NpShape.obj
 0001:0003d460       ?preExportDataReset@NpShape@physx@@QAEXXZ 1003e460 f   NpShape.obj
 0001:0003d480       ?requiresObjects@NpShape@physx@@UAEXAAVPxProcessPxBaseCallback@2@@Z 1003e480 f   NpShape.obj
 0001:0003d560       ?resolveReferences@NpShape@physx@@QAEXAAVPxDeserializationContext@2@@Z 1003e560 f   NpShape.obj
 0001:0003d6d0       ?setContactOffset@NpShape@physx@@UAEXM@Z 1003e6d0 f   NpShape.obj
 0001:0003d780       ?setFlag@NpShape@physx@@UAEXW4Enum@PxShapeFlag@2@_N@Z 1003e780 f   NpShape.obj
 0001:0003d7f0       ?setFlags@NpShape@physx@@UAEXV?$PxFlags@W4Enum@PxShapeFlag@physx@@E@2@@Z 1003e7f0 f   NpShape.obj
 0001:0003d830       ?setFlagsInternal@NpShape@physx@@QAEXV?$PxFlags@W4Enum@PxShapeFlag@physx@@E@2@@Z 1003e830 f   NpShape.obj
 0001:0003da60       ?setGeometry@NpShape@physx@@UAEXABVPxGeometry@2@@Z 1003ea60 f   NpShape.obj
 0001:0003dbe0       ?setLocalPose@NpShape@physx@@UAEXABVPxTransform@2@@Z 1003ebe0 f   NpShape.obj
 0001:0003dda0       ?setMaterials@NpShape@physx@@UAEXPBQAVPxMaterial@2@G@Z 1003eda0 f   NpShape.obj
 0001:0003df70       ?setMinTorsionalPatchRadius@NpShape@physx@@UAEXM@Z 1003ef70 f   NpShape.obj
 0001:0003e020       ?setQueryFilterData@NpShape@physx@@UAEXABUPxFilterData@2@@Z 1003f020 f   NpShape.obj
 0001:0003e040       ?setRestOffset@NpShape@physx@@UAEXM@Z 1003f040 f   NpShape.obj
 0001:0003e0f0       ?setSimulationFilterData@NpShape@physx@@UAEXABUPxFilterData@2@@Z 1003f0f0 f   NpShape.obj
 0001:0003e1c0       ?setTorsionalPatchRadius@NpShape@physx@@UAEXM@Z 1003f1c0 f   NpShape.obj
 0001:0003e270       ?updateSQ@NpShape@physx@@AAEXPBD@Z 1003f270 f   NpShape.obj
 0001:0003e300       ??0NpShapeManager@physx@@QAE@W4PxEMPTY@1@@Z 1003f300 f   NpShapeManager.obj
 0001:0003e340       ??0NpShapeManager@physx@@QAE@XZ 1003f340 f   NpShapeManager.obj
 0001:0003e370       ??0PxMat44@physx@@QAE@ABVPxMat33@1@ABVPxVec3@1@@Z 1003f370 f i NpShapeManager.obj
 0001:0003e3f0       ??0PxMat44@physx@@QAE@ABVPxTransform@1@@Z 1003f3f0 f i NpShapeManager.obj
 0001:0003e590       ??1NpShapeManager@physx@@QAE@XZ 1003f590 f   NpShapeManager.obj
 0001:0003e5d0       ?addBVHStructureShapes@NpShapeManager@physx@@QAEXAAVSceneQueryManager@Sq@2@ABVPxRigidActor@2@PBVBVHStructure@Gu@2@@Z 1003f5d0 f   NpShapeManager.obj
 0001:0003e760       ?addPrunerShape@NpShapeManager@physx@@QAEXAAVSceneQueryManager@Sq@2@IABVNpShape@2@ABVPxRigidActor@2@_NPBVPxBounds3@2@3@Z 1003f760 f   NpShapeManager.obj
 0001:0003e7c0       ?allocate@?$Array@PAVShape@Scb@physx@@V?$InlineAllocator@$0BA@V?$ReflectionAllocator@PAVShape@Scb@physx@@@shdfnd@physx@@@shdfnd@3@@shdfnd@physx@@IAEPAPAVShape@Scb@3@I@Z 1003f7c0 f i NpShapeManager.obj
 0001:0003e850       ?allocate@?$Array@URemovedShape@Scb@physx@@V?$InlineAllocator@$0CA@V?$ReflectionAllocator@URemovedShape@Scb@physx@@@shdfnd@physx@@@shdfnd@3@@shdfnd@physx@@IAEPAURemovedShape@Scb@3@I@Z 1003f850 f i NpShapeManager.obj
 0001:0003e8e0       ?attachShape@NpShapeManager@physx@@QAEXAAVNpShape@2@AAVPxRigidActor@2@@Z 1003f8e0 f   NpShapeManager.obj
 0001:0003e970       ?clearShapesOnRelease@NpShapeManager@physx@@QAEXAAVScene@Scb@2@AAVPxRigidActor@2@@Z 1003f970 f   NpShapeManager.obj
 0001:0003e9d0       ?detachAll@NpShapeManager@physx@@QAEXPAVNpScene@2@ABVPxRigidActor@2@@Z 1003f9d0 f   NpShapeManager.obj
 0001:0003eb20       ?detachShape@NpShapeManager@physx@@QAE_NAAVNpShape@2@AAVPxRigidActor@2@_N@Z 1003fb20 f   NpShapeManager.obj
 0001:0003ec30       ?exportExtraData@NpShapeManager@physx@@QAEXAAVPxSerializationContext@2@@Z 1003fc30 f   NpShapeManager.obj
 0001:0003ec80       ?findSceneQueryData@NpShapeManager@physx@@QBEIABVNpShape@2@@Z 1003fc80 f   NpShapeManager.obj
 0001:0003ecb0       ?findSceneQueryData@NpShapeManager@physx@@QBEIABVNpShape@2@AAI@Z 1003fcb0 f   NpShapeManager.obj
 0001:0003ecf0       ?getShapes@NpShapeManager@physx@@QBEIPAPAVPxShape@2@II@Z 1003fcf0 f   NpShapeManager.obj
 0001:0003efb0       ?getWorldBounds@NpShapeManager@physx@@QBE?AVPxBounds3@2@ABVPxRigidActor@2@@Z 1003ffb0 f   NpShapeManager.obj
 0001:0003f310       ?growAndPushBack@?$Array@PAVShape@Scb@physx@@V?$InlineAllocator@$0BA@V?$ReflectionAllocator@PAVShape@Scb@physx@@@shdfnd@physx@@@shdfnd@3@@shdfnd@physx@@IAEAAPAVShape@Scb@3@ABQAV453@@Z 10040310 f i NpShapeManager.obj
 0001:0003f3a0       ?growAndPushBack@?$Array@URemovedShape@Scb@physx@@V?$InlineAllocator@$0CA@V?$ReflectionAllocator@URemovedShape@Scb@physx@@@shdfnd@physx@@@shdfnd@3@@shdfnd@physx@@IAEAAURemovedShape@Scb@3@ABU453@@Z 100403a0 f i NpShapeManager.obj
 0001:0003f440       ?importExtraData@NpShapeManager@physx@@QAEXAAVPxDeserializationContext@2@@Z 10040440 f   NpShapeManager.obj
 0001:0003f460       ?markAllSceneQueryForUpdate@NpShapeManager@physx@@QAEXAAVSceneQueryManager@Sq@2@ABVPxRigidActor@2@@Z 10040460 f   NpShapeManager.obj
 0001:0003f4f0       ?onShapeAttach@RigidObject@Scb@physx@@QAEXAAVShape@23@@Z 100404f0 f i NpShapeManager.obj
 0001:0003f670       ?onShapeDetach@RigidObject@Scb@physx@@QAEXAAVShape@23@_N1@Z 10040670 f i NpShapeManager.obj
 0001:0003f900       ?preExportDataReset@NpShapeManager@physx@@QAEXXZ 10040900 f   NpShapeManager.obj
 0001:0003f920       ?setupAllSceneQuery@NpShapeManager@physx@@QAEXPAVNpScene@2@ABVPxRigidActor@2@_NPBVPxBounds3@2@PBVBVHStructure@Gu@2@@Z 10040920 f   NpShapeManager.obj
 0001:0003fa10       ?setupSceneQuery@NpShapeManager@physx@@IAEXAAVSceneQueryManager@Sq@2@ABVPxRigidActor@2@I@Z 10040a10 f   NpShapeManager.obj
 0001:0003fa90       ?setupSceneQuery@NpShapeManager@physx@@QAEXAAVSceneQueryManager@Sq@2@ABVPxRigidActor@2@ABVNpShape@2@@Z 10040a90 f   NpShapeManager.obj
 0001:0003fac0       ?teardownAllSceneQuery@NpShapeManager@physx@@QAEXAAVSceneQueryManager@Sq@2@ABVPxRigidActor@2@@Z 10040ac0 f   NpShapeManager.obj
 0001:0003fba0       ?teardownSceneQuery@NpShapeManager@physx@@QAEXAAVSceneQueryManager@Sq@2@ABVNpShape@2@@Z 10040ba0 f   NpShapeManager.obj
 0001:0003ff90       ?visualize@NpShapeManager@physx@@QAEXAAVRenderOutput@Cm@2@PAVNpScene@2@ABVPxRigidActor@2@@Z 10040f90 f   NpShapeManager.obj
 0001:00042d40       ?addActor@Aggregate@Scb@physx@@QAEXAAVActor@23@@Z 10043d40 f   ScbAggregate.obj
 0001:00042e70       ?removeActor@Aggregate@Scb@physx@@QAEXAAVActor@23@_N@Z 10043e70 f   ScbAggregate.obj
 0001:00042fb0       ?destroy@Base@Scb@physx@@QAEXXZ 10043fb0 f   ScbBase.obj
 0001:00042ff0       ?getBinaryMetaData@Actor@Scb@physx@@SAXAAVPxOutputStream@3@@Z 10043ff0 f   ScbMetaData.obj
 0001:000430a0       ?getBinaryMetaData@Aggregate@Scb@physx@@SAXAAVPxOutputStream@3@@Z 100440a0 f   ScbMetaData.obj
 0001:00043280       ?getBinaryMetaData@Articulation@Scb@physx@@SAXAAVPxOutputStream@3@@Z 10044280 f   ScbMetaData.obj
 0001:00043460       ?getBinaryMetaData@ArticulationJoint@Scb@physx@@SAXAAVPxOutputStream@3@@Z 10044460 f   ScbMetaData.obj
 0001:00043560       ?getBinaryMetaData@Base@Scb@physx@@SAXAAVPxOutputStream@3@@Z 10044560 f   ScbMetaData.obj
 0001:000436f0       ?getBinaryMetaData@Body@Scb@physx@@SAXAAVPxOutputStream@3@@Z 100446f0 f   ScbMetaData.obj
 0001:000439c0       ?getBinaryMetaData@Constraint@Scb@physx@@SAXAAVPxOutputStream@3@@Z 100449c0 f   ScbMetaData.obj
 0001:00043ba0       ?getBinaryMetaData@RigidObject@Scb@physx@@SAXAAVPxOutputStream@3@@Z 10044ba0 f   ScbMetaData.obj
 0001:00043c50       ?getBinaryMetaData@RigidStatic@Scb@physx@@SAXAAVPxOutputStream@3@@Z 10044c50 f   ScbMetaData.obj
 0001:00043d50       ?getBinaryMetaData@Shape@Scb@physx@@SAXAAVPxOutputStream@3@@Z 10044d50 f   ScbMetaData.obj
 0001:00043e50       ??$add@VBody@Scb@physx@@@Scene@Scb@physx@@AAEXAAVBody@12@AAVObjectTracker@12@PAVPxBounds3@2@PBVBVHStructure@Gu@2@@Z 10044e50 f i ScbScene.obj
 0001:00044020       ??$add@VRigidStatic@Scb@physx@@@Scene@Scb@physx@@AAEXAAVRigidStatic@12@AAVObjectTracker@12@PAVPxBounds3@2@PBVBVHStructure@Gu@2@@Z 10045020 f i ScbScene.obj
 0001:000441e0       ??$addRigidNoSim@$00VBody@Scb@physx@@@Scene@Scb@physx@@AAEXAAVBody@12@AAVObjectTracker@12@PBVBVHStructure@Gu@2@@Z 100451e0 f i ScbScene.obj
 0001:00044380       ??$addRigidNoSim@$0A@VRigidStatic@Scb@physx@@@Scene@Scb@physx@@AAEXAAVRigidStatic@12@AAVObjectTracker@12@PBVBVHStructure@Gu@2@@Z 10045380 f i ScbScene.obj
 0001:00044520       ??$processRemoves@VBody@Scb@physx@@$00$00@Scene@Scb@physx@@AAEXAAVObjectTracker@12@@Z 10045520 f i ScbScene.obj
 0001:00044790       ??$processRemoves@VRigidStatic@Scb@physx@@$0A@$00@Scene@Scb@physx@@AAEXAAVObjectTracker@12@@Z 10045790 f i ScbScene.obj
 0001:000449d0       ??$processSimUpdates@VArticulation@Scb@physx@@VArticulationCore@Sc@3@@Scene@Scb@physx@@AAEXPBQAVArticulationCore@Sc@2@I@Z 100459d0 f i ScbScene.obj
 0001:00044b30       ??$processUserUpdates@VArticulation@Scb@physx@@@Scene@Scb@physx@@AAEXAAVObjectTracker@12@@Z 10045b30 f i ScbScene.obj
 0001:00044cd0       ??$processUserUpdates@VBody@Scb@physx@@@Scene@Scb@physx@@AAEXAAVObjectTracker@12@@Z 10045cd0 f i ScbScene.obj
 0001:00044ef0       ??$processUserUpdates@VConstraint@Scb@physx@@@Scene@Scb@physx@@AAEXAAVObjectTracker@12@@Z 10045ef0 f i ScbScene.obj
 0001:000450a0       ??$processUserUpdates@VRigidStatic@Scb@physx@@@Scene@Scb@physx@@AAEXAAVObjectTracker@12@@Z 100460a0 f i ScbScene.obj
 0001:00045370       ??$remove@VBody@Scb@physx@@@Scene@Scb@physx@@AAEXAAVBody@12@AAVObjectTracker@12@_N@Z 10046370 f i ScbScene.obj
 0001:000455b0       ??$remove@VRigidStatic@Scb@physx@@@Scene@Scb@physx@@AAEXAAVRigidStatic@12@AAVObjectTracker@12@_N@Z 100465b0 f i ScbScene.obj
 0001:000457e0       ??$removeRigidNoSim@$00VBody@Scb@physx@@@Scene@Scb@physx@@AAEXAAVBody@12@AAVObjectTracker@12@@Z 100467e0 f i ScbScene.obj
 0001:00045a00       ??$removeRigidNoSim@$0A@VRigidStatic@Scb@physx@@@Scene@Scb@physx@@AAEXAAVRigidStatic@12@AAVObjectTracker@12@@Z 10046a00 f i ScbScene.obj
 0001:00045c20       ??0BodyBuffer@Scb@physx@@QAE@XZ 10046c20 f i ScbScene.obj
 0001:00045cf0       ??0Scene@Scb@physx@@QAE@ABVPxSceneDesc@2@_K@Z 10046cf0 f   ScbScene.obj
 0001:000460c0       ?addActor@Scene@Scb@physx@@QAEXAAVBody@23@_NPAVPxBounds3@3@PBVBVHStructure@Gu@3@@Z 100470c0 f   ScbScene.obj
 0001:00046320       ?addActor@Scene@Scb@physx@@QAEXAAVRigidStatic@23@_NPAVPxBounds3@3@PBVBVHStructure@Gu@3@@Z 10047320 f   ScbScene.obj
 0001:00046460       ?addAggregate@Scene@Scb@physx@@QAEXAAVAggregate@23@@Z 10047460 f   ScbScene.obj
 0001:000464b0       ?addArticulation@Scene@Scb@physx@@QAEXAAVArticulation@23@@Z 100474b0 f   ScbScene.obj
 0001:00046520       ?addArticulationJoint@Scene@Scb@physx@@QAEXAAVArticulationJoint@23@@Z 10047520 f   ScbScene.obj
 0001:00046590       ?addBroadPhaseRegion@Scene@Scb@physx@@QAEIABUPxBroadPhaseRegion@3@_N@Z 10047590 f   ScbScene.obj
 0001:000465d0       ?addConstraint@Scene@Scb@physx@@QAEXAAVConstraint@23@@Z 100475d0 f   ScbScene.obj
 0001:00046680       ?addMaterial@Scene@Scb@physx@@QAEXABVMaterialCore@Sc@3@@Z 10047680 f   ScbScene.obj
 0001:00046710       ?allocate@?$Array@VMaterialEvent@Scb@physx@@V?$ReflectionAllocator@VMaterialEvent@Scb@physx@@@shdfnd@3@@shdfnd@physx@@IAEPAVMaterialEvent@Scb@3@I@Z 10047710 f i ScbScene.obj
 0001:00046780       ?allocateNotThreadSafe@FlushPool@Cm@physx@@QAEPAXII@Z 10047780 f i ScbScene.obj
 0001:00046860       ?clear@ObjectTracker@Scb@physx@@QAEXXZ 10047860 f   ScbScene.obj
 0001:00046930       ?clearNotThreadSafe@FlushPool@Cm@physx@@QAEXI@Z 10047930 f i ScbScene.obj
 0001:00046980       ?getBroadPhaseCaps@Scene@Scb@physx@@QBE_NAAUPxBroadPhaseCaps@3@@Z 10047980 f   ScbScene.obj
 0001:00046990       ?getBroadPhaseRegions@Scene@Scb@physx@@QBEIPAUPxBroadPhaseRegionInfo@3@II@Z 10047990 f   ScbScene.obj
 0001:000469a0       ?getBroadPhaseType@Scene@Scb@physx@@QBE?AW4Enum@PxBroadPhaseType@3@XZ 100479a0 f   ScbScene.obj
 0001:000469b0       ?getNbBroadPhaseRegions@Scene@Scb@physx@@QBEIXZ 100479b0 f   ScbScene.obj
 0001:000469c0       ?getPxScene@Scene@Scb@physx@@QAEPAVPxScene@3@XZ 100479c0 f   ScbScene.obj
 0001:000469d0       ?getStream@Scene@Scb@physx@@QAEPAEW4Enum@ScbType@3@@Z 100479d0 f   ScbScene.obj
 0001:00046b60       ?growAndPushBack@?$Array@VMaterialEvent@Scb@physx@@V?$ReflectionAllocator@VMaterialEvent@Scb@physx@@@shdfnd@3@@shdfnd@physx@@IAEAAVMaterialEvent@Scb@3@ABV453@@Z 10047b60 f i ScbScene.obj
 0001:00046c00       ?processPendingRemove@Scene@Scb@physx@@QAEXXZ 10047c00 f   ScbScene.obj
 0001:00047260       ?recreate@?$Array@PAVShape@Scb@physx@@V?$InlineAllocator@$0BA@V?$ReflectionAllocator@PAVShape@Scb@physx@@@shdfnd@physx@@@shdfnd@3@@shdfnd@physx@@IAEXI@Z 10048260 f i ScbScene.obj
 0001:000472d0       ?recreate@?$Array@URemovedShape@Scb@physx@@V?$InlineAllocator@$0CA@V?$ReflectionAllocator@URemovedShape@Scb@physx@@@shdfnd@physx@@@shdfnd@3@@shdfnd@physx@@IAEXI@Z 100482d0 f i ScbScene.obj
 0001:00047350       ?recreate@?$Array@VMaterialEvent@Scb@physx@@V?$ReflectionAllocator@VMaterialEvent@Scb@physx@@@shdfnd@3@@shdfnd@physx@@IAEXI@Z 10048350 f i ScbScene.obj
 0001:000473b0       ?release@Scene@Scb@physx@@QAEXXZ 100483b0 f   ScbScene.obj
 0001:00047400       ?remove@ObjectTracker@Scb@physx@@QAEXAAVBase@23@@Z 10048400 f   ScbScene.obj
 0001:00047420       ?removeActor@Scene@Scb@physx@@QAEXAAVBody@23@_N1@Z 10048420 f   ScbScene.obj
 0001:00047660       ?removeActor@Scene@Scb@physx@@QAEXAAVRigidStatic@23@_N1@Z 10048660 f   ScbScene.obj
 0001:000477a0       ?removeAggregate@Scene@Scb@physx@@QAEXAAVAggregate@23@@Z 100487a0 f   ScbScene.obj
 0001:000477e0       ?removeArticulation@Scene@Scb@physx@@QAEXAAVArticulation@23@@Z 100487e0 f   ScbScene.obj
 0001:00047840       ?removeArticulationJoint@Scene@Scb@physx@@QAEXAAVArticulationJoint@23@@Z 10048840 f   ScbScene.obj
 0001:00047880       ?removeBroadPhaseRegion@Scene@Scb@physx@@QAE_NI@Z 10048880 f   ScbScene.obj
 0001:000478c0       ?removeConstraint@Scene@Scb@physx@@QAEXAAVConstraint@23@@Z 100488c0 f   ScbScene.obj
 0001:00047900       ?removeMaterial@Scene@Scb@physx@@QAEXABVMaterialCore@Sc@3@@Z 10048900 f   ScbScene.obj
 0001:00047990       ?resize@?$Array@PAVShape@Scb@physx@@V?$InlineAllocator@$0BA@V?$ReflectionAllocator@PAVShape@Scb@physx@@@shdfnd@physx@@@shdfnd@3@@shdfnd@physx@@QAEXIABQAVShape@Scb@3@@Z 10048990 f i ScbScene.obj
 0001:00047a30       ?resize@?$Array@URemovedShape@Scb@physx@@V?$InlineAllocator@$0CA@V?$ReflectionAllocator@URemovedShape@Scb@physx@@@shdfnd@physx@@@shdfnd@3@@shdfnd@physx@@QAEXIABURemovedShape@Scb@3@@Z 10048a30 f i ScbScene.obj
 0001:00047a80       ?resize@?$Array@VMaterialEvent@Scb@physx@@V?$ReflectionAllocator@VMaterialEvent@Scb@physx@@@shdfnd@3@@shdfnd@physx@@QAEXIABVMaterialEvent@Scb@3@@Z 10048a80 f i ScbScene.obj
 0001:00047ad0       ?scheduleForInsert@ObjectTracker@Scb@physx@@QAEXAAVBase@23@@Z 10048ad0 f   ScbScene.obj
 0001:00047b40       ?scheduleForRemove@ObjectTracker@Scb@physx@@QAEXAAVBase@23@@Z 10048b40 f   ScbScene.obj
 0001:00047bb0       ?scheduleForUpdate@ObjectTracker@Scb@physx@@QAEXAAVBase@23@@Z 10048bb0 f   ScbScene.obj
 0001:00047c00       ?scheduleForUpdate@Scene@Scb@physx@@QAEXAAVBase@23@@Z 10048c00 f   ScbScene.obj
 0001:00047cb0       ?shiftOrigin@Scene@Scb@physx@@QAEXABVPxVec3@3@@Z 10048cb0 f   ScbScene.obj
 0001:00047cc0       ?switchRigidFromNoSim@Scene@Scb@physx@@QAEXAAVRigidObject@23@_N@Z 10048cc0 f   ScbScene.obj
 0001:00047d90       ?switchRigidToNoSim@Scene@Scb@physx@@QAEXAAVRigidObject@23@_N@Z 10048d90 f   ScbScene.obj
 0001:00047e70       ?syncCollisionWriteThroughState@Body@Scb@physx@@QAEXXZ 10048e70 f i ScbScene.obj
 0001:00048120       ?syncEntireScene@Scene@Scb@physx@@QAEXXZ 10049120 f   ScbScene.obj
 0001:00048670       ?syncState@ArticulationJoint@Scb@physx@@QAEXXZ 10049670 f i ScbScene.obj
 0001:000489c0       ?syncState@Body@Scb@physx@@QAEXXZ 100499c0 f i ScbScene.obj
 0001:00049200       ?syncState@Constraint@Scb@physx@@QAEXXZ 1004a200 f i ScbScene.obj
 0001:000492f0       ?syncState@RigidObject@Scb@physx@@QAEXXZ 1004a2f0 f i ScbScene.obj
 0001:00049500       ?syncState@Scene@Scb@physx@@AAEXXZ 1004a500 f   ScbScene.obj
 0001:00049740       ?syncWriteThroughProperties@Scene@Scb@physx@@QAEXXZ 1004a740 f   ScbScene.obj
 0001:00049a40       ?updateLowLevelMaterial@Scene@Scb@physx@@QAEXPAPAVNpMaterial@3@@Z 1004aa40 f   ScbScene.obj
 0001:00049cc0       ?updateMaterial@Scene@Scb@physx@@QAEXABVMaterialCore@Sc@3@@Z 1004acc0 f   ScbScene.obj
 0001:00049d50       ?setMaterialsHelper@Shape@Scb@physx@@AAE_NPBQAVPxMaterial@3@G@Z 1004ad50 f   ScbShape.obj
 0001:00049e50       ?syncState@Shape@Scb@physx@@QAEXXZ 1004ae50 f   ScbShape.obj
 0001:0004b5c0       ?addBody@ArticulationV@Dy@physx@@UAEXXZ 1004c5c0 f i NpImmediateMode.obj
 0001:0004b8c0       ?allocate@?$Array@PAEV?$ReflectionAllocator@PAE@shdfnd@physx@@@shdfnd@physx@@IAEPAPAEI@Z 1004c8c0 f i NpImmediateMode.obj
 0001:0004bb00       ?growAndPushBack@?$Array@VSpatialVector@Cm@physx@@V?$ReflectionAllocator@VSpatialVector@Cm@physx@@@shdfnd@3@@shdfnd@physx@@IAEAAVSpatialVector@Cm@3@ABV453@@Z 1004cb00 f i NpImmediateMode.obj
 0001:0004c170       ?recreate@?$Array@PAEV?$ReflectionAllocator@PAE@shdfnd@physx@@@shdfnd@physx@@IAEXI@Z 1004d170 f i NpImmediateMode.obj
 0001:0004c1d0       ?recreate@?$Array@UArticulationLink@Dy@physx@@V?$ReflectionAllocator@UArticulationLink@Dy@physx@@@shdfnd@3@@shdfnd@physx@@IAEXI@Z 1004d1d0 f i NpImmediateMode.obj
 0001:0004c280       ?removeBody@ArticulationV@Dy@physx@@UAEXXZ 1004d280 f i NpImmediateMode.obj
 0001:0004c290       _PxAddArticulationLink     1004d290 f   NpImmediateMode.obj
 0001:0004c2f0       _PxApplyArticulationCache  1004d2f0 f   NpImmediateMode.obj
 0001:0004c310       _PxBatchConstraints        1004d310 f   NpImmediateMode.obj
 0001:0004c3a0       _PxBatchConstraintsTGS     1004d3a0 f   NpImmediateMode.obj
 0001:0004c430       _PxComputeUnconstrainedVelocities 1004d430 f   NpImmediateMode.obj
 0001:0004c510       _PxComputeUnconstrainedVelocitiesTGS 1004d510 f   NpImmediateMode.obj
 0001:0004c5f0       _PxConstructSolverBodies   1004d5f0 f   NpImmediateMode.obj
 0001:0004c7e0       _PxConstructSolverBodiesTGS 1004d7e0 f   NpImmediateMode.obj
 0001:0004ca00       _PxConstructStaticSolverBody 1004da00 f   NpImmediateMode.obj
 0001:0004ca60       _PxConstructStaticSolverBodyTGS 1004da60 f   NpImmediateMode.obj
 0001:0004cad0       _PxCopyInternalStateToArticulationCache 1004dad0 f   NpImmediateMode.obj
 0001:0004caf0       _PxCreateArticulationCache 1004daf0 f   NpImmediateMode.obj
 0001:0004cd60       _PxCreateContactConstraints 1004dd60 f   NpImmediateMode.obj
 0001:0004cf50       _PxCreateContactConstraintsTGS 1004df50 f   NpImmediateMode.obj
 0001:0004d110       _PxCreateFeatherstoneArticulation 1004e110 f   NpImmediateMode.obj
 0001:0004d2d0       _PxCreateJointConstraints  1004e2d0 f   NpImmediateMode.obj
 0001:0004d440       _PxCreateJointConstraintsTGS 1004e440 f   NpImmediateMode.obj
 0001:0004d600       _PxCreateJointConstraintsWithImmediateShaders 1004e600 f   NpImmediateMode.obj
 0001:0004d640       _PxCreateJointConstraintsWithImmediateShadersTGS 1004e640 f   NpImmediateMode.obj
 0001:0004d6a0       _PxCreateJointConstraintsWithShaders 1004e6a0 f   NpImmediateMode.obj
 0001:0004d6e0       _PxCreateJointConstraintsWithShadersTGS 1004e6e0 f   NpImmediateMode.obj
 0001:0004d740       _PxGenerateContacts        1004e740 f   NpImmediateMode.obj
 0001:0004dbb0       _PxGetAllLinkData          1004ebb0 f   NpImmediateMode.obj
 0001:0004dc80       _PxGetJointData            1004ec80 f   NpImmediateMode.obj
 0001:0004e000       _PxGetLinkArticulation     1004f000 f   NpImmediateMode.obj
 0001:0004e010       _PxGetLinkData             1004f010 f   NpImmediateMode.obj
 0001:0004e040       _PxGetLinkIndex            1004f040 f   NpImmediateMode.obj
 0001:0004e050       _PxGetMutableLinkData      1004f050 f   NpImmediateMode.obj
 0001:0004e0e0       _PxIntegrateSolverBodies   1004f0e0 f   NpImmediateMode.obj
 0001:0004e6a0       _PxIntegrateSolverBodiesTGS 1004f6a0 f   NpImmediateMode.obj
 0001:0004e8d0       _PxRegisterImmediateArticulations 1004f8d0 f   NpImmediateMode.obj
 0001:0004e8e0       _PxReleaseArticulation     1004f8e0 f   NpImmediateMode.obj
 0001:0004e910       _PxReleaseArticulationCache 1004f910 f   NpImmediateMode.obj
 0001:0004e9b0       _PxSetJointData            1004f9b0 f   NpImmediateMode.obj
 0001:0004f0a0       _PxSetMutableLinkData      100500a0 f   NpImmediateMode.obj
 0001:0004f130       _PxSolveConstraints        10050130 f   NpImmediateMode.obj
 0001:0004f4a0       _PxSolveConstraintsTGS     100504a0 f   NpImmediateMode.obj
 0001:0004f900       _PxUpdateArticulationBodies 10050900 f   NpImmediateMode.obj
 0001:0004f920       _PxUpdateArticulationBodiesTGS 10050920 f   NpImmediateMode.obj
 0001:0004f940       ??0PhysXIndicator@physx@@QAE@_N@Z 10050940 f   PhysXIndicatorWindows.obj
 0001:0004fad0       ??1PhysXIndicator@physx@@QAE@XZ 10050ad0 f   PhysXIndicatorWindows.obj
 0001:0004fb10       ?setIsGpu@PhysXIndicator@physx@@QAEX_N@Z 10050b10 f   PhysXIndicatorWindows.obj
 0001:0004fb40       ___local_stdio_printf_options 10050b40 f i PhysXIndicatorWindows.obj
 0001:0004fb50       _sprintf                   10050b50 f i PhysXIndicatorWindows.obj
 0001:0004fb80       _PxCreateCudaClientContextManager 10050b80 f   PxGpu.obj
 0001:0004fba0       _PxCreateCudaContextManager 10050ba0 f   PxGpu.obj
 0001:0004fbe0       _PxGetSuggestedCudaDeviceOrdinal 10050be0 f   PxGpu.obj
 0001:0004fc10       ?PxLoadPhysxGPUModule@physx@@YAXPBD@Z 10050c10 f   PxPhysXGpuModuleLoader.obj
 0001:0004fd20       _PxSetPhysXGpuLoadHook     10050d20 f   PxPhysXGpuModuleLoader.obj
 0001:0004fd30       ?physxDelayHook@@YGP6GHXZIPAUDelayLoadInfo@@@Z 10050d30 f   NpWindowsDelayLoadHook.obj
 0001:0004fdd0       _PxSetPhysXDelayLoadHook   10050dd0 f   NpWindowsDelayLoadHook.obj
 0001:00050090       ?PxvRegisterHeightFields@physx@@YAXXZ 10051090 f   LowLevel_static_32:PxcContactMethodImpl.obj
 0001:000500f0       ??$combineInPlace@UOR@?$BitMapBase@VNonTrackingAllocator@shdfnd@physx@@@Cm@physx@@VNonTrackingAllocator@shdfnd@4@@?$BitMapBase@VNonTrackingAllocator@shdfnd@physx@@@Cm@physx@@QAEXABV012@@Z 100510f0 f i LowLevel_static_32:PxsContext.obj
 0001:00050240       ??$sort@PAXU?$Less@PAX@shdfnd@physx@@V?$ReflectionAllocator@VLargePersistentContactManifold@Gu@physx@@@23@@shdfnd@physx@@YAXPAPAXIABU?$Less@PAX@01@ABV?$ReflectionAllocator@VLargePersistentContactManifold@Gu@physx@@@01@I@Z 10051240 f i LowLevel_static_32:PxsContext.obj
 0001:000505e0       ??$sort@PAXU?$Less@PAX@shdfnd@physx@@V?$ReflectionAllocator@VSpherePersistentContactManifold@Gu@physx@@@23@@shdfnd@physx@@YAXPAPAXIABU?$Less@PAX@01@ABV?$ReflectionAllocator@VSpherePersistentContactManifold@Gu@physx@@@01@I@Z 100515e0 f i LowLevel_static_32:PxsContext.obj
 0001:00050980       ??0PxsContext@physx@@QAE@ABVPxSceneDesc@1@PAVPxTaskManager@1@AAVFlushPool@Cm@1@PAVPxCudaContextManager@1@_K@Z 10051980 f   LowLevel_static_32:PxsContext.obj
 0001:00050e30       ??1?$PoolBase@VLargePersistentContactManifold@Gu@physx@@V?$ReflectionAllocator@VLargePersistentContactManifold@Gu@physx@@@shdfnd@3@@shdfnd@physx@@QAE@XZ 10051e30 f i LowLevel_static_32:PxsContext.obj
 0001:00050ff0       ??1?$PoolBase@VSpherePersistentContactManifold@Gu@physx@@V?$ReflectionAllocator@VSpherePersistentContactManifold@Gu@physx@@@shdfnd@3@@shdfnd@physx@@QAE@XZ 10051ff0 f i LowLevel_static_32:PxsContext.obj
 0001:000511a0       ??1?$PxcThreadCoherentCache@VPxcNpThreadContext@physx@@UPxcNpContext@2@@physx@@QAE@XZ 100521a0 f i LowLevel_static_32:PxsContext.obj
 0001:00051200       ??1PxcNpContext@physx@@QAE@XZ 10052200 f i LowLevel_static_32:PxsContext.obj
 0001:00051260       ??1PxsContext@physx@@QAE@XZ 10052260 f   LowLevel_static_32:PxsContext.obj
 0001:00051400       ?allocate@?$Array@PAXV?$InlineAllocator@$0BAA@V?$ReflectionAllocator@VLargePersistentContactManifold@Gu@physx@@@shdfnd@physx@@@shdfnd@physx@@@shdfnd@physx@@IAEPAPAXI@Z 10052400 f i LowLevel_static_32:PxsContext.obj
 0001:00051490       ?allocate@?$Array@PAXV?$InlineAllocator@$0BAA@V?$ReflectionAllocator@VSpherePersistentContactManifold@Gu@physx@@@shdfnd@physx@@@shdfnd@physx@@@shdfnd@physx@@IAEPAPAXI@Z 10052490 f i LowLevel_static_32:PxsContext.obj
 0001:00051520       ?allocate@?$ReflectionAllocator@VLargePersistentContactManifold@Gu@physx@@@shdfnd@physx@@QAEPAXIPBDH@Z 10052520 f i LowLevel_static_32:PxsContext.obj
 0001:00051580       ?allocate@?$ReflectionAllocator@VPxsContactManager@physx@@@shdfnd@physx@@QAEPAXIPBDH@Z 10052580 f i LowLevel_static_32:PxsContext.obj
 0001:000515e0       ?allocate@?$ReflectionAllocator@VSpherePersistentContactManifold@Gu@physx@@@shdfnd@physx@@QAEPAXIPBDH@Z 100525e0 f i LowLevel_static_32:PxsContext.obj
 0001:00051640       ?beginUpdate@PxsContext@physx@@QAEXXZ 10052640 f   LowLevel_static_32:PxsContext.obj
 0001:00051660       ?createCache@PxsContext@physx@@QAEXAAUCache@Gu@2@PAVPxsContactManager@2@EE@Z 10052660 f   LowLevel_static_32:PxsContext.obj
 0001:00051990       ?createContactManager@PxsContext@physx@@QAEPAVPxsContactManager@2@PAV32@_N@Z 10052990 f   LowLevel_static_32:PxsContext.obj
 0001:00051ab0       ?createTransformCache@PxsContext@physx@@QAEXAAVVirtualAllocatorCallback@shdfnd@2@@Z 10052ab0 f   LowLevel_static_32:PxsContext.obj
 0001:00051b20       ?destroy@?$PoolList@VPxsContactManager@physx@@VPxsContext@2@@Cm@physx@@QAEXXZ 10052b20 f i LowLevel_static_32:PxsContext.obj
 0001:00051bd0       ?destroyCache@PxsContext@physx@@QAEXAAUCache@Gu@2@@Z 10052bd0 f   LowLevel_static_32:PxsContext.obj
 0001:00051c30       ?destroyContactManager@PxsContext@physx@@QAEXPAVPxsContactManager@2@@Z 10052c30 f   LowLevel_static_32:PxsContext.obj
 0001:00051d30       ?extend@?$BitMapBase@VNonTrackingAllocator@shdfnd@physx@@@Cm@physx@@IAEXI@Z 10052d30 f i LowLevel_static_32:PxsContext.obj
 0001:00051de0       ?extend@?$PoolList@VPxsContactManager@physx@@VPxsContext@2@@Cm@physx@@QAE_NXZ 10052de0 f i LowLevel_static_32:PxsContext.obj
 0001:00051f60       ?fetchUpdateContactManager@PxsContext@physx@@QAEXXZ 10052f60 f   LowLevel_static_32:PxsContext.obj
 0001:00052110       ?fillManagerPatchChangedEvents@PxsContext@physx@@QAE_NPAPAVPxsContactManager@2@AAI01@Z 10053110 f   LowLevel_static_32:PxsContext.obj
 0001:00052240       ?fillManagerTouchEvents@PxsContext@physx@@QAE_NPAUPxvContactManagerTouchEvent@2@AAH0101@Z 10053240 f   LowLevel_static_32:PxsContext.obj
 0001:00052390       ?getManagerTouchEventCount@PxsContext@physx@@QBE_NPAH00@Z 10053390 f   LowLevel_static_32:PxsContext.obj
 0001:000523d0       ?getVisualizationParameter@PxsContext@physx@@QBEMW4Enum@PxVisualizationParameter@2@@Z 100533d0 f   LowLevel_static_32:PxsContext.obj
 0001:000523e0       ?growAndPushBack@?$Array@PAXV?$InlineAllocator@$0BAA@V?$ReflectionAllocator@VLargePersistentContactManifold@Gu@physx@@@shdfnd@physx@@@shdfnd@physx@@@shdfnd@physx@@IAEAAPAXABQAX@Z 100533e0 f i LowLevel_static_32:PxsContext.obj
 0001:000524a0       ?growAndPushBack@?$Array@PAXV?$InlineAllocator@$0BAA@V?$ReflectionAllocator@VSpherePersistentContactManifold@Gu@physx@@@shdfnd@physx@@@shdfnd@physx@@@shdfnd@physx@@IAEAAPAXABQAX@Z 100534a0 f i LowLevel_static_32:PxsContext.obj
 0001:00052560       ?growAndPushBack@?$Array@PAXV?$ReflectionAllocator@VLargePersistentContactManifold@Gu@physx@@@shdfnd@physx@@@shdfnd@physx@@IAEAAPAXABQAX@Z 10053560 f i LowLevel_static_32:PxsContext.obj
 0001:00052600       ?growAndPushBack@?$Array@PAXV?$ReflectionAllocator@VSpherePersistentContactManifold@Gu@physx@@@shdfnd@physx@@@shdfnd@physx@@IAEAAPAXABQAX@Z 10053600 f i LowLevel_static_32:PxsContext.obj
 0001:000526a0       ?resetThreadContexts@PxsContext@physx@@QAEXXZ 100536a0 f   LowLevel_static_32:PxsContext.obj
 0001:00052700       ?secondPassUpdateContactManager@PxsContext@physx@@QAEXMPAVPxBaseTask@2@@Z 10053700 f   LowLevel_static_32:PxsContext.obj
 0001:00052720       ?setContactDistance@PxsContext@physx@@QAEXPAV?$Array@MVVirtualAllocator@shdfnd@physx@@@shdfnd@2@@Z 10053720 f   LowLevel_static_32:PxsContext.obj
 0001:00052730       ?setScratchBlock@PxsContext@physx@@QAEXPAXI@Z 10053730 f   LowLevel_static_32:PxsContext.obj
 0001:00052780       ?setVisualizationParameter@PxsContext@physx@@QAEXW4Enum@PxVisualizationParameter@2@M@Z 10053780 f   LowLevel_static_32:PxsContext.obj
 0001:000527a0       ?shiftOrigin@PxsContext@physx@@QAEXABVPxVec3@2@@Z 100537a0 f   LowLevel_static_32:PxsContext.obj
 0001:00052910       ?swapStreams@PxsContext@physx@@QAEXXZ 10053910 f   LowLevel_static_32:PxsContext.obj
 0001:00052920       ?updateContactManager@PxsContext@physx@@QAEXM_N0PAVPxBaseTask@2@1@Z 10053920 f   LowLevel_static_32:PxsContext.obj
 0001:00052950       ??0PxcNpMemBlockPool@physx@@QAE@AAVPxcScratchAllocator@1@@Z 10053950 f   LowLevel_static_32:PxcNpMemBlockPool.obj
 0001:00052b10       ??1PxcNpMemBlockPool@physx@@QAE@XZ 10053b10 f   LowLevel_static_32:PxcNpMemBlockPool.obj
 0001:00052d80       ?acquire@PxcNpMemBlockPool@physx@@AAEPAUPxcNpMemBlock@2@AAV?$Array@PAUPxcNpMemBlock@physx@@V?$ReflectionAllocator@PAUPxcNpMemBlock@physx@@@shdfnd@2@@shdfnd@2@PAI1_N@Z 10053d80 f   LowLevel_static_32:PxcNpMemBlockPool.obj
 0001:00052ef0       ?acquireConstraintBlock@PxcNpMemBlockPool@physx@@QAEPAUPxcNpMemBlock@2@AAV?$Array@PAUPxcNpMemBlock@physx@@V?$ReflectionAllocator@PAUPxcNpMemBlock@physx@@@shdfnd@2@@shdfnd@2@@Z 10053ef0 f   LowLevel_static_32:PxcNpMemBlockPool.obj
 0001:00052f10       ?acquireConstraintMemory@PxcNpMemBlockPool@physx@@QAEXXZ 10053f10 f   LowLevel_static_32:PxcNpMemBlockPool.obj
 0001:00052fd0       ?acquireContactBlock@PxcNpMemBlockPool@physx@@QAEPAUPxcNpMemBlock@2@XZ 10053fd0 f   LowLevel_static_32:PxcNpMemBlockPool.obj
 0001:00052ff0       ?acquireExceptionalConstraintMemory@PxcNpMemBlockPool@physx@@QAEPAEI@Z 10053ff0 f   LowLevel_static_32:PxcNpMemBlockPool.obj
 0001:00053080       ?acquireFrictionBlock@PxcNpMemBlockPool@physx@@QAEPAUPxcNpMemBlock@2@XZ 10054080 f   LowLevel_static_32:PxcNpMemBlockPool.obj
 0001:000530a0       ?acquireNpCacheBlock@PxcNpMemBlockPool@physx@@QAEPAUPxcNpMemBlock@2@XZ 100540a0 f   LowLevel_static_32:PxcNpMemBlockPool.obj
 0001:000530c0       ?allocate@?$Array@PAUPxcNpMemBlock@physx@@V?$ReflectionAllocator@PAUPxcNpMemBlock@physx@@@shdfnd@2@@shdfnd@physx@@IAEPAPAUPxcNpMemBlock@3@I@Z 100540c0 f i LowLevel_static_32:PxcNpMemBlockPool.obj
 0001:00053130       ?getMaxUsedBlockCount@PxcNpMemBlockPool@physx@@QBEIXZ 10054130 f   LowLevel_static_32:PxcNpMemBlockPool.obj
 0001:00053140       ?getPeakConstraintBlockCount@PxcNpMemBlockPool@physx@@QBEIXZ 10054140 f   LowLevel_static_32:PxcNpMemBlockPool.obj
 0001:00053150       ?getUsedBlockCount@PxcNpMemBlockPool@physx@@QBEIXZ 10054150 f   LowLevel_static_32:PxcNpMemBlockPool.obj
 0001:00053160       ?growAndPushBack@?$Array@PAUPxcNpMemBlock@physx@@V?$ReflectionAllocator@PAUPxcNpMemBlock@physx@@@shdfnd@2@@shdfnd@physx@@IAEAAPAUPxcNpMemBlock@3@ABQAU43@@Z 10054160 f i LowLevel_static_32:PxcNpMemBlockPool.obj
 0001:000531f0       ?init@PxcNpMemBlockPool@physx@@QAEXII@Z 100541f0 f   LowLevel_static_32:PxcNpMemBlockPool.obj
 0001:00053330       ?recreate@?$Array@PAUPxcNpMemBlock@physx@@V?$ReflectionAllocator@PAUPxcNpMemBlock@physx@@@shdfnd@2@@shdfnd@physx@@IAEXI@Z 10054330 f i LowLevel_static_32:PxcNpMemBlockPool.obj
 0001:00053390       ?release@PxcNpMemBlockPool@physx@@AAEXAAV?$Array@PAUPxcNpMemBlock@physx@@V?$ReflectionAllocator@PAUPxcNpMemBlock@physx@@@shdfnd@2@@shdfnd@2@PAI@Z 10054390 f   LowLevel_static_32:PxcNpMemBlockPool.obj
 0001:00053410       ?releaseConstraintBlocks@PxcNpMemBlockPool@physx@@QAEXAAV?$Array@PAUPxcNpMemBlock@physx@@V?$ReflectionAllocator@PAUPxcNpMemBlock@physx@@@shdfnd@2@@shdfnd@2@@Z 10054410 f   LowLevel_static_32:PxcNpMemBlockPool.obj
 0001:000534d0       ?releaseConstraintMemory@PxcNpMemBlockPool@physx@@QAEXXZ 100544d0 f   LowLevel_static_32:PxcNpMemBlockPool.obj
 0001:00053660       ?releaseContacts@PxcNpMemBlockPool@physx@@QAEXXZ 10054660 f   LowLevel_static_32:PxcNpMemBlockPool.obj
 0001:000536a0       ?releaseUnusedBlocks@PxcNpMemBlockPool@physx@@QAEXXZ 100546a0 f   LowLevel_static_32:PxcNpMemBlockPool.obj
 0001:00053700       ?resize@?$Array@PAUPxcNpMemBlock@physx@@V?$ReflectionAllocator@PAUPxcNpMemBlock@physx@@@shdfnd@2@@shdfnd@physx@@QAEXIABQAUPxcNpMemBlock@3@@Z 10054700 f i LowLevel_static_32:PxcNpMemBlockPool.obj
 0001:000537a0       ?setBlockCount@PxcNpMemBlockPool@physx@@QAEXI@Z 100547a0 f   LowLevel_static_32:PxcNpMemBlockPool.obj
 0001:00053830       ?swapFrictionStreams@PxcNpMemBlockPool@physx@@QAEXXZ 10054830 f   LowLevel_static_32:PxcNpMemBlockPool.obj
 0001:00053870       ?swapNpCacheStreams@PxcNpMemBlockPool@physx@@QAEXXZ 10054870 f   LowLevel_static_32:PxcNpMemBlockPool.obj
 0001:000538a0       ??0PxcNpThreadContext@physx@@QAE@PAUPxcNpContext@1@@Z 100548a0 f   LowLevel_static_32:PxcNpThreadContext.obj
 0001:00053a50       ??1PxcNpThreadContext@physx@@QAE@XZ 10054a50 f   LowLevel_static_32:PxcNpThreadContext.obj
 0001:00053ae0       ?clearStats@PxcNpThreadContext@physx@@QAEXXZ 10054ae0 f   LowLevel_static_32:PxcNpThreadContext.obj
 0001:00053b20       ?reset@PxcNpThreadContext@physx@@QAEXI@Z 10054b20 f   LowLevel_static_32:PxcNpThreadContext.obj
 0001:00053bd0       ?resize@?$BitMapBase@VNonTrackingAllocator@shdfnd@physx@@@Cm@physx@@QAEXI_N@Z 10054bd0 f i LowLevel_static_32:PxcNpThreadContext.obj
 0001:00053c80       ??0PxsContactManager@physx@@QAE@PAVPxsContext@1@I@Z 10054c80 f   LowLevel_static_32:PxsContactManager.obj
 0001:00053cc0       ?resetFrictionCachedState@PxsContactManager@physx@@QAEXXZ 10054cc0 f   LowLevel_static_32:PxsContactManager.obj
 0001:00053ce0       ?setCCD@PxsContactManager@physx@@QAEX_N@Z 10054ce0 f   LowLevel_static_32:PxsContactManager.obj
 0001:00053d00       ??0PxcNpCacheStreamPair@physx@@QAE@AAVPxcNpMemBlockPool@1@@Z 10054d00 f   LowLevel_static_32:PxcNpCacheStreamPair.obj
 0001:00053d20       ?reserve@PxcNpCacheStreamPair@physx@@QAEPAEI@Z 10054d20 f   LowLevel_static_32:PxcNpCacheStreamPair.obj
 0001:00053d90       ?reset@PxcNpCacheStreamPair@physx@@QAEXXZ 10054d90 f   LowLevel_static_32:PxcNpCacheStreamPair.obj
 0001:00053da0       ??0Articulation@Dy@physx@@QAE@PAX@Z 10054da0 f   LowLevelDynamics_static_32:DyArticulation.obj
 0001:00053ea0       ??1Articulation@Dy@physx@@UAE@XZ 10054ea0 f   LowLevelDynamics_static_32:DyArticulation.obj
 0001:00053fd0       ??_GArticulation@Dy@physx@@UAEPAXI@Z 10054fd0 f i LowLevelDynamics_static_32:DyArticulation.obj
 0001:00053fd0       ??_EArticulation@Dy@physx@@UAEPAXI@Z 10054fd0 f i LowLevelDynamics_static_32:DyArticulation.obj
 0001:00054000       ??_GArticulationV@Dy@physx@@UAEPAXI@Z 10055000 f i LowLevelDynamics_static_32:DyArticulation.obj
 0001:00054000       ??_EArticulationV@Dy@physx@@UAEPAXI@Z 10055000 f i LowLevelDynamics_static_32:DyArticulation.obj
 0001:00054050       ?PxcFsApplyJointDrives@Dy@physx@@YAXAAUFsData@12@PBT__m128@@@Z 10055050 f   LowLevelDynamics_static_32:DyArticulation.obj
 0001:00054580       ?PxcFsComputeJointLoadsSimd@Dy@physx@@YAXABUFsData@12@PIBUFsInertia@12@PIAUMat33V@aos@shdfnd@2@PIBMIIUPxcFsScratchAllocator@12@@Z 10055580 f   LowLevelDynamics_static_32:DyArticulation.obj
 0001:00056c30       ?PxcFsPropagateDrivenInertiaSimd@Dy@physx@@YAXAAUFsData@12@PBUFsInertia@12@PBMPBUMat33V@aos@shdfnd@2@UPxcFsScratchAllocator@12@@Z 10057c30 f   LowLevelDynamics_static_32:DyArticulation.obj
 0001:00057ba0       ?PxcLtbComputeJv@Dy@physx@@YAXPAT__m128@@ABUFsData@12@PBUSpatialVectorV@Cm@2@@Z 10058ba0 f   LowLevelDynamics_static_32:DyArticulation.obj
 0001:00057c90       ?PxcLtbFactor@Dy@physx@@YAXAAUFsData@12@@Z 10058c90 f   LowLevelDynamics_static_32:DyArticulation.obj
 0001:00058dd0       ?PxcLtbProject@Dy@physx@@YAXABUFsData@12@PAUSpatialVectorV@Cm@2@PAT__m128@@@Z 10059dd0 f   LowLevelDynamics_static_32:DyArticulation.obj
 0001:00058e40       ?PxcLtbSolve@Dy@physx@@YAXABUFsData@12@PAT__m128@@PAUSpatialVectorV@Cm@2@@Z 10059e40 f   LowLevelDynamics_static_32:DyArticulation.obj
 0001:00059410       ?PxvRegisterArticulations@Dy@physx@@YAXXZ 1005a410 f   LowLevelDynamics_static_32:DyArticulation.obj
 0001:00059480       ?applyImpulses@Articulation@Dy@physx@@SAXABUFsData@23@PAUSpatialVectorV@Cm@3@1@Z 1005a480 f   LowLevelDynamics_static_32:DyArticulation.obj
 0001:000599a0       ?applyImpulses@PxvArticulationDriveCache@Dy@physx@@SAXABUFsData@23@PAUSpatialVectorV@Cm@3@1@Z 1005a9a0 f   LowLevelDynamics_static_32:DyArticulation.obj
 0001:000599b0       ?computeJointDrives@Articulation@Dy@physx@@AAEXAAUFsData@23@PAT__m128@@PBUArticulationLink@23@PBVPxTransform@3@PBUArticulationJointTransforms@23@PBUMat33V@aos@shdfnd@3@M@Z 1005a9b0 f   LowLevelDynamics_static_32:DyArticulation.obj
 0001:00059f80       ?computeSIS@ArticulationFnsSimdBase@Dy@physx@@SA?AUMat33V@aos@shdfnd@3@ABUFsInertia@23@QBUSpatialVectorV@Cm@3@QAU893@@Z 1005af80 f i LowLevelDynamics_static_32:DyArticulation.obj
 0001:0005a450       ?computeUnconstrainedVelocities@Articulation@Dy@physx@@SAIABUArticulationSolverDesc@23@MAAVPxConstraintAllocator@3@PAUPxSolverConstraintDesc@3@AAIABVPxVec3@3@_KPAUSpatialVectorF@Cm@3@6@Z 1005b450 f   LowLevelDynamics_static_32:DyArticulation.obj
 0001:0005a4e0       ?computeUnconstrainedVelocitiesInternal@Articulation@Dy@physx@@AAEXABUArticulationSolverDesc@23@MABVPxVec3@3@_KPIAUFsInertia@23@PIAUArticulationJointTransforms@23@AAUPxcFsScratchAllocator@23@@Z 1005b4e0 f   LowLevelDynamics_static_32:DyArticulation.obj
 0001:0005aa80       ?computeUnconstrainedVelocitiesTGS@Articulation@Dy@physx@@SAXABUArticulationSolverDesc@23@MABVPxVec3@3@_KPAUSpatialVectorF@Cm@3@3@Z 1005ba80 f   LowLevelDynamics_static_32:DyArticulation.obj
 0001:0005aae0       ?deltaMotionToMotionVelocity@Articulation@Dy@physx@@SAXABUArticulationSolverDesc@23@M@Z 1005bae0 f   LowLevelDynamics_static_32:DyArticulation.obj
 0001:0005ab70       ?fillIndexedManager@Articulation@Dy@physx@@UAEXIAAIAAE@Z 1005bb70 f   LowLevelDynamics_static_32:DyArticulation.obj
 0001:0005ab90       ?getCoefficientMatrix@ArticulationV@Dy@physx@@UAEXMIPBVPxContactJoint@3@IAAVPxArticulationCache@3@@Z 1005bb90 f i LowLevelDynamics_static_32:DyArticulation.obj
 0001:0005aba0       ?updateBodies@SimulationController@Sc@physx@@UAEXPAPAVPxsRigidBody@3@PAII@Z 1005bba0 f i SimulationController_static_32:ScSimulationController.obj
 0001:0005aba0       ?getDataStreamBase@DynamicsContext@Dy@physx@@UAEXAAPAX00@Z 1005bba0 f i LowLevelDynamics_static_32:DyDynamics.obj
 0001:0005aba0       ?shiftOrigin@BroadPhaseABP@Bp@physx@@UAEXABVPxVec3@3@PBVPxBounds3@3@PBM@Z 1005bba0 f i LowLevelAABB_static_32:BpBroadPhaseABP.obj
 0001:0005aba0       ?addDynamics@SimulationController@Sc@physx@@UAEXPAPAVPxsRigidBody@3@PBII@Z 1005bba0 f i SimulationController_static_32:ScSimulationController.obj
 0001:0005aba0       ?getCoefficientMatrixWithLoopJoints@ArticulationV@Dy@physx@@UAEXPAUArticulationLoopConstraint@23@IAAVPxArticulationCache@3@@Z 1005bba0 f i LowLevelDynamics_static_32:DyArticulation.obj
 0001:0005aba0       ?getDataStreamBase@DynamicsTGSContext@Dy@physx@@UAEXAAPAX00@Z 1005bba0 f i LowLevelDynamics_static_32:DyTGSDynamics.obj
 0001:0005aba0       ?gpuDmabackData@SimulationController@Sc@physx@@UAEXAAVPxsTransformCache@3@AAVBoundsArray@Bp@3@AAV?$BitMapBase@VVirtualAllocator@shdfnd@physx@@@Cm@3@@Z 1005bba0 f i SimulationController_static_32:ScSimulationController.obj
 0001:0005aba0       ?getDenseJacobian@ArticulationV@Dy@physx@@UAEXAAVPxArticulationCache@3@AAI1@Z 1005bba0 f i LowLevelDynamics_static_32:DyArticulation.obj
 0001:0005abb0       ?getCurrentTransform@Articulation@Dy@physx@@UBEABVPxTransform@3@I@Z 1005bbb0 f i LowLevelDynamics_static_32:DyArticulation.obj
 0001:0005abd0       ?getDataSizes@Articulation@Dy@physx@@UAEXIAAI00@Z 1005bbd0 f   LowLevelDynamics_static_32:DyArticulation.obj
 0001:0005ac10       ?getDeltaQ@Articulation@Dy@physx@@UBEABVPxQuat@3@I@Z 1005bc10 f i LowLevelDynamics_static_32:DyArticulation.obj
 0001:0005ac20       ?createDeviceMemoryAllocator@PxsDefaultMemoryManager@physx@@UAEPAVVirtualAllocatorCallback@shdfnd@2@I@Z 1005bc20 f i LowLevel_static_32:PxsDefaultMemoryManager.obj
 0001:0005ac20       ?getDof@ArticulationV@Dy@physx@@UAEII@Z 1005bc20 f i LowLevelDynamics_static_32:DyArticulation.obj
 0001:0005ac30       ?getImpulseResponse@Articulation@Dy@physx@@UBEXIPAUSpatialVectorV@Cm@3@ABU453@AAU453@@Z 1005bc30 f   LowLevelDynamics_static_32:DyArticulation.obj
 0001:0005ac30       ?getImpulseResponse@Articulation@Dy@physx@@UBEXIPAUSpatialVectorF@Cm@3@ABVSpatialVector@53@AAV653@@Z 1005bc30 f   LowLevelDynamics_static_32:DyArticulation.obj
 0001:0005ac50       ?getImpulseResponse@PxvArticulationDriveCache@Dy@physx@@SAXABUFsData@23@IABUSpatialVectorV@Cm@3@AAU563@@Z 1005bc50 f   LowLevelDynamics_static_32:DyArticulation.obj
 0001:0005ac60       ?getImpulseSelfResponse@Articulation@Dy@physx@@UBEXIIPAUSpatialVectorF@Cm@3@ABVSpatialVector@53@1AAV653@2@Z 1005bc60 f   LowLevelDynamics_static_32:DyArticulation.obj
 0001:0005ac90       ?getLambda@ArticulationV@Dy@physx@@UAE_NPAUArticulationLoopConstraint@23@IAAVPxArticulationCache@3@1PBMABVPxVec3@3@I@Z 1005bc90 f i LowLevelDynamics_static_32:DyArticulation.obj
 0001:0005aca0       ?getLinkMaxPenBias@Articulation@Dy@physx@@UBEMI@Z 1005bca0 f   LowLevelDynamics_static_32:DyArticulation.obj
 0001:0005acd0       ?getLinkMotionVector@Articulation@Dy@physx@@UBE?AUSpatialVectorV@Cm@3@I@Z 1005bcd0 f   LowLevelDynamics_static_32:DyArticulation.obj
 0001:0005ad00       ?getLinkVelocity@Articulation@Dy@physx@@UBE?AUSpatialVectorV@Cm@3@I@Z 1005bd00 f   LowLevelDynamics_static_32:DyArticulation.obj
 0001:0005ad30       ?getMotionAcceleration@Articulation@Dy@physx@@UBE?AVSpatialVector@Cm@3@I@Z 1005bd30 f   LowLevelDynamics_static_32:DyArticulation.obj
 0001:0005ad70       ?getMotionVelocity@Articulation@Dy@physx@@UBE?AVSpatialVector@Cm@3@I@Z 1005bd70 f   LowLevelDynamics_static_32:DyArticulation.obj
 0001:0005add0       ?initialize@PxvArticulationDriveCache@Dy@physx@@SAXAAUFsData@23@GPBUArticulationLink@23@MIPADI@Z 1005bdd0 f   LowLevelDynamics_static_32:DyArticulation.obj
 0001:0005af60       ?onUpdateSolverDesc@Articulation@Dy@physx@@UAEXXZ 1005bf60 f i LowLevelDynamics_static_32:DyArticulation.obj
 0001:0005afa0       ?prepareDataBlock@Articulation@Dy@physx@@SAXAAUFsData@23@PBUArticulationLink@23@GPAVPxTransform@3@PAVPxQuat@3@PAUFsInertia@23@PAUArticulationJointTransforms@23@I@Z 1005bfa0 f   LowLevelDynamics_static_32:DyArticulation.obj
 0001:0005b370       ?prepareFsData@Articulation@Dy@physx@@SAXAAUFsData@23@PBUArticulationLink@23@@Z 1005c370 f   LowLevelDynamics_static_32:DyArticulation.obj
 0001:0005b520       ?prepareLtbMatrix@Articulation@Dy@physx@@AAEXAAUFsData@23@PBUFsInertia@23@PBVPxTransform@3@PBUArticulationJointTransforms@23@M@Z 1005c520 f   LowLevelDynamics_static_32:DyArticulation.obj
 0001:0005b8d0       ?prepareStaticConstraints@ArticulationV@Dy@physx@@UAEXMMAAVPxsContactManagerOutputIterator@3@AAVThreadContext@23@MMMMMPAUPxSolverBodyData@3@AAVPxsConstraintBlockManager@3@PAUConstraintWriteback@23@@Z 1005c8d0 f i LowLevelDynamics_static_32:DyArticulation.obj
 0001:0005b8e0       ?prepareStaticConstraintsTGS@ArticulationV@Dy@physx@@UAEXMMMMAAVPxsContactManagerOutputIterator@3@AAVThreadContext@23@MMMPAUPxTGSSolverBodyData@3@PAUPxTGSSolverBodyTxInertia@3@AAVPxsConstraintBlockManager@3@PAUConstraintWriteback@23@IM@Z 1005c8e0 f i LowLevelDynamics_static_32:DyArticulation.obj
 0001:0005b8f0       ?pxcFsApplyImpulse@Articulation@Dy@physx@@UAEXIT__m128@@0PAUSpatialVectorF@Cm@3@1@Z 1005c8f0 f   LowLevelDynamics_static_32:DyArticulation.obj
 0001:0005ba70       ?pxcFsApplyImpulses@Articulation@Dy@physx@@UAEXIABT__m128@@0I00PAUSpatialVectorF@Cm@3@1@Z 1005ca70 f   LowLevelDynamics_static_32:DyArticulation.obj
 0001:0005bac0       ?pxcFsGetVelocities@Articulation@Dy@physx@@UAEXIIAAUSpatialVectorV@Cm@3@0@Z 1005cac0 f   LowLevelDynamics_static_32:DyArticulation.obj
 0001:0005bb20       ?pxcFsGetVelocity@Articulation@Dy@physx@@UAE?AUSpatialVectorV@Cm@3@I@Z 1005cb20 f   LowLevelDynamics_static_32:DyArticulation.obj
 0001:0005c0e0       ?pxcFsGetVelocityTGS@Articulation@Dy@physx@@UAE?AUSpatialVectorV@Cm@3@I@Z 1005d0e0 f i LowLevelDynamics_static_32:DyArticulation.obj
 0001:0005c100       ?recordDeltaMotion@Articulation@Dy@physx@@SAXABUArticulationSolverDesc@23@MPAUSpatialVectorF@Cm@3@M@Z 1005d100 f   LowLevelDynamics_static_32:DyArticulation.obj
 0001:0005c390       ?recreate@?$Array@UMat33V@aos@shdfnd@physx@@V?$ReflectionAllocator@UMat33V@aos@shdfnd@physx@@@34@@shdfnd@physx@@IAEXI@Z 1005d390 f i LowLevelDynamics_static_32:DyArticulation.obj
 0001:0005c460       ?recreate@?$Array@USpatialVectorV@Cm@physx@@V?$ReflectionAllocator@USpatialVectorV@Cm@physx@@@shdfnd@3@@shdfnd@physx@@IAEXI@Z 1005d460 f i LowLevelDynamics_static_32:DyArticulation.obj
 0001:0005c520       ?recreate@?$Array@VPxQuat@physx@@V?$ReflectionAllocator@VPxQuat@physx@@@shdfnd@2@@shdfnd@physx@@IAEXI@Z 1005d520 f i LowLevelDynamics_static_32:DyArticulation.obj
 0001:0005c690       ?recreate@?$Array@VPxTransform@physx@@V?$ReflectionAllocator@VPxTransform@physx@@@shdfnd@2@@shdfnd@physx@@IAEXI@Z 1005d690 f i LowLevelDynamics_static_32:DyArticulation.obj
 0001:0005c7b0       ?resize@?$Array@DV?$ReflectionAllocator@D@shdfnd@physx@@@shdfnd@physx@@QAEXIABD@Z 1005d7b0 f i LowLevelDynamics_static_32:DyArticulation.obj
 0001:0005c850       ?resize@?$Array@UMat33V@aos@shdfnd@physx@@V?$ReflectionAllocator@UMat33V@aos@shdfnd@physx@@@34@@shdfnd@physx@@QAEXIABUMat33V@aos@23@@Z 1005d850 f i LowLevelDynamics_static_32:DyArticulation.obj
 0001:0005c8b0       ?resize@?$Array@USpatialVectorV@Cm@physx@@V?$ReflectionAllocator@USpatialVectorV@Cm@physx@@@shdfnd@3@@shdfnd@physx@@QAEXIABUSpatialVectorV@Cm@3@@Z 1005d8b0 f i LowLevelDynamics_static_32:DyArticulation.obj
 0001:0005c900       ?resize@?$Array@VPxQuat@physx@@V?$ReflectionAllocator@VPxQuat@physx@@@shdfnd@2@@shdfnd@physx@@QAEXIABVPxQuat@3@@Z 1005d900 f i LowLevelDynamics_static_32:DyArticulation.obj
 0001:0005ca00       ?resize@?$Array@VPxTransform@physx@@V?$ReflectionAllocator@VPxTransform@physx@@@shdfnd@2@@shdfnd@physx@@QAEXIABVPxTransform@3@@Z 1005da00 f i LowLevelDynamics_static_32:DyArticulation.obj
 0001:0005ca80       ?resize@Articulation@Dy@physx@@UAE_NI@Z 1005da80 f   LowLevelDynamics_static_32:DyArticulation.obj
 0001:0005cc50       ?resize@ArticulationV@Dy@physx@@UAE_NI@Z 1005dc50 f   LowLevelDynamics_static_32:DyArticulation.obj
 0001:0005cc80       ?saveVelocity@Articulation@Dy@physx@@SAXABUArticulationSolverDesc@23@PAUSpatialVectorF@Cm@3@@Z 1005dc80 f   LowLevelDynamics_static_32:DyArticulation.obj
 0001:0005cd00       ?saveVelocityTGS@Articulation@Dy@physx@@SAXABUArticulationSolverDesc@23@M@Z 1005dd00 f   LowLevelDynamics_static_32:DyArticulation.obj
 0001:0005cda0       ?setInertia@Articulation@Dy@physx@@SAXAAUFsInertia@23@ABUPxsBodyCore@3@ABVPxTransform@3@@Z 1005dda0 f   LowLevelDynamics_static_32:DyArticulation.obj
 0001:0005d130       ?setJointTransforms@Articulation@Dy@physx@@SAXAAUArticulationJointTransforms@23@ABVPxTransform@3@1ABUArticulationJointCore@23@@Z 1005e130 f   LowLevelDynamics_static_32:DyArticulation.obj
 0001:0005d900       ?solveInternalConstraints@Articulation@Dy@physx@@UAEXMMPAUSpatialVectorF@Cm@3@0_N1M@Z 1005e900 f   LowLevelDynamics_static_32:DyArticulation.obj
 0001:0005d910       ?storeStaticConstraint@ArticulationV@Dy@physx@@UAE_NABUPxSolverConstraintDesc@3@@Z 1005e910 f i LowLevelDynamics_static_32:DyArticulation.obj
 0001:0005d910       ?removeRegion@BroadPhaseBase@Bp@physx@@UAE_NI@Z 1005e910 f i LowLevelAABB_static_32:BpBroadPhaseSap.obj
 0001:0005d920       ?updateBodies@Articulation@Dy@physx@@SAXABUArticulationSolverDesc@23@M@Z 1005e920 f   LowLevelDynamics_static_32:DyArticulation.obj
 0001:0005e710       ??$median3@UPxSolverConstraintDesc@physx@@$$CBUArticulationStaticConstraintSortPredicate@Dy@2@@internal@shdfnd@physx@@YAXPAUPxSolverConstraintDesc@2@HHABUArticulationStaticConstraintSortPredicate@Dy@2@@Z 1005f710 f i LowLevelDynamics_static_32:DyFeatherstoneArticulation.obj
 0001:0005e870       ??$sort@UPxSolverConstraintDesc@physx@@UArticulationStaticConstraintSortPredicate@Dy@2@V?$ReflectionAllocator@UPxSolverConstraintDesc@physx@@@shdfnd@2@@shdfnd@physx@@YAXPAUPxSolverConstraintDesc@1@IABUArticulationStaticConstraintSortPredicate@Dy@1@ABV?$ReflectionAllocator@UPxSolverConstraintDesc@physx@@@01@I@Z 1005f870 f i LowLevelDynamics_static_32:DyFeatherstoneArticulation.obj
 0001:0005ecb0       ??0ArticulationData@Dy@physx@@QAE@XZ 1005fcb0 f i LowLevelDynamics_static_32:DyFeatherstoneArticulation.obj
 0001:0005f010       ??0FeatherstoneArticulation@Dy@physx@@QAE@PAX@Z 10060010 f   LowLevelDynamics_static_32:DyFeatherstoneArticulation.obj
 0001:0005f0b0       ??1ArticulationData@Dy@physx@@QAE@XZ 100600b0 f   LowLevelDynamics_static_32:DyFeatherstoneArticulation.obj
 0001:0005f4d0       ??1FeatherstoneArticulation@Dy@physx@@UAE@XZ 100604d0 f   LowLevelDynamics_static_32:DyFeatherstoneArticulation.obj
 0001:0005f560       ??DPxQuat@physx@@QBE?AV01@ABV01@@Z 10060560 f i LowLevelDynamics_static_32:DyFeatherstoneArticulation.obj
 0001:0005f640       ??_EBlockAllocator@Dy@physx@@UAEPAXI@Z 10060640 f i LowLevelDynamics_static_32:DyFeatherstoneArticulation.obj
 0001:0005f640       ??_GBlockAllocator@Dy@physx@@UAEPAXI@Z 10060640 f i LowLevelDynamics_static_32:DyFeatherstoneArticulation.obj
 0001:0005f670       ??_EFeatherstoneArticulation@Dy@physx@@UAEPAXI@Z 10060670 f i LowLevelDynamics_static_32:DyFeatherstoneArticulation.obj
 0001:0005f670       ??_GFeatherstoneArticulation@Dy@physx@@UAEPAXI@Z 10060670 f i LowLevelDynamics_static_32:DyFeatherstoneArticulation.obj
 0001:0005f720       ??_GPxsSimulationControllerCallback@physx@@UAEPAXI@Z 10060720 f i SimulationController_static_32:ScScene.obj
 0001:0005f720       ??_EPxsSimulationControllerCallback@physx@@UAEPAXI@Z 10060720 f i SimulationController_static_32:ScScene.obj
 0001:0005f720       ??_EPxConstraintAllocator@physx@@UAEPAXI@Z 10060720 f i LowLevelDynamics_static_32:DyFeatherstoneArticulation.obj
 0001:0005f720       ??_GPxConstraintAllocator@physx@@UAEPAXI@Z 10060720 f i LowLevelDynamics_static_32:DyFeatherstoneArticulation.obj
 0001:0005f750       ?PxcFsFlushVelocity@Dy@physx@@YAXAAVFeatherstoneArticulation@12@PAUSpatialVectorF@Cm@2@@Z 10060750 f   LowLevelDynamics_static_32:DyFeatherstoneArticulation.obj
 0001:0005fdf0       ?PxvRegisterArticulationsReducedCoordinate@Dy@physx@@YAXXZ 10060df0 f   LowLevelDynamics_static_32:DyFeatherstoneArticulation.obj
 0001:0005fe60       ?allocate@?$Array@IV?$ReflectionAllocator@I@shdfnd@physx@@@shdfnd@physx@@IAEPAII@Z 10060e60 f i LowLevelDynamics_static_32:DyFeatherstoneArticulation.obj
 0001:0005fed0       ?allocate@?$ReflectionAllocator@UPxSolverConstraintDesc@physx@@@shdfnd@physx@@QAEPAXIPBDH@Z 10060ed0 f i LowLevelDynamics_static_32:DyFeatherstoneArticulation.obj
 0001:0005ff30       ?allocateScratchSpatialData@FeatherstoneArticulation@Dy@physx@@QAEPAEPAVPxcScratchAllocator@3@IAAUScratchData@23@_N@Z 10060f30 f   LowLevelDynamics_static_32:DyFeatherstoneArticulation.obj
 0001:00060010       ?applyCache@FeatherstoneArticulation@Dy@physx@@UAE_NAAVPxArticulationCache@3@V?$PxFlags@W4Enum@PxArticulationCache@physx@@E@3@@Z 10061010 f   LowLevelDynamics_static_32:DyFeatherstoneArticulation.obj
 0001:00060050       ?computeArticJacobianAxes@Dy@physx@@YAXQAVPxVec3@2@ABVPxQuat@2@1@Z 10061050 f i LowLevelDynamics_static_32:DyFeatherstoneArticulation.obj
 0001:000602a0       ?computeC@FeatherstoneArticulation@Dy@physx@@IAEXAAVArticulationData@23@AAUScratchData@23@@Z 100612a0 f   LowLevelDynamics_static_32:DyFeatherstoneArticulation.obj
 0001:00060770       ?computeD@FeatherstoneArticulation@Dy@physx@@IAEXAAVArticulationData@23@AAUScratchData@23@PAUSpatialVectorF@Cm@3@2@Z 10061770 f   LowLevelDynamics_static_32:DyFeatherstoneArticulation.obj
 0001:00060ff0       ?computeDofs@FeatherstoneArticulation@Dy@physx@@IAEXXZ 10061ff0 f   LowLevelDynamics_static_32:DyFeatherstoneArticulation.obj
 0001:00061160       ?computeLinkVelocities@FeatherstoneArticulation@Dy@physx@@IAEXAAVArticulationData@23@AAUScratchData@23@@Z 10062160 f   LowLevelDynamics_static_32:DyFeatherstoneArticulation.obj
 0001:00061620       ?computeLinkVelocities@FeatherstoneArticulation@Dy@physx@@QAEXAAVArticulationData@23@@Z 10062620 f   LowLevelDynamics_static_32:DyFeatherstoneArticulation.obj
 0001:00061b70       ?computeRelativeTransformC2B@FeatherstoneArticulation@Dy@physx@@IAEXAAVArticulationData@23@@Z 10062b70 f   LowLevelDynamics_static_32:DyFeatherstoneArticulation.obj
 0001:00061bf0       ?computeRelativeTransformC2P@FeatherstoneArticulation@Dy@physx@@IAEXAAVArticulationData@23@@Z 10062bf0 f   LowLevelDynamics_static_32:DyFeatherstoneArticulation.obj
 0001:000622d0       ?computeSpatialInertia@FeatherstoneArticulation@Dy@physx@@IAEXAAVArticulationData@23@@Z 100632d0 f   LowLevelDynamics_static_32:DyFeatherstoneArticulation.obj
 0001:000626e0       ?computeZ@FeatherstoneArticulation@Dy@physx@@IAEXAAVArticulationData@23@ABVPxVec3@3@AAUScratchData@23@@Z 100636e0 f   LowLevelDynamics_static_32:DyFeatherstoneArticulation.obj
 0001:00062b00       ?concludeInternalConstraints@FeatherstoneArticulation@Dy@physx@@MAEX_N@Z 10063b00 f   LowLevelDynamics_static_32:DyFeatherstoneArticulation.obj
 0001:00062b80       ?copyInternalStateToCache@FeatherstoneArticulation@Dy@physx@@UAEXAAVPxArticulationCache@3@V?$PxFlags@W4Enum@PxArticulationCache@physx@@E@3@@Z 10063b80 f   LowLevelDynamics_static_32:DyFeatherstoneArticulation.obj
 0001:00063110       ?copyJointData@FeatherstoneArticulation@Dy@physx@@IAEXAAVArticulationData@23@PAMPBM@Z 10064110 f   LowLevelDynamics_static_32:DyFeatherstoneArticulation.obj
 0001:00063140       ?deltaMotionToMotionVelocity@FeatherstoneArticulation@Dy@physx@@SAXABUArticulationSolverDesc@23@M@Z 10064140 f   LowLevelDynamics_static_32:DyFeatherstoneArticulation.obj
 0001:00063250       ?exp@shdfnd@physx@@YA?AVPxQuat@2@ABVPxVec3@2@@Z 10064250 f i LowLevelDynamics_static_32:DyFeatherstoneArticulation.obj
 0001:00063310       ?fillIndexedManager@FeatherstoneArticulation@Dy@physx@@UAEXIAAIAAE@Z 10064310 f   LowLevelDynamics_static_32:DyFeatherstoneArticulation.obj
 0001:00063350       ?findInputPatches@BlockAllocator@Dy@physx@@UAEPAEPAE@Z 10064350 f i LowLevelDynamics_static_32:DyFeatherstoneArticulation.obj
 0001:00063360       ?getCurrentTransform@FeatherstoneArticulation@Dy@physx@@UBEABVPxTransform@3@I@Z 10064360 f   LowLevelDynamics_static_32:DyFeatherstoneArticulation.obj
 0001:00063380       ?getDataSizes@FeatherstoneArticulation@Dy@physx@@UAEXIAAI00@Z 10064380 f   LowLevelDynamics_static_32:DyFeatherstoneArticulation.obj
 0001:000633b0       ?getDeltaQ@FeatherstoneArticulation@Dy@physx@@UBEABVPxQuat@3@I@Z 100643b0 f   LowLevelDynamics_static_32:DyFeatherstoneArticulation.obj
 0001:000633c0       ?getDeltaVWithDeltaJV@FeatherstoneArticulation@Dy@physx@@KA?AUSpatialVectorF@Cm@3@_NIABVArticulationData@23@PAU453@PAM@Z 100643c0 f   LowLevelDynamics_static_32:DyFeatherstoneArticulation.obj
 0001:00063920       ?getDenseJacobian@FeatherstoneArticulation@Dy@physx@@UAEXAAVPxArticulationCache@3@AAI1@Z 10064920 f   LowLevelDynamics_static_32:DyFeatherstoneArticulation.obj
 0001:00064080       ?getDof@FeatherstoneArticulation@Dy@physx@@UAEII@Z 10065080 f   LowLevelDynamics_static_32:DyFeatherstoneArticulation.obj
 0001:000640a0       ?getDofs@FeatherstoneArticulation@Dy@physx@@UAEIXZ 100650a0 f   LowLevelDynamics_static_32:DyFeatherstoneArticulation.obj
 0001:000640c0       ?getImpulseResponse@FeatherstoneArticulation@Dy@physx@@UBEXIPAUSpatialVectorF@Cm@3@ABVSpatialVector@53@AAV653@@Z 100650c0 f   LowLevelDynamics_static_32:DyFeatherstoneArticulation.obj
 0001:00064210       ?getImpulseResponse@FeatherstoneArticulation@Dy@physx@@UBEXIPAUSpatialVectorV@Cm@3@ABU453@AAU453@@Z 10065210 f   LowLevelDynamics_static_32:DyFeatherstoneArticulation.obj
 0001:00064250       ?getImpulseResponseSlow@FeatherstoneArticulation@Dy@physx@@SAXPAUArticulationLink@23@ABVArticulationData@23@IABVSpatialVector@Cm@3@AAV673@I23PAUSpatialVectorF@73@@Z 10065250 f   LowLevelDynamics_static_32:DyFeatherstoneArticulation.obj
 0001:00064b80       ?getImpulseResponseW@FeatherstoneArticulation@Dy@physx@@KA?AUSpatialVectorF@Cm@3@IABVArticulationData@23@ABU453@@Z 10065b80 f   LowLevelDynamics_static_32:DyFeatherstoneArticulation.obj
 0001:00064cd0       ?getImpulseResponseWithJ@FeatherstoneArticulation@Dy@physx@@KA?AUSpatialVectorF@Cm@3@I_NABVArticulationData@23@PAU453@ABU453@PAM@Z 10065cd0 f   LowLevelDynamics_static_32:DyFeatherstoneArticulation.obj
 0001:00064e20       ?getImpulseSelfResponse@FeatherstoneArticulation@Dy@physx@@SAXPAUArticulationLink@23@_NPAUSpatialVectorF@Cm@3@ABVArticulationData@23@IABUSpatialVectorV@63@AAU863@I45@Z 10065e20 f   LowLevelDynamics_static_32:DyFeatherstoneArticulation.obj
 0001:00065080       ?getImpulseSelfResponse@FeatherstoneArticulation@Dy@physx@@UBEXIIPAUSpatialVectorF@Cm@3@ABVSpatialVector@53@1AAV653@2@Z 10066080 f   LowLevelDynamics_static_32:DyFeatherstoneArticulation.obj
 0001:000650c0       ?getLinkData@ArticulationData@Dy@physx@@QBEAAVArticulationLinkData@23@I@Z 100660c0 f   LowLevelDynamics_static_32:DyFeatherstoneArticulation.obj
 0001:000650e0       ?getLinkMaxPenBias@FeatherstoneArticulation@Dy@physx@@UBEMI@Z 100660e0 f   LowLevelDynamics_static_32:DyFeatherstoneArticulation.obj
 0001:00065100       ?getLinkMotionVector@FeatherstoneArticulation@Dy@physx@@UBE?AUSpatialVectorV@Cm@3@I@Z 10066100 f   LowLevelDynamics_static_32:DyFeatherstoneArticulation.obj
 0001:00065140       ?getLinkVelocity@FeatherstoneArticulation@Dy@physx@@UBE?AUSpatialVectorV@Cm@3@I@Z 10066140 f   LowLevelDynamics_static_32:DyFeatherstoneArticulation.obj
 0001:00065170       ?getMotionAcceleration@FeatherstoneArticulation@Dy@physx@@UBE?AVSpatialVector@Cm@3@I@Z 10066170 f   LowLevelDynamics_static_32:DyFeatherstoneArticulation.obj
 0001:000651a0       ?getMotionVelocity@FeatherstoneArticulation@Dy@physx@@UBE?AVSpatialVector@Cm@3@I@Z 100661a0 f   LowLevelDynamics_static_32:DyFeatherstoneArticulation.obj
 0001:000651f0       ?getResponse@SpatialImpulseResponseMatrix@Dy@physx@@QBE?AUSpatialVectorV@Cm@3@ABU453@@Z 100661f0 f i LowLevelDynamics_static_32:DyFeatherstoneArticulation.obj
 0001:000652f0       ?getZ@FeatherstoneArticulation@Dy@physx@@KAXIABVArticulationData@23@PAUSpatialVectorF@Cm@3@ABU563@@Z 100662f0 f   LowLevelDynamics_static_32:DyFeatherstoneArticulation.obj
 0001:00065420       ?growAndPushBack@?$Array@UPxSolverConstraintDesc@physx@@V?$ReflectionAllocator@UPxSolverConstraintDesc@physx@@@shdfnd@2@@shdfnd@physx@@IAEAAUPxSolverConstraintDesc@3@ABU43@@Z 10066420 f i LowLevelDynamics_static_32:DyFeatherstoneArticulation.obj
 0001:000654e0       ?jcalc@FeatherstoneArticulation@Dy@physx@@IAEXAAVArticulationData@23@_N@Z 100664e0 f   LowLevelDynamics_static_32:DyFeatherstoneArticulation.obj
 0001:000657f0       ?onUpdateSolverDesc@FeatherstoneArticulation@Dy@physx@@UAEXXZ 100667f0 f   LowLevelDynamics_static_32:DyFeatherstoneArticulation.obj
 0001:00065840       ?prepareStaticConstraints@FeatherstoneArticulation@Dy@physx@@UAEXMMAAVPxsContactManagerOutputIterator@3@AAVThreadContext@23@MMMMMPAUPxSolverBodyData@3@AAVPxsConstraintBlockManager@3@PAUConstraintWriteback@23@@Z 10066840 f   LowLevelDynamics_static_32:DyFeatherstoneArticulation.obj
 0001:00065f70       ?prepareStaticConstraintsTGS@FeatherstoneArticulation@Dy@physx@@UAEXMMMMAAVPxsContactManagerOutputIterator@3@AAVThreadContext@23@MMMPAUPxTGSSolverBodyData@3@PAUPxTGSSolverBodyTxInertia@3@AAVPxsConstraintBlockManager@3@PAUConstraintWriteback@23@IM@Z 10066f70 f   LowLevelDynamics_static_32:DyFeatherstoneArticulation.obj
 0001:000667c0       ?propagateImpulseW@FeatherstoneArticulation@Dy@physx@@SA?AUSpatialVectorF@Cm@3@ABUIsInvD@23@ABVPxVec3@3@ABUSpatialSubspaceMatrix@23@ABU453@@Z 100677c0 f   LowLevelDynamics_static_32:DyFeatherstoneArticulation.obj
 0001:000669b0       ?propagateTransform@FeatherstoneArticulation@Dy@physx@@QAE?AVPxTransform@3@IPAUArticulationLink@23@AAVArticulationJointCoreData@23@PAUSpatialVectorF@Cm@3@MABV43@3PAM44ABUSpatialSubspaceMatrix@23@5@Z 100679b0 f   LowLevelDynamics_static_32:DyFeatherstoneArticulation.obj
 0001:00067a40       ?propagateVelocityTestImpulseW@FeatherstoneArticulation@Dy@physx@@SA?AUSpatialVectorF@Cm@3@ABVPxVec3@3@ABUSpatialMatrix@23@ABUInvStIs@23@ABUSpatialSubspaceMatrix@23@ABU453@4@Z 10068a40 f   LowLevelDynamics_static_32:DyFeatherstoneArticulation.obj
 0001:00067f30       ?propagateVelocityW@FeatherstoneArticulation@Dy@physx@@SA?AUSpatialVectorF@Cm@3@ABVPxVec3@3@ABUSpatialMatrix@23@ABUInvStIs@23@ABUSpatialSubspaceMatrix@23@ABU453@PAM4@Z 10068f30 f   LowLevelDynamics_static_32:DyFeatherstoneArticulation.obj
 0001:00068470       ?pxcFsApplyImpulse@FeatherstoneArticulation@Dy@physx@@UAEXIT__m128@@0PAUSpatialVectorF@Cm@3@1@Z 10069470 f   LowLevelDynamics_static_32:DyFeatherstoneArticulation.obj
 0001:00068660       ?pxcFsApplyImpulses@FeatherstoneArticulation@Dy@physx@@UAEXIABT__m128@@0I00PAUSpatialVectorF@Cm@3@1@Z 10069660 f   LowLevelDynamics_static_32:DyFeatherstoneArticulation.obj
 0001:00068d10       ?pxcFsApplyImpulses@FeatherstoneArticulation@Dy@physx@@UAEXPAUSpatialVectorF@Cm@3@@Z 10069d10 f   LowLevelDynamics_static_32:DyFeatherstoneArticulation.obj
 0001:00068f60       ?pxcFsGetVelocities@FeatherstoneArticulation@Dy@physx@@UAEXIIAAUSpatialVectorV@Cm@3@0@Z 10069f60 f   LowLevelDynamics_static_32:DyFeatherstoneArticulation.obj
 0001:00069890       ?pxcFsGetVelocity@FeatherstoneArticulation@Dy@physx@@UAE?AUSpatialVectorV@Cm@3@I@Z 1006a890 f   LowLevelDynamics_static_32:DyFeatherstoneArticulation.obj
 0001:00069db0       ?pxcFsGetVelocityTGS@FeatherstoneArticulation@Dy@physx@@UAE?AUSpatialVectorV@Cm@3@I@Z 1006adb0 f   LowLevelDynamics_static_32:DyFeatherstoneArticulation.obj
 0001:00069dd0       ?recordDeltaMotion@FeatherstoneArticulation@Dy@physx@@SAXABUArticulationSolverDesc@23@MPAUSpatialVectorF@Cm@3@M@Z 1006add0 f   LowLevelDynamics_static_32:DyFeatherstoneArticulation.obj
 0001:0006a520       ?recreate@?$Array@IV?$ReflectionAllocator@I@shdfnd@physx@@@shdfnd@physx@@IAEXI@Z 1006b520 f i LowLevelDynamics_static_32:DyFeatherstoneArticulation.obj
 0001:0006a580       ?recreate@?$Array@MV?$ReflectionAllocator@M@shdfnd@physx@@@shdfnd@physx@@IAEXI@Z 1006b580 f i LowLevelDynamics_static_32:DyFeatherstoneArticulation.obj
 0001:0006a670       ?recreate@?$Array@UArticulationInternalConstraint@Dy@physx@@V?$ReflectionAllocator@UArticulationInternalConstraint@Dy@physx@@@shdfnd@3@@shdfnd@physx@@IAEXI@Z 1006b670 f i LowLevelDynamics_static_32:DyFeatherstoneArticulation.obj
 0001:0006a860       ?recreate@?$Array@UArticulationInternalLockedAxis@Dy@physx@@V?$ReflectionAllocator@UArticulationInternalLockedAxis@Dy@physx@@@shdfnd@3@@shdfnd@physx@@IAEXI@Z 1006b860 f i LowLevelDynamics_static_32:DyFeatherstoneArticulation.obj
 0001:0006a9c0       ?recreate@?$Array@UInvStIs@Dy@physx@@V?$ReflectionAllocator@UInvStIs@Dy@physx@@@shdfnd@3@@shdfnd@physx@@IAEXI@Z 1006b9c0 f i LowLevelDynamics_static_32:DyFeatherstoneArticulation.obj
 0001:0006aa80       ?recreate@?$Array@UIsInvD@Dy@physx@@V?$ReflectionAllocator@UIsInvD@Dy@physx@@@shdfnd@3@@shdfnd@physx@@IAEXI@Z 1006ba80 f i LowLevelDynamics_static_32:DyFeatherstoneArticulation.obj
 0001:0006abf0       ?recreate@?$Array@USpatialImpulseResponseMatrix@Dy@physx@@V?$ReflectionAllocator@USpatialImpulseResponseMatrix@Dy@physx@@@shdfnd@3@@shdfnd@physx@@IAEXI@Z 1006bbf0 f i LowLevelDynamics_static_32:DyFeatherstoneArticulation.obj
 0001:0006ae10       ?recreate@?$Array@USpatialMatrix@Dy@physx@@V?$ReflectionAllocator@USpatialMatrix@Dy@physx@@@shdfnd@3@@shdfnd@physx@@IAEXI@Z 1006be10 f i LowLevelDynamics_static_32:DyFeatherstoneArticulation.obj
 0001:0006afd0       ?recreate@?$Array@USpatialSubspaceMatrix@Dy@physx@@V?$ReflectionAllocator@USpatialSubspaceMatrix@Dy@physx@@@shdfnd@3@@shdfnd@physx@@IAEXI@Z 1006bfd0 f i LowLevelDynamics_static_32:DyFeatherstoneArticulation.obj
 0001:0006b110       ?recreate@?$Array@USpatialVectorF@Cm@physx@@V?$ReflectionAllocator@USpatialVectorF@Cm@physx@@@shdfnd@3@@shdfnd@physx@@IAEXI@Z 1006c110 f i LowLevelDynamics_static_32:DyFeatherstoneArticulation.obj
 0001:0006b200       ?resize@?$Array@USpatialSubspaceMatrix@Dy@physx@@V?$ReflectionAllocator@USpatialSubspaceMatrix@Dy@physx@@@shdfnd@3@@shdfnd@physx@@QAEXIABUSpatialSubspaceMatrix@Dy@3@@Z 1006c200 f i LowLevelDynamics_static_32:DyFeatherstoneArticulation.obj
 0001:0006b2c0       ?resize@FeatherstoneArticulation@Dy@physx@@UAE_NI@Z 1006c2c0 f   LowLevelDynamics_static_32:DyFeatherstoneArticulation.obj
 0001:0006b330       ?resizeJointData@ArticulationData@Dy@physx@@QAEXI@Z 1006c330 f   LowLevelDynamics_static_32:DyFeatherstoneArticulation.obj
 0001:0006b420       ?resizeLinkData@ArticulationData@Dy@physx@@QAEXI@Z 1006c420 f   LowLevelDynamics_static_32:DyFeatherstoneArticulation.obj
 0001:0006b830       ?saveVelocity@FeatherstoneArticulation@Dy@physx@@SAXABUArticulationSolverDesc@23@PAUSpatialVectorF@Cm@3@@Z 1006c830 f   LowLevelDynamics_static_32:DyFeatherstoneArticulation.obj
 0001:0006b8a0       ?setJointPose@ArticulationJointCore@Dy@physx@@QAEXAAVArticulationJointCoreData@23@AAUSpatialSubspaceMatrix@23@_NAAVPxQuat@3@@Z 1006c8a0 f   LowLevelDynamics_static_32:DyFeatherstoneArticulation.obj
 0001:0006c0a0       ?setupInternalConstraints@FeatherstoneArticulation@Dy@physx@@QAEXPAUArticulationLink@23@I_NAAVArticulationData@23@PAUSpatialVectorF@Cm@3@MMMM_N@Z 1006d0a0 f   LowLevelDynamics_static_32:DyFeatherstoneArticulation.obj
 0001:0006c1e0       ?setupInternalConstraintsRecursive@FeatherstoneArticulation@Dy@physx@@QAEXPAUArticulationLink@23@I_NAAVArticulationData@23@PAUSpatialVectorF@Cm@3@MMMMM1IM@Z 1006d1e0 f   LowLevelDynamics_static_32:DyFeatherstoneArticulation.obj
 0001:0006db40       ?setupSolverConstraints@FeatherstoneArticulation@Dy@physx@@QAEIPAUArticulationLink@23@I_NAAVArticulationData@23@PAUSpatialVectorF@Cm@3@AAI@Z 1006eb40 f   LowLevelDynamics_static_32:DyFeatherstoneArticulation.obj
 0001:0006dba0       ?setupSolverConstraintsTGS@FeatherstoneArticulation@Dy@physx@@SAIABUArticulationSolverDesc@23@AAVPxcConstraintBlockStream@3@PAUPxSolverConstraintDesc@3@MMMAAIAAVPxsConstraintBlockManager@3@PAUSpatialVectorF@Cm@3@@Z 1006eba0 f   LowLevelDynamics_static_32:DyFeatherstoneArticulation.obj
 0001:0006dc10       ?solveInternalConstraintRecursive@FeatherstoneArticulation@Dy@physx@@IAE?AUSpatialVectorF@Cm@3@MMPAU453@0_N1MIABU453@AAI3@Z 1006ec10 f   LowLevelDynamics_static_32:DyFeatherstoneArticulation.obj
 0001:0006f2d0       ?solveInternalConstraints@FeatherstoneArticulation@Dy@physx@@MAEXMMPAUSpatialVectorF@Cm@3@0_N1M@Z 100702d0 f   LowLevelDynamics_static_32:DyFeatherstoneArticulation.obj
 0001:0006fdd0       ?solveStaticConstraint@Dy@physx@@YAXABUPxSolverConstraintDesc@2@AAUSpatialVectorF@Cm@2@11ABU452@ABVPxQuat@2@_NMM@Z 10070dd0 f   LowLevelDynamics_static_32:DyFeatherstoneArticulation.obj
 0001:000701e0       ?storeStaticConstraint@FeatherstoneArticulation@Dy@physx@@UAE_NABUPxSolverConstraintDesc@3@@Z 100711e0 f   LowLevelDynamics_static_32:DyFeatherstoneArticulation.obj
 0001:00070230       ?teleportLinks@FeatherstoneArticulation@Dy@physx@@QAEXAAVArticulationData@23@@Z 10071230 f   LowLevelDynamics_static_32:DyFeatherstoneArticulation.obj
 0001:000710d0       ?teleportRootLink@FeatherstoneArticulation@Dy@physx@@UAEXXZ 100720d0 f   LowLevelDynamics_static_32:DyFeatherstoneArticulation.obj
 0001:00071e20       ?translateInertia@FeatherstoneArticulation@Dy@physx@@KAXABVPxMat33@3@AAUSpatialMatrix@23@@Z 10072e20 f   LowLevelDynamics_static_32:DyFeatherstoneArticulation.obj
 0001:00072390       ?writebackInternalConstraints@FeatherstoneArticulation@Dy@physx@@MAEX_N@Z 10073390 f   LowLevelDynamics_static_32:DyFeatherstoneArticulation.obj
 0001:00072420       ?copyToSolverBodyData@Dy@physx@@YAXABVPxVec3@2@0M0ABVPxTransform@2@MMIMAAUPxSolverBodyData@2@I@Z 10073420 f   LowLevelDynamics_static_32:DyRigidBodyToSolverBody.obj
 0001:000727f0       ?createFinalizeSolverContacts@Dy@physx@@YA_NAAUPxSolverContactDesc@2@AAUPxsContactManagerOutput@2@AAVThreadContext@12@MMMMMAAVPxConstraintAllocator@2@PAUSpatialVectorF@Cm@2@@Z 100737f0 f   LowLevelDynamics_static_32:DyContactPrep.obj
 0001:00072b80       ?createFinalizeSolverContacts@Dy@physx@@YA_NAAUPxSolverContactDesc@2@AAUCorrelationBuffer@12@MMMMMAAVPxConstraintAllocator@2@PAUSpatialVectorF@Cm@2@@Z 10073b80 f   LowLevelDynamics_static_32:DyContactPrep.obj
 0001:00073890       ?getContactManagerConstraintDesc@Dy@physx@@YAIABUPxsContactManagerOutput@2@ABVPxsContactManager@2@AAUPxSolverConstraintDesc@2@@Z 10074890 f   LowLevelDynamics_static_32:DyContactPrep.obj
 0001:00073a10       ?setupExtSolverContact@Dy@physx@@YA?AT__m128@@ABVSolverExtBody@12@0ABT3@111111111111ABUContactPoint@Gu@2@AAUSolverContactPointExt@12@1PAUSpatialVectorF@Cm@2@ABUSpatialVectorV@92@5@Z 10074a10 f   LowLevelDynamics_static_32:DyContactPrep.obj
 0001:00074e50       ?createFinalizeSolverContacts4@Dy@physx@@YA?AW4Enum@SolverConstraintPrepState@12@PAPAUPxsContactManagerOutput@2@AAVThreadContext@12@PAUPxSolverContactDesc@2@MMMMMAAVPxConstraintAllocator@2@@Z 10075e50 f   LowLevelDynamics_static_32:DyContactPrep4.obj
 0001:000752b0       ?computeBlockStreamByteSizes4@Dy@physx@@YAXPAUPxSolverContactDesc@2@AAIPAIABUCorrelationBuffer@12@@Z 100762b0 f   LowLevelDynamics_static_32:DyContactPrep4.obj
 0001:000755b0       ?createFinalizeSolverContacts4@Dy@physx@@YA?AW4Enum@SolverConstraintPrepState@12@AAUCorrelationBuffer@12@PAUPxSolverContactDesc@2@MMMMMAAVPxConstraintAllocator@2@@Z 100765b0 f   LowLevelDynamics_static_32:DyContactPrep4.obj
 0001:00075a40       ?getFrictionPatches@Dy@physx@@YA_NAAUCorrelationBuffer@12@PBEIABVPxTransform@2@2M@Z 10076a40 f i LowLevelDynamics_static_32:DyContactPrep4.obj
 0001:00079a90       ?setupSolverConstraint4@Dy@physx@@YA?AW4Enum@SolverConstraintPrepState@12@PIAUPxSolverConstraintPrepDesc@2@MMAAIAAVPxConstraintAllocator@2@I@Z 1007aa90 f   LowLevelDynamics_static_32:DyConstraintSetupBlock.obj
 0001:0007ab40       ?setupSolverConstraint4@Dy@physx@@YA?AW4Enum@SolverConstraintPrepState@12@PIAUSolverConstraintShaderPrepDesc@12@PIAUPxSolverConstraintPrepDesc@2@MMAAIAAVPxConstraintAllocator@2@@Z 1007bb40 f   LowLevelDynamics_static_32:DyConstraintSetupBlock.obj
 0001:0007acf0       ?SetupSolverConstraint@Dy@physx@@YAIAAUSolverConstraintShaderPrepDesc@12@AAUPxSolverConstraintPrepDesc@2@AAVPxConstraintAllocator@2@MMPAUSpatialVectorF@Cm@2@@Z 1007bcf0 f   LowLevelDynamics_static_32:DyConstraintSetup.obj
 0001:0007c0d0       ?preprocessRows@Dy@physx@@YAXPAPAUPx1DConstraint@2@PAU32@PAVPxVec4@2@2IABVPxMat33@2@3MMABUPxConstraintInvMassScale@2@_N55@Z 1007d0d0 f   LowLevelDynamics_static_32:DyConstraintSetup.obj
 0001:0007c3b0       ?setupSolverConstraint@ConstraintHelper@Dy@physx@@SAIAAUPxSolverConstraintPrepDesc@3@AAVPxConstraintAllocator@3@MMPAUSpatialVectorF@Cm@3@@Z 1007d3b0 f   LowLevelDynamics_static_32:DyConstraintSetup.obj
 0001:0007cd70       ??_GSolverCore@Dy@physx@@UAEPAXI@Z 1007dd70 f i LowLevelDynamics_static_32:DySolverControl.obj
 0001:0007cd70       ??_ESolverCoreGeneralPF@Dy@physx@@UAEPAXI@Z 1007dd70 f i LowLevelDynamics_static_32:DySolverControlPF.obj
 0001:0007cd70       ??_ESolverCore@Dy@physx@@UAEPAXI@Z 1007dd70 f i LowLevelDynamics_static_32:DySolverControl.obj
 0001:0007cd70       ??_GSolverCoreGeneralPF@Dy@physx@@UAEPAXI@Z 1007dd70 f i LowLevelDynamics_static_32:DySolverControlPF.obj
 0001:0007cda0       ??_ESolverCoreGeneral@Dy@physx@@UAEPAXI@Z 1007dda0 f i LowLevelDynamics_static_32:DySolverControl.obj
 0001:0007cda0       ??_GSolverCoreGeneral@Dy@physx@@UAEPAXI@Z 1007dda0 f i LowLevelDynamics_static_32:DySolverControl.obj
 0001:0007cdd0       ?SolveBlockParallel@Dy@physx@@YAXPIAUPxSolverConstraintDesc@2@HHHAAUSolverContext@12@AAVBatchIterator@12@QAP6AXPBU32@I1@ZH@Z 1007ddd0 f i LowLevelDynamics_static_32:DySolverControl.obj
 0001:0007cea0       ?SolverCoreRegisterArticulationFns@Dy@physx@@YAXXZ 1007dea0 f   LowLevelDynamics_static_32:DySolverControl.obj
 0001:0007cee0       ?WaitForProgressCount@Dy@physx@@YAXPCHH@Z 1007dee0 f i LowLevelDynamics_static_32:DySolverControl.obj
 0001:0007cf30       ?create@SolverCoreGeneral@Dy@physx@@SAPAV123@_N@Z 1007df30 f   LowLevelDynamics_static_32:DySolverControl.obj
 0001:0007cf60       ?destroyV@SolverCoreGeneralPF@Dy@physx@@UAEXXZ 1007df60 f   LowLevelDynamics_static_32:DySolverControlPF.obj
 0001:0007cf60       ?destroyV@SolverCoreGeneral@Dy@physx@@UAEXXZ 1007df60 f   LowLevelDynamics_static_32:DySolverControl.obj
 0001:0007cf80       ?getSolveBlockTable@Dy@physx@@YAPAP6AXPBUPxSolverConstraintDesc@2@IAAUSolverContext@12@@ZXZ 1007df80 f   LowLevelDynamics_static_32:DySolverControl.obj
 0001:0007cf90       ?getSolveWritebackBlockTable@Dy@physx@@YAPAP6AXPBUPxSolverConstraintDesc@2@IAAUSolverContext@12@@ZXZ 1007df90 f   LowLevelDynamics_static_32:DySolverControl.obj
 0001:0007cfa0       ?getSolverConcludeBlockTable@Dy@physx@@YAPAP6AXPBUPxSolverConstraintDesc@2@IAAUSolverContext@12@@ZXZ 1007dfa0 f   LowLevelDynamics_static_32:DySolverControl.obj
 0001:0007cfb0       ?solveVBlock@Dy@physx@@YAXPAVSolverCore@12@AAUSolverIslandParams@12@@Z 1007dfb0 f   LowLevelDynamics_static_32:DySolverControl.obj
 0001:0007cfc0       ?solveVParallelAndWriteBack@SolverCoreGeneral@Dy@physx@@UBEHAAUSolverIslandParams@23@PAUSpatialVectorF@Cm@3@1@Z 1007dfc0 f   LowLevelDynamics_static_32:DySolverControl.obj
 0001:0007de90       ?solveV_Blocks@SolverCoreGeneral@Dy@physx@@UBEXAAUSolverIslandParams@23@@Z 1007ee90 f   LowLevelDynamics_static_32:DySolverControl.obj
 0001:0007e4e0       ?writeBackV@SolverCoreGeneralPF@Dy@physx@@UBEXPIBUPxSolverConstraintDesc@3@IPAUPxConstraintBatchHeader@3@IPIAUThresholdStreamElement@23@IAAIPAUPxSolverBodyData@3@QAP6AXPBU43@IAAUSolverContext@23@@Z@Z 1007f4e0 f   LowLevelDynamics_static_32:DySolverControlPF.obj
 0001:0007e4e0       ?writeBackV@SolverCoreGeneral@Dy@physx@@UBEXPIBUPxSolverConstraintDesc@3@IPAUPxConstraintBatchHeader@3@IPIAUThresholdStreamElement@23@IAAIPAUPxSolverBodyData@3@QAP6AXPBU43@IAAUSolverContext@23@@Z@Z 1007f4e0 f   LowLevelDynamics_static_32:DySolverControl.obj
 0001:0007e570       ?SetupSolverConstraintStep@Dy@physx@@YAIAAUSolverConstraintShaderPrepDesc@12@AAUPxTGSSolverConstraintPrepDesc@2@AAVPxConstraintAllocator@2@MMMMM@Z 1007f570 f   LowLevelDynamics_static_32:DyTGSContactPrep.obj
 0001:0007e6e0       ?conclude1DStep@Dy@physx@@YAXABUPxSolverConstraintDesc@2@@Z 1007f6e0 f   LowLevelDynamics_static_32:DyTGSContactPrep.obj
 0001:0007e730       ?createFinalizeSolverContactsStep@Dy@physx@@YA_NAAUPxTGSSolverContactDesc@2@AAUCorrelationBuffer@12@MMMMMAAVPxConstraintAllocator@2@@Z 1007f730 f   LowLevelDynamics_static_32:DyTGSContactPrep.obj
 0001:0007f450       ?createFinalizeSolverContactsStep@Dy@physx@@YA_NAAUPxTGSSolverContactDesc@2@AAUPxsContactManagerOutput@2@AAVThreadContext@12@MMMMMAAVPxConstraintAllocator@2@@Z 10080450 f   LowLevelDynamics_static_32:DyTGSContactPrep.obj
 0001:0007f810       ?createHardLimitTGS@ArticulationHelper@Dy@physx@@SAXABUFsData@23@PBUArticulationLink@23@IAAUSolverConstraint1DExtStep@23@ABVPxVec3@3@MM@Z 10080810 f   LowLevelDynamics_static_32:DyTGSContactPrep.obj
 0001:0007fa10       ?createImpulseResponseVector@Dy@physx@@YA?AVSpatialVector@Cm@2@ABVPxVec3@2@0ABVSolverExtBodyStep@12@@Z 10080a10 f   LowLevelDynamics_static_32:DyTGSContactPrep.obj
 0001:0007fb10       ?createTangentialSpringTGS@ArticulationHelper@Dy@physx@@SAXABUFsData@23@PBUArticulationLink@23@IAAUSolverConstraint1DExtStep@23@ABVPxVec3@3@MMM@Z 10080b10 f   LowLevelDynamics_static_32:DyTGSContactPrep.obj
 0001:0007fd60       ?ellipseClamp@shdfnd@physx@@YA?AVPxVec3@2@ABV32@0@Z 10080d60 f i LowLevelDynamics_static_32:DyTGSContactPrep.obj
 0001:0007ff60       ?getImpulseResponse@Dy@physx@@YA?AT__m128@@ABVSolverExtBodyStep@12@ABUSpatialVectorV@Cm@2@AAU562@ABT3@301233_N@Z 10080f60 f   LowLevelDynamics_static_32:DyTGSContactPrep.obj
 0001:000800c0       ?getImpulseResponse@Dy@physx@@YAMABVSolverExtBodyStep@12@ABVSpatialVector@Cm@2@AAV452@MM012MM_N@Z 100810c0 f   LowLevelDynamics_static_32:DyTGSContactPrep.obj
 0001:00080710       ?setSolverConstantsStep@Dy@physx@@YAXAAM000000ABUPx1DConstraint@2@MMMMMMMMMM@Z 10081710 f   LowLevelDynamics_static_32:DyTGSContactPrep.obj
 0001:00080c90       ?setupFinalizeExtSolverContactsStep@Dy@physx@@YAXPBUContactPoint@Gu@2@ABUCorrelationBuffer@12@ABVPxTransform@2@2PAEABVSolverExtBodyStep@12@4MMMMMMMM3MMM@Z 10081c90 f   LowLevelDynamics_static_32:DyTGSContactPrep.obj
 0001:00083da0       ?setupSolverConstraintStep@Dy@physx@@YAIABUPxTGSSolverConstraintPrepDesc@2@AAVPxConstraintAllocator@2@MMMMM@Z 10084da0 f   LowLevelDynamics_static_32:DyTGSContactPrep.obj
 0001:00084c60       ?setupSolverConstraintsTGS@Articulation@Dy@physx@@SAIABUArticulationSolverDesc@23@AAVPxcConstraintBlockStream@3@PAUPxSolverConstraintDesc@3@MMMAAIAAVPxsConstraintBlockManager@3@PAUSpatialVectorF@Cm@3@@Z 10085c60 f   LowLevelDynamics_static_32:DyTGSContactPrep.obj
 0001:00085ae0       ?solve1DBlock@Dy@physx@@YAXABUPxConstraintBatchHeader@2@PBUPxSolverConstraintDesc@2@QBUPxTGSSolverBodyTxInertia@2@MMAAUSolverContext@12@@Z 10086ae0 f   LowLevelDynamics_static_32:DyTGSContactPrep.obj
 0001:00085b30       ?solve1DStep@Dy@physx@@YAXABUPxSolverConstraintDesc@2@QBUPxTGSSolverBodyTxInertia@2@M@Z 10086b30 f   LowLevelDynamics_static_32:DyTGSContactPrep.obj
 0001:00086680       ?solveConclude1DBlock@Dy@physx@@YAXABUPxConstraintBatchHeader@2@PBUPxSolverConstraintDesc@2@QBUPxTGSSolverBodyTxInertia@2@MAAUSolverContext@12@@Z 10087680 f   LowLevelDynamics_static_32:DyTGSContactPrep.obj
 0001:000866d0       ?solveConclude1DBlockExt@Dy@physx@@YAXABUPxConstraintBatchHeader@2@PBUPxSolverConstraintDesc@2@QBUPxTGSSolverBodyTxInertia@2@MAAUSolverContext@12@@Z 100876d0 f   LowLevelDynamics_static_32:DyTGSContactPrep.obj
 0001:00086720       ?solveConcludeContactBlock@Dy@physx@@YAXABUPxConstraintBatchHeader@2@PBUPxSolverConstraintDesc@2@QBUPxTGSSolverBodyTxInertia@2@MAAUSolverContext@12@@Z 10087720 f   LowLevelDynamics_static_32:DyTGSContactPrep.obj
 0001:00086d20       ?solveConcludeContactExtBlock@Dy@physx@@YAXABUPxConstraintBatchHeader@2@PBUPxSolverConstraintDesc@2@QBUPxTGSSolverBodyTxInertia@2@MAAUSolverContext@12@@Z 10087d20 f   LowLevelDynamics_static_32:DyTGSContactPrep.obj
 0001:00087110       ?solveContactBlock@Dy@physx@@YAXABUPxConstraintBatchHeader@2@PBUPxSolverConstraintDesc@2@QBUPxTGSSolverBodyTxInertia@2@MMAAUSolverContext@12@@Z 10088110 f   LowLevelDynamics_static_32:DyTGSContactPrep.obj
 0001:000879c0       ?solveExt1D@Dy@physx@@YAXABUPxSolverConstraintDesc@2@AAT__m128@@111ABT4@22222M1111@Z 100889c0 f   LowLevelDynamics_static_32:DyTGSContactPrep.obj
 0001:00087ef0       ?solveExt1DBlock@Dy@physx@@YAXABUPxConstraintBatchHeader@2@PBUPxSolverConstraintDesc@2@QBUPxTGSSolverBodyTxInertia@2@MMAAUSolverContext@12@@Z 10088ef0 f   LowLevelDynamics_static_32:DyTGSContactPrep.obj
 0001:00087f40       ?solveExt1DStep@Dy@physx@@YAXABUPxSolverConstraintDesc@2@MAAUSolverContext@12@QBUPxTGSSolverBodyTxInertia@2@@Z 10088f40 f   LowLevelDynamics_static_32:DyTGSContactPrep.obj
 0001:000883b0       ?solveExtContactBlock@Dy@physx@@YAXABUPxConstraintBatchHeader@2@PBUPxSolverConstraintDesc@2@QBUPxTGSSolverBodyTxInertia@2@MMAAUSolverContext@12@@Z 100893b0 f   LowLevelDynamics_static_32:DyTGSContactPrep.obj
 0001:000887a0       ?solveExtContactStep@Dy@physx@@YAXABUPxSolverConstraintDesc@2@AAT__m128@@11111111111_NMM@Z 100897a0 f   LowLevelDynamics_static_32:DyTGSContactPrep.obj
 0001:00088ec0       ?writeBack1D@Dy@physx@@YAXABUPxConstraintBatchHeader@2@PBUPxSolverConstraintDesc@2@PAUSolverContext@12@@Z 10089ec0 f   LowLevelDynamics_static_32:DyTGSContactPrep.obj
 0001:00089130       ?writeBack1D@Dy@physx@@YAXABUPxSolverConstraintDesc@2@@Z 1008a130 f   LowLevelDynamics_static_32:DyTGSContactPrep.obj
 0001:00089370       ?writeBackContact@Dy@physx@@YAXABUPxConstraintBatchHeader@2@PBUPxSolverConstraintDesc@2@PAUSolverContext@12@@Z 1008a370 f   LowLevelDynamics_static_32:DyTGSContactPrep.obj
 0001:000893b0       ?writeBackContact@Dy@physx@@YAXABUPxSolverConstraintDesc@2@PAUSolverContext@12@@Z 1008a3b0 f   LowLevelDynamics_static_32:DyTGSContactPrep.obj
 0001:00089490       ?computeBlockStreamByteSizes4@Dy@physx@@YAXPAUPxTGSSolverContactDesc@2@AAIPAIABUCorrelationBuffer@12@@Z 1008a490 f   LowLevelDynamics_static_32:DyTGSContactPrepBlock.obj
 0001:00089720       ?createFinalizeSolverContacts4Step@Dy@physx@@YA?AW4Enum@SolverConstraintPrepState@12@AAUCorrelationBuffer@12@PAUPxTGSSolverContactDesc@2@MMMMMMAAVPxConstraintAllocator@2@@Z 1008a720 f   LowLevelDynamics_static_32:DyTGSContactPrepBlock.obj
 0001:00089bc0       ?createFinalizeSolverContacts4Step@Dy@physx@@YA?AW4Enum@SolverConstraintPrepState@12@PAPAUPxsContactManagerOutput@2@AAVThreadContext@12@PAUPxTGSSolverContactDesc@2@MMMMMMAAVPxConstraintAllocator@2@@Z 1008abc0 f   LowLevelDynamics_static_32:DyTGSContactPrepBlock.obj
 0001:0008d8d0       ?setupSolverConstraintStep4@Dy@physx@@YA?AW4Enum@SolverConstraintPrepState@12@PIAUPxTGSSolverConstraintPrepDesc@2@MMMMAAIAAVPxConstraintAllocator@2@IM@Z 1008e8d0 f   LowLevelDynamics_static_32:DyTGSContactPrepBlock.obj
 0001:0008f450       ?setupSolverConstraintStep4@Dy@physx@@YA?AW4Enum@SolverConstraintPrepState@12@PIAUSolverConstraintShaderPrepDesc@12@PIAUPxTGSSolverConstraintPrepDesc@2@MMMMAAIAAVPxConstraintAllocator@2@M@Z 10090450 f   LowLevelDynamics_static_32:DyTGSContactPrepBlock.obj
 0001:0008f640       ?solve1D4@Dy@physx@@YAXABUPxConstraintBatchHeader@2@PIBUPxSolverConstraintDesc@2@QBUPxTGSSolverBodyTxInertia@2@MMAAUSolverContext@12@@Z 10090640 f   LowLevelDynamics_static_32:DyTGSContactPrepBlock.obj
 0001:0008f670       ?solve1DStep4@Dy@physx@@YAXPIBUPxSolverConstraintDesc@2@QBUPxTGSSolverBodyTxInertia@2@M@Z 10090670 f   LowLevelDynamics_static_32:DyTGSContactPrepBlock.obj
 0001:00091170       ?solveConclude1D4@Dy@physx@@YAXABUPxConstraintBatchHeader@2@PBUPxSolverConstraintDesc@2@QBUPxTGSSolverBodyTxInertia@2@MAAUSolverContext@12@@Z 10092170 f   LowLevelDynamics_static_32:DyTGSContactPrepBlock.obj
 0001:00091200       ?solveConcludeContact4@Dy@physx@@YAXABUPxConstraintBatchHeader@2@PBUPxSolverConstraintDesc@2@QBUPxTGSSolverBodyTxInertia@2@MAAUSolverContext@12@@Z 10092200 f   LowLevelDynamics_static_32:DyTGSContactPrepBlock.obj
 0001:00091230       ?solveContact4@Dy@physx@@YAXABUPxConstraintBatchHeader@2@PIBUPxSolverConstraintDesc@2@QBUPxTGSSolverBodyTxInertia@2@MMAAUSolverContext@12@@Z 10092230 f   LowLevelDynamics_static_32:DyTGSContactPrepBlock.obj
 0001:00091270       ?solveContact4_Block@Dy@physx@@YAXPIBUPxSolverConstraintDesc@2@_NMM@Z 10092270 f   LowLevelDynamics_static_32:DyTGSContactPrepBlock.obj
 0001:00092160       ?writeBack1D4@Dy@physx@@YAXABUPxConstraintBatchHeader@2@PIBUPxSolverConstraintDesc@2@PAUSolverContext@12@@Z 10093160 f   LowLevelDynamics_static_32:DyTGSContactPrepBlock.obj
 0001:000924b0       ?writeBackContact4@Dy@physx@@YAXABUPxConstraintBatchHeader@2@PIBUPxSolverConstraintDesc@2@PAUSolverContext@12@@Z 100934b0 f   LowLevelDynamics_static_32:DyTGSContactPrepBlock.obj
 0001:000924d0       ?writeBackContact4_Block@Dy@physx@@YAXPIBUPxSolverConstraintDesc@2@PAUSolverContext@12@@Z 100934d0 f   LowLevelDynamics_static_32:DyTGSContactPrepBlock.obj
 0001:000926a0       ??0ScratchData@Dy@physx@@QAE@XZ 100936a0 f i LowLevelDynamics_static_32:DyFeatherstoneInverseDynamic.obj
 0001:000926f0       ??1ArticulationBlockAllocator@Dy@physx@@UAE@XZ 100936f0 f i LowLevelDynamics_static_32:DyFeatherstoneInverseDynamic.obj
 0001:00092780       ??_EArticulationBlockAllocator@Dy@physx@@UAEPAXI@Z 10093780 f i LowLevelDynamics_static_32:DyFeatherstoneInverseDynamic.obj
 0001:00092780       ??_GArticulationBlockAllocator@Dy@physx@@UAEPAXI@Z 10093780 f i LowLevelDynamics_static_32:DyFeatherstoneInverseDynamic.obj
 0001:000927a0       ??_EBlockBasedAllocator@Dy@physx@@UAEPAXI@Z 100937a0 f i LowLevelDynamics_static_32:DyFeatherstoneInverseDynamic.obj
 0001:000927a0       ??_GBlockBasedAllocator@Dy@physx@@UAEPAXI@Z 100937a0 f i LowLevelDynamics_static_32:DyFeatherstoneInverseDynamic.obj
 0001:000927f0       ?alloc@PxcScratchAllocator@physx@@QAEPAXI_N@Z 100937f0 f i LowLevelDynamics_static_32:DyFeatherstoneInverseDynamic.obj
 0001:000928b0       ?allocate@BlockBasedAllocator@Dy@physx@@UAEPAEI@Z 100938b0 f i LowLevelDynamics_static_32:DyFeatherstoneInverseDynamic.obj
 0001:000929a0       ?applyCacheToDest@FeatherstoneArticulation@Dy@physx@@QAE_NAAVArticulationData@23@AAVPxArticulationCache@3@PAM222V?$PxFlags@W4Enum@PxArticulationCache@physx@@E@3@@Z 100939a0 f   LowLevelDynamics_static_32:DyFeatherstoneInverseDynamic.obj
 0001:00092d50       ?calculateHFixBase@FeatherstoneArticulation@Dy@physx@@IAEXAAVPxArticulationCache@3@@Z 10093d50 f   LowLevelDynamics_static_32:DyFeatherstoneInverseDynamic.obj
 0001:000933a0       ?calculateHFloatingBase@FeatherstoneArticulation@Dy@physx@@IAEXAAVPxArticulationCache@3@@Z 100943a0 f   LowLevelDynamics_static_32:DyFeatherstoneInverseDynamic.obj
 0001:00094ae0       ?calculateMassMatrixColInv@FeatherstoneArticulation@Dy@physx@@IAEXAAUScratchData@23@@Z 10095ae0 f   LowLevelDynamics_static_32:DyFeatherstoneInverseDynamic.obj
 0001:00095290       ?computeCompositeSpatialInertiaAndZAForceInv@FeatherstoneArticulation@Dy@physx@@IAEXAAVArticulationData@23@AAUScratchData@23@@Z 10096290 f   LowLevelDynamics_static_32:DyFeatherstoneInverseDynamic.obj
 0001:00095750       ?computeGeneralizedForceInv@FeatherstoneArticulation@Dy@physx@@IAEXAAVArticulationData@23@AAUScratchData@23@@Z 10096750 f   LowLevelDynamics_static_32:DyFeatherstoneInverseDynamic.obj
 0001:00095970       ?computeHi@Dy@physx@@YAIAAVArticulationData@12@IPAMPAUSpatialVectorF@Cm@2@@Z 10096970 f   LowLevelDynamics_static_32:DyFeatherstoneInverseDynamic.obj
 0001:00095d70       ?computeLinkAccelerationInv@FeatherstoneArticulation@Dy@physx@@IAEXAAVArticulationData@23@AAUScratchData@23@@Z 10096d70 f   LowLevelDynamics_static_32:DyFeatherstoneInverseDynamic.obj
 0001:000960d0       ?computeRelativeGeneralizedForceInv@FeatherstoneArticulation@Dy@physx@@IAEXAAVArticulationData@23@AAUScratchData@23@@Z 100970d0 f   LowLevelDynamics_static_32:DyFeatherstoneInverseDynamic.obj
 0001:00097500       ?computeZAForceInv@FeatherstoneArticulation@Dy@physx@@IAEXAAVArticulationData@23@AAUScratchData@23@@Z 10098500 f   LowLevelDynamics_static_32:DyFeatherstoneInverseDynamic.obj
 0001:00097880       ?constraintPrep@FeatherstoneArticulation@Dy@physx@@IAEXPAUArticulationLoopConstraint@23@IPAUSpatialVectorF@Cm@3@AAUPxSolverConstraintPrepDesc@3@AAUPxSolverBody@3@AAUPxSolverBodyData@3@PAUPxSolverConstraintDesc@3@AAVPxConstraintAllocator@3@@Z 10098880 f   LowLevelDynamics_static_32:DyFeatherstoneInverseDynamic.obj
 0001:00097d30       ?free@PxcScratchAllocator@physx@@QAEXPAX@Z 10098d30 f i LowLevelDynamics_static_32:DyFeatherstoneInverseDynamic.obj
 0001:00097db0       ?getCoefficientMatrix@FeatherstoneArticulation@Dy@physx@@UAEXMIPBVPxContactJoint@3@IAAVPxArticulationCache@3@@Z 10098db0 f   LowLevelDynamics_static_32:DyFeatherstoneInverseDynamic.obj
 0001:00098660       ?getCoefficientMatrixWithLoopJoints@FeatherstoneArticulation@Dy@physx@@UAEXPAUArticulationLoopConstraint@23@IAAVPxArticulationCache@3@@Z 10099660 f   LowLevelDynamics_static_32:DyFeatherstoneInverseDynamic.obj
 0001:00099120       ?getCoriolisAndCentrifugalForce@FeatherstoneArticulation@Dy@physx@@UAEXAAVPxArticulationCache@3@@Z 1009a120 f   LowLevelDynamics_static_32:DyFeatherstoneInverseDynamic.obj
 0001:000992b0       ?getGeneralizedExternalForce@FeatherstoneArticulation@Dy@physx@@UAEXAAVPxArticulationCache@3@@Z 1009a2b0 f   LowLevelDynamics_static_32:DyFeatherstoneInverseDynamic.obj
 0001:00099820       ?getGeneralizedGravityForce@FeatherstoneArticulation@Dy@physx@@UAEXABVPxVec3@3@AAVPxArticulationCache@3@@Z 1009a820 f   LowLevelDynamics_static_32:DyFeatherstoneInverseDynamic.obj
 0001:00099a90       ?getGeneralizedMassMatrix@FeatherstoneArticulation@Dy@physx@@UAEXAAVPxArticulationCache@3@@Z 1009aa90 f   LowLevelDynamics_static_32:DyFeatherstoneInverseDynamic.obj
 0001:00099c60       ?getGeneralizedMassMatrixCRB@FeatherstoneArticulation@Dy@physx@@UAEXAAVPxArticulationCache@3@@Z 1009ac60 f   LowLevelDynamics_static_32:DyFeatherstoneInverseDynamic.obj
 0001:00099cb0       ?getImpulseResponseInv@FeatherstoneArticulation@Dy@physx@@IAE?AUSpatialVectorF@Cm@3@_NIPAU453@ABVSpatialVector@53@PAM@Z 1009acb0 f   LowLevelDynamics_static_32:DyFeatherstoneInverseDynamic.obj
 0001:0009a350       ?getImpulseResponseSlowInv@FeatherstoneArticulation@Dy@physx@@IAEXPAUArticulationLink@23@ABVArticulationData@23@IABVSpatialVector@Cm@3@AAV673@I23PAM@Z 1009b350 f   LowLevelDynamics_static_32:DyFeatherstoneInverseDynamic.obj
 0001:0009b140       ?getImpulseSelfResponseInv@FeatherstoneArticulation@Dy@physx@@IAEX_NIIPAUSpatialVectorF@Cm@3@ABVSpatialVector@53@2AAV653@3PAM@Z 1009c140 f   LowLevelDynamics_static_32:DyFeatherstoneInverseDynamic.obj
 0001:0009b490       ?getJointForce@FeatherstoneArticulation@Dy@physx@@UAEXAAVPxArticulationCache@3@@Z 1009c490 f   LowLevelDynamics_static_32:DyFeatherstoneInverseDynamic.obj
 0001:0009b640       ?getLambda@FeatherstoneArticulation@Dy@physx@@UAE_NPAUArticulationLoopConstraint@23@IAAVPxArticulationCache@3@1PBMABVPxVec3@3@I@Z 1009c640 f   LowLevelDynamics_static_32:DyFeatherstoneInverseDynamic.obj
 0001:0009bf50       ?growAndPushBack@?$Array@PAUAllocationPage@BlockBasedAllocator@Dy@physx@@V?$ReflectionAllocator@PAUAllocationPage@BlockBasedAllocator@Dy@physx@@@shdfnd@4@@shdfnd@physx@@IAEAAPAUAllocationPage@BlockBasedAllocator@Dy@3@ABQAU4563@@Z 1009cf50 f i LowLevelDynamics_static_32:DyFeatherstoneInverseDynamic.obj
 0001:0009c040       ?initCompositeSpatialInertia@FeatherstoneArticulation@Dy@physx@@IAEXAAVArticulationData@23@PAUSpatialMatrix@23@@Z 1009d040 f   LowLevelDynamics_static_32:DyFeatherstoneInverseDynamic.obj
 0001:0009c410       ?initializeCommonData@FeatherstoneArticulation@Dy@physx@@UAEXXZ 1009d410 f   LowLevelDynamics_static_32:DyFeatherstoneInverseDynamic.obj
 0001:0009c450       ?packJointData@FeatherstoneArticulation@Dy@physx@@UAEXPBMPAM@Z 1009d450 f   LowLevelDynamics_static_32:DyFeatherstoneInverseDynamic.obj
 0001:0009c520       ?release@BlockBasedAllocator@Dy@physx@@QAEXXZ 1009d520 f i LowLevelDynamics_static_32:DyFeatherstoneInverseDynamic.obj
 0001:0009c570       ?reserveConstraintData@ArticulationBlockAllocator@Dy@physx@@UAEPAEI@Z 1009d570 f i LowLevelDynamics_static_32:DyFeatherstoneInverseDynamic.obj
 0001:0009c580       ?reserveFrictionData@ArticulationBlockAllocator@Dy@physx@@UAEPAEI@Z 1009d580 f i LowLevelDynamics_static_32:DyFeatherstoneInverseDynamic.obj
 0001:0009c5a0       ?unpackJointData@FeatherstoneArticulation@Dy@physx@@UAEXPBMPAM@Z 1009d5a0 f   LowLevelDynamics_static_32:DyFeatherstoneInverseDynamic.obj
 0001:0009c630       ??0PxMat33@physx@@QAE@W4PxIDENTITY@1@@Z 1009d630 f i LowLevelDynamics_static_32:DyFeatherstoneForwardDynamic.obj
 0001:0009c680       ??4SpatialMatrix@Dy@physx@@QAEAAU012@$$QAU012@@Z 1009d680 f i LowLevelDynamics_static_32:DyFeatherstoneForwardDynamic.obj
 0001:0009c730       ?computeArticulatedResponseMatrix@FeatherstoneArticulation@Dy@physx@@IAEXAAVArticulationData@23@@Z 1009d730 f   LowLevelDynamics_static_32:DyFeatherstoneForwardDynamic.obj
 0001:0009cfc0       ?computeArticulatedSpatialInertia@FeatherstoneArticulation@Dy@physx@@IAEXAAVArticulationData@23@@Z 1009dfc0 f   LowLevelDynamics_static_32:DyFeatherstoneForwardDynamic.obj
 0001:0009dbc0       ?computeArticulatedSpatialZ@FeatherstoneArticulation@Dy@physx@@IAEXAAVArticulationData@23@AAUScratchData@23@@Z 1009ebc0 f   LowLevelDynamics_static_32:DyFeatherstoneForwardDynamic.obj
 0001:0009e1a0       ?computeIs@FeatherstoneArticulation@Dy@physx@@IAEXAAVArticulationLinkData@23@AAVArticulationJointCoreData@23@I@Z 1009f1a0 f   LowLevelDynamics_static_32:DyFeatherstoneForwardDynamic.obj
 0001:0009e550       ?computeJointAccelerationW@FeatherstoneArticulation@Dy@physx@@IAEXAAVArticulationLinkData@23@AAVArticulationJointCoreData@23@ABUSpatialVectorF@Cm@3@PAMI@Z 1009f550 f   LowLevelDynamics_static_32:DyFeatherstoneForwardDynamic.obj
 0001:0009e680       ?computeLinkAcceleration@FeatherstoneArticulation@Dy@physx@@IAEXAAVArticulationData@23@AAUScratchData@23@@Z 1009f680 f   LowLevelDynamics_static_32:DyFeatherstoneForwardDynamic.obj
 0001:0009ee50       ?computePropagateSpatialInertia@FeatherstoneArticulation@Dy@physx@@KA?AUSpatialMatrix@23@EAAVArticulationJointCoreData@23@ABU423@PBUSpatialVectorF@Cm@3@AAUInvStIs@23@AAUIsInvD@23@ABUSpatialSubspaceMatrix@23@@Z 1009fe50 f   LowLevelDynamics_static_32:DyFeatherstoneForwardDynamic.obj
 0001:0009f970       ?computeSphericalJointPositions@Dy@physx@@YA?AVPxQuat@2@ABV32@00PAMABUSpatialSubspaceMatrix@12@@Z 100a0970 f   LowLevelDynamics_static_32:DyFeatherstoneForwardDynamic.obj
 0001:000a0010       ?computeUnconstrainedVelocities@FeatherstoneArticulation@Dy@physx@@SAIABUArticulationSolverDesc@23@MAAVPxConstraintAllocator@3@PAUPxSolverConstraintDesc@3@AAIABVPxVec3@3@_KPAUSpatialVectorF@Cm@3@6@Z 100a1010 f   LowLevelDynamics_static_32:DyFeatherstoneForwardDynamic.obj
 0001:000a0070       ?computeUnconstrainedVelocitiesInternal@FeatherstoneArticulation@Dy@physx@@IAEXABVPxVec3@3@PAUSpatialVectorF@Cm@3@1@Z 100a1070 f   LowLevelDynamics_static_32:DyFeatherstoneForwardDynamic.obj
 0001:000a04c0       ?computeUnconstrainedVelocitiesTGS@FeatherstoneArticulation@Dy@physx@@SAXABUArticulationSolverDesc@23@MABVPxVec3@3@_KPAUSpatialVectorF@Cm@3@3@Z 100a14c0 f   LowLevelDynamics_static_32:DyFeatherstoneForwardDynamic.obj
 0001:000a04f0       ?constructSpatialMatrix@SpatialMatrix@Dy@physx@@SA?AU123@ABUSpatialVectorF@Cm@3@0@Z 100a14f0 f i LowLevelDynamics_static_32:DyFeatherstoneForwardDynamic.obj
 0001:000a06c0       ?getInverse@PxMat33@physx@@QBE?BV12@XZ 100a16c0 f i LowLevelDynamics_static_32:DyFeatherstoneForwardDynamic.obj
 0001:000a0910       ?getInverse@SpatialMatrix@Dy@physx@@QAE?AU123@XZ 100a1910 f i LowLevelDynamics_static_32:DyFeatherstoneForwardDynamic.obj
 0001:000a15c0       ?getJointAcceleration@FeatherstoneArticulation@Dy@physx@@UAEXABVPxVec3@3@AAVPxArticulationCache@3@@Z 100a25c0 f   LowLevelDynamics_static_32:DyFeatherstoneForwardDynamic.obj
 0001:000a1db0       ?propagateLinksDown@FeatherstoneArticulation@Dy@physx@@QAEXAAVArticulationData@23@PAM1PAUSpatialVectorF@Cm@3@@Z 100a2db0 f   LowLevelDynamics_static_32:DyFeatherstoneForwardDynamic.obj
 0001:000a3000       ?recomputeAcceleration@FeatherstoneArticulation@Dy@physx@@QBE?AVSpatialVector@Cm@3@IM@Z 100a4000 f   LowLevelDynamics_static_32:DyFeatherstoneForwardDynamic.obj
 0001:000a3740       ?recomputeAccelerations@FeatherstoneArticulation@Dy@physx@@QAEXM@Z 100a4740 f   LowLevelDynamics_static_32:DyFeatherstoneForwardDynamic.obj
 0001:000a3960       ?updateBodies@FeatherstoneArticulation@Dy@physx@@SAXABUArticulationSolverDesc@23@M@Z 100a4960 f   LowLevelDynamics_static_32:DyFeatherstoneForwardDynamic.obj
 0001:000a3980       ?updateBodies@FeatherstoneArticulation@Dy@physx@@SAXPAV123@M_N@Z 100a4980 f   LowLevelDynamics_static_32:DyFeatherstoneForwardDynamic.obj
 0001:000a3d40       ?updateBodiesTGS@FeatherstoneArticulation@Dy@physx@@SAXABUArticulationSolverDesc@23@M@Z 100a4d40 f   LowLevelDynamics_static_32:DyFeatherstoneForwardDynamic.obj
 0001:000a3d60       ?updateJointProperties@FeatherstoneArticulation@Dy@physx@@QAEXPBMPBUSpatialVectorF@Cm@3@PAM2@Z 100a4d60 f   LowLevelDynamics_static_32:DyFeatherstoneForwardDynamic.obj
 0001:000a3f40       ?updateRootBody@FeatherstoneArticulation@Dy@physx@@SAXABUSpatialVectorF@Cm@3@ABVPxTransform@3@AAVArticulationData@23@M@Z 100a4f40 f   LowLevelDynamics_static_32:DyFeatherstoneForwardDynamic.obj
 0001:000a41f0       ??$sort@UPxSolverConstraintDesc@physx@@UConstraintLess@Dy@2@V?$ReflectionAllocator@UPxSolverConstraintDesc@physx@@@shdfnd@2@@shdfnd@physx@@YAXPAUPxSolverConstraintDesc@1@IABUConstraintLess@Dy@1@ABV?$ReflectionAllocator@UPxSolverConstraintDesc@physx@@@01@I@Z 100a51f0 f i LowLevelDynamics_static_32:DyTGSDynamics.obj
 0001:000a4660       ??0DynamicsTGSContext@Dy@physx@@IAE@PAVPxcNpMemBlockPool@2@AAVPxcScratchAllocator@2@AAVFlushPool@Cm@2@AAUPxvSimStats@2@PAVPxTaskManager@2@PAVVirtualAllocatorCallback@shdfnd@2@PAVPxsMaterialManager@2@PAVIslandSim@IG@2@_K_N99M@Z 100a5660 f   LowLevelDynamics_static_32:DyTGSDynamics.obj
 0001:000a4bc0       ??1?$PxcThreadCoherentCache@VThreadContext@Dy@physx@@VPxcNpMemBlockPool@3@@physx@@QAE@XZ 100a5bc0 f i LowLevelDynamics_static_32:DyTGSDynamics.obj
 0001:000a4c20       ??1Context@Dy@physx@@MAE@XZ 100a5c20 f i LowLevelDynamics_static_32:DyTGSDynamics.obj
 0001:000a4cf0       ??1DynamicsTGSContext@Dy@physx@@MAE@XZ 100a5cf0 f   LowLevelDynamics_static_32:DyTGSDynamics.obj
 0001:000a4ff0       ??1ThreadContext@Dy@physx@@QAE@XZ 100a5ff0 f i LowLevelDynamics_static_32:DyTGSDynamics.obj
 0001:000a51e0       ??_EPxgUpdateBodyAndShapeStatusTask@@UAEPAXI@Z 100a61e0 f i SimulationController_static_32:ScScene.obj
 0001:000a51e0       ??_EOnOverlapCreatedTask@@UAEPAXI@Z 100a61e0 f i SimulationController_static_32:ScScene.obj
 0001:000a51e0       ??_EPxsCreateFinalizeContactsTask@Dy@physx@@UAEPAXI@Z 100a61e0 f i LowLevelDynamics_static_32:DyDynamics.obj
 0001:000a51e0       ??_GPxsCreateFinalizeContactsTask@Dy@physx@@UAEPAXI@Z 100a61e0 f i LowLevelDynamics_static_32:DyDynamics.obj
 0001:000a51e0       ??_EPxsCMDiscreteUpdateTask@@UAEPAXI@Z 100a61e0 f i LowLevel_static_32:PxsNphaseImplementationContext.obj
 0001:000a51e0       ??_EPxsCreateArticConstraintsSubTask@Dy@physx@@UAEPAXI@Z 100a61e0 f i LowLevelDynamics_static_32:DyTGSDynamics.obj
 0001:000a51e0       ??_GArticulationTask@Dy@physx@@UAEPAXI@Z 100a61e0 f i LowLevelDynamics_static_32:DyTGSDynamics.obj
 0001:000a51e0       ??_ESetupDescsTask@Dy@physx@@UAEPAXI@Z 100a61e0 f i LowLevelDynamics_static_32:DyTGSDynamics.obj
 0001:000a51e0       ??_GPxgUpdateBodyAndShapeStatusTask@@UAEPAXI@Z 100a61e0 f i SimulationController_static_32:ScScene.obj
 0001:000a51e0       ??_GOnOverlapCreatedTask@@UAEPAXI@Z 100a61e0 f i SimulationController_static_32:ScScene.obj
 0001:000a51e0       ??_EArticulationTask@Dy@physx@@UAEPAXI@Z 100a61e0 f i LowLevelDynamics_static_32:DyTGSDynamics.obj
 0001:000a51e0       ??_GPxsCreateArticConstraintsSubTask@Dy@physx@@UAEPAXI@Z 100a61e0 f i LowLevelDynamics_static_32:DyTGSDynamics.obj
 0001:000a51e0       ??_GPxsCMDiscreteUpdateTask@@UAEPAXI@Z 100a61e0 f i LowLevel_static_32:PxsNphaseImplementationContext.obj
 0001:000a51e0       ??_GSetupDescsTask@Dy@physx@@UAEPAXI@Z 100a61e0 f i LowLevelDynamics_static_32:DyTGSDynamics.obj
 0001:000a5210       ??_GContext@Dy@physx@@MAEPAXI@Z 100a6210 f i LowLevelDynamics_static_32:DyTGSDynamics.obj
 0001:000a5210       ??_EContext@Dy@physx@@MAEPAXI@Z 100a6210 f i LowLevelDynamics_static_32:DyTGSDynamics.obj
 0001:000a5240       ??_GCopyBackTask@Dy@physx@@UAEPAXI@Z 100a6240 f i LowLevelDynamics_static_32:DyTGSDynamics.obj
 0001:000a5240       ??_ECopyBackTask@Dy@physx@@UAEPAXI@Z 100a6240 f i LowLevelDynamics_static_32:DyTGSDynamics.obj
 0001:000a5270       ??_GDynamicsTGSContext@Dy@physx@@MAEPAXI@Z 100a6270 f i LowLevelDynamics_static_32:DyTGSDynamics.obj
 0001:000a5270       ??_EDynamicsTGSContext@Dy@physx@@MAEPAXI@Z 100a6270 f i LowLevelDynamics_static_32:DyTGSDynamics.obj
 0001:000a52a0       ??_GParallelSolveTask@Dy@physx@@UAEPAXI@Z 100a62a0 f i LowLevelDynamics_static_32:DyTGSDynamics.obj
 0001:000a52a0       ??_EPxsSolverCreateFinalizeConstraintsTask@Dy@physx@@UAEPAXI@Z 100a62a0 f i LowLevelDynamics_static_32:DyDynamics.obj
 0001:000a52a0       ??_EUpdateArticTask@Dy@physx@@UAEPAXI@Z 100a62a0 f i LowLevelDynamics_static_32:DyTGSDynamics.obj
 0001:000a52a0       ??_GPxsCreateArticConstraintsTask@Dy@physx@@UAEPAXI@Z 100a62a0 f i LowLevelDynamics_static_32:DyDynamics.obj
 0001:000a52a0       ??_GBroadPhaseBatchUpdateWorkTask@Bp@physx@@UAEPAXI@Z 100a62a0 f i LowLevelAABB_static_32:BpBroadPhaseSap.obj
 0001:000a52a0       ??_ESetupArticulationTask@Dy@physx@@UAEPAXI@Z 100a62a0 f i LowLevelDynamics_static_32:DyTGSDynamics.obj
 0001:000a52a0       ??_EScAfterIntegrationTask@@UAEPAXI@Z 100a62a0 f i SimulationController_static_32:ScScene.obj
 0001:000a52a0       ??_ESolverArticulationUpdateTask@Dy@physx@@UAEPAXI@Z 100a62a0 f i LowLevelDynamics_static_32:DyDynamics.obj
 0001:000a52a0       ??_GSetupArticulationTask@Dy@physx@@UAEPAXI@Z 100a62a0 f i LowLevelDynamics_static_32:DyTGSDynamics.obj
 0001:000a52a0       ??_GTriggerContactTask@Sc@physx@@UAEPAXI@Z 100a62a0 f i SimulationController_static_32:ScNPhaseCore.obj
 0001:000a52a0       ??_GScArticBeforeSolverTask@@UAEPAXI@Z 100a62a0 f i SimulationController_static_32:ScScene.obj
 0001:000a52a0       ??_EBroadPhaseBatchUpdateWorkTask@Bp@physx@@UAEPAXI@Z 100a62a0 f i LowLevelAABB_static_32:BpBroadPhaseSap.obj
 0001:000a52a0       ??_GPartitionTask@Dy@physx@@UAEPAXI@Z 100a62a0 f i LowLevelDynamics_static_32:DyTGSDynamics.obj
 0001:000a52a0       ??_EScArticBeforeSolverTask@@UAEPAXI@Z 100a62a0 f i SimulationController_static_32:ScScene.obj
 0001:000a52a0       ??_ESetupArticulationInternalConstraintsTask@Dy@physx@@UAEPAXI@Z 100a62a0 f i LowLevelDynamics_static_32:DyTGSDynamics.obj
 0001:000a52a0       ??_ESolveIslandTask@Dy@physx@@UAEPAXI@Z 100a62a0 f i LowLevelDynamics_static_32:DyTGSDynamics.obj
 0001:000a52a0       ??_GSetupSolverConstraintsTask@Dy@physx@@UAEPAXI@Z 100a62a0 f i LowLevelDynamics_static_32:DyTGSDynamics.obj
 0001:000a52a0       ??_EFinishSolveIslandTask@Dy@physx@@UAEPAXI@Z 100a62a0 f i LowLevelDynamics_static_32:DyTGSDynamics.obj
 0001:000a52a0       ??_EPartitionTask@Dy@physx@@UAEPAXI@Z 100a62a0 f i LowLevelDynamics_static_32:DyTGSDynamics.obj
 0001:000a52a0       ??_EParallelSolveTask@Dy@physx@@UAEPAXI@Z 100a62a0 f i LowLevelDynamics_static_32:DyTGSDynamics.obj
 0001:000a52a0       ??_ESetupSolverConstraintsTask@Dy@physx@@UAEPAXI@Z 100a62a0 f i LowLevelDynamics_static_32:DyTGSDynamics.obj
 0001:000a52a0       ??_GScAfterIntegrationTask@@UAEPAXI@Z 100a62a0 f i SimulationController_static_32:ScScene.obj
 0001:000a52a0       ??_GUpdateArticTask@Dy@physx@@UAEPAXI@Z 100a62a0 f i LowLevelDynamics_static_32:DyTGSDynamics.obj
 0001:000a52a0       ??_EPxsCreateArticConstraintsTask@Dy@physx@@UAEPAXI@Z 100a62a0 f i LowLevelDynamics_static_32:DyDynamics.obj
 0001:000a52a0       ??_GSolverArticulationUpdateTask@Dy@physx@@UAEPAXI@Z 100a62a0 f i LowLevelDynamics_static_32:DyDynamics.obj
 0001:000a52a0       ??_GFinishSolveIslandTask@Dy@physx@@UAEPAXI@Z 100a62a0 f i LowLevelDynamics_static_32:DyTGSDynamics.obj
 0001:000a52a0       ??_GKinematicCopyTGSTask@Dy@physx@@UAEPAXI@Z 100a62a0 f i LowLevelDynamics_static_32:DyTGSDynamics.obj
 0001:000a52a0       ??_ETriggerContactTask@Sc@physx@@UAEPAXI@Z 100a62a0 f i SimulationController_static_32:ScNPhaseCore.obj
 0001:000a52a0       ??_GSetupArticulationInternalConstraintsTask@Dy@physx@@UAEPAXI@Z 100a62a0 f i LowLevelDynamics_static_32:DyTGSDynamics.obj
 0001:000a52a0       ??_GPxsSolverCreateFinalizeConstraintsTask@Dy@physx@@UAEPAXI@Z 100a62a0 f i LowLevelDynamics_static_32:DyDynamics.obj
 0001:000a52a0       ??_GSolveIslandTask@Dy@physx@@UAEPAXI@Z 100a62a0 f i LowLevelDynamics_static_32:DyTGSDynamics.obj
 0001:000a52a0       ??_EKinematicCopyTGSTask@Dy@physx@@UAEPAXI@Z 100a62a0 f i LowLevelDynamics_static_32:DyTGSDynamics.obj
 0001:000a52d0       ??_EPreIntegrateParallelTask@Dy@physx@@UAEPAXI@Z 100a62d0 f i LowLevelDynamics_static_32:DyTGSDynamics.obj
 0001:000a52d0       ??_GSetupSolverConstraintsSubTask@Dy@physx@@UAEPAXI@Z 100a62d0 f i LowLevelDynamics_static_32:DyTGSDynamics.obj
 0001:000a52d0       ??_GProcessAggPairsBase@Bp@physx@@UAEPAXI@Z 100a62d0 f i LowLevelAABB_static_32:BpAABBManager.obj
 0001:000a52d0       ??_EPreIntegrateTask@Dy@physx@@UAEPAXI@Z 100a62d0 f i LowLevelDynamics_static_32:DyTGSDynamics.obj
 0001:000a52d0       ??_EProcessAggPairsBase@Bp@physx@@UAEPAXI@Z 100a62d0 f i LowLevelAABB_static_32:BpAABBManager.obj
 0001:000a52d0       ??_ESetupSolverConstraintsSubTask@Dy@physx@@UAEPAXI@Z 100a62d0 f i LowLevelDynamics_static_32:DyTGSDynamics.obj
 0001:000a52d0       ??_GPreIntegrateParallelTask@Dy@physx@@UAEPAXI@Z 100a62d0 f i LowLevelDynamics_static_32:DyTGSDynamics.obj
 0001:000a52d0       ??_GPreIntegrateTask@Dy@physx@@UAEPAXI@Z 100a62d0 f i LowLevelDynamics_static_32:DyTGSDynamics.obj
 0001:000a5300       ?allocate@?$Array@VSpatialVector@Cm@physx@@V?$ReflectionAllocator@VSpatialVector@Cm@physx@@@shdfnd@3@@shdfnd@physx@@IAEPAVSpatialVector@Cm@3@I@Z 100a6300 f i LowLevelDynamics_static_32:DyTGSDynamics.obj
 0001:000a5370       ?allocate@FlushPool@Cm@physx@@QAEPAXII@Z 100a6370 f i LowLevelDynamics_static_32:DyTGSDynamics.obj
 0001:000a5470       ?copyBackBodies@DynamicsTGSContext@Dy@physx@@IAEXABUSolverIslandObjectsStep@23@PAUPxTGSSolverBodyVel@3@PAUPxTGSSolverBodyTxInertia@3@PAUPxTGSSolverBodyData@3@MAAVIslandSim@IG@3@II@Z 100a6470 f   LowLevelDynamics_static_32:DyTGSDynamics.obj
 0001:000a6240       ?copyToSolverBodyDataStep@Dy@physx@@YAXABVPxVec3@2@0M0ABVPxTransform@2@MMIMMI_NAAUPxTGSSolverBodyVel@2@AAUPxTGSSolverBodyTxInertia@2@AAUPxTGSSolverBodyData@2@@Z 100a7240 f   LowLevelDynamics_static_32:DyTGSDynamics.obj
 0001:000a6900       ?createSolverConstraints@DynamicsTGSContext@Dy@physx@@IAEXPAUPxSolverConstraintDesc@3@PAUPxConstraintBatchHeader@3@IAAVPxsContactManagerOutputIterator@3@AAVThreadContext@23@3MMMI@Z 100a7900 f   LowLevelDynamics_static_32:DyTGSDynamics.obj
 0001:000a7160       ?createTGSDynamicsContext@Dy@physx@@YAPAVContext@12@PAVPxcNpMemBlockPool@2@AAVPxcScratchAllocator@2@AAVFlushPool@Cm@2@AAUPxvSimStats@2@PAVPxTaskManager@2@PAVVirtualAllocatorCallback@shdfnd@2@PAVPxsMaterialManager@2@PAVIslandSim@IG@2@_K_N99M@Z 100a8160 f   LowLevelDynamics_static_32:DyTGSDynamics.obj
 0001:000a71d0       ?destroy@DynamicsContext@Dy@physx@@UAEXXZ 100a81d0 f   LowLevelDynamics_static_32:DyDynamics.obj
 0001:000a71d0       ?destroy@DynamicsTGSContext@Dy@physx@@UAEXXZ 100a81d0 f   LowLevelDynamics_static_32:DyTGSDynamics.obj
 0001:000a71f0       ?finishSolveIsland@DynamicsTGSContext@Dy@physx@@IAEXAAVThreadContext@23@ABUSolverIslandObjectsStep@23@ABVPxsIslandIndices@3@AAVSimpleIslandManager@IG@3@PAVPxBaseTask@3@@Z 100a81f0 f   LowLevelDynamics_static_32:DyTGSDynamics.obj
 0001:000a75d0       ?get@?$PxcThreadCoherentCache@VThreadContext@Dy@physx@@VPxcNpMemBlockPool@3@@physx@@QAEPAVThreadContext@Dy@2@XZ 100a85d0 f i LowLevelDynamics_static_32:DyTGSDynamics.obj
 0001:000a7660       ?getName@ArticulationTask@Dy@physx@@UBEPBDXZ 100a8660 f i LowLevelDynamics_static_32:DyTGSDynamics.obj
 0001:000a7670       ?getName@CopyBackTask@Dy@physx@@UBEPBDXZ 100a8670 f i LowLevelDynamics_static_32:DyTGSDynamics.obj
 0001:000a7680       ?getName@DynamicsMergeTask@Dy@physx@@UBEPBDXZ 100a8680 f i LowLevelDynamics_static_32:DyTGSDynamics.obj
 0001:000a7690       ?getName@EndIslandTask@Dy@physx@@UBEPBDXZ 100a8690 f i LowLevelDynamics_static_32:DyTGSDynamics.obj
 0001:000a76a0       ?getName@FinishSolveIslandTask@Dy@physx@@UBEPBDXZ 100a86a0 f i LowLevelDynamics_static_32:DyTGSDynamics.obj
 0001:000a76b0       ?getName@KinematicCopyTGSTask@Dy@physx@@UBEPBDXZ 100a86b0 f i LowLevelDynamics_static_32:DyTGSDynamics.obj
 0001:000a76b0       ?getName@KinematicCopyTask@Dy@physx@@UBEPBDXZ 100a86b0 f i LowLevelDynamics_static_32:DyDynamics.obj
 0001:000a76c0       ?getName@ParallelSolveTask@Dy@physx@@UBEPBDXZ 100a86c0 f i LowLevelDynamics_static_32:DyTGSDynamics.obj
 0001:000a76d0       ?getName@PartitionTask@Dy@physx@@UBEPBDXZ 100a86d0 f i LowLevelDynamics_static_32:DyTGSDynamics.obj
 0001:000a76e0       ?getName@PreIntegrateParallelTask@Dy@physx@@UBEPBDXZ 100a86e0 f i LowLevelDynamics_static_32:DyTGSDynamics.obj
 0001:000a76f0       ?getName@PreIntegrateTask@Dy@physx@@UBEPBDXZ 100a86f0 f i LowLevelDynamics_static_32:DyTGSDynamics.obj
 0001:000a7700       ?getName@PxsCreateArticConstraintsSubTask@Dy@physx@@UBEPBDXZ 100a8700 f i LowLevelDynamics_static_32:DyTGSDynamics.obj
 0001:000a7710       ?getName@SetStepperTask@Dy@physx@@UBEPBDXZ 100a8710 f i LowLevelDynamics_static_32:DyTGSDynamics.obj
 0001:000a7720       ?getName@SetupArticulationInternalConstraintsTask@Dy@physx@@UBEPBDXZ 100a8720 f i LowLevelDynamics_static_32:DyTGSDynamics.obj
 0001:000a7730       ?getName@SetupArticulationTask@Dy@physx@@UBEPBDXZ 100a8730 f i LowLevelDynamics_static_32:DyTGSDynamics.obj
 0001:000a7740       ?getName@SetupDescsTask@Dy@physx@@UBEPBDXZ 100a8740 f i LowLevelDynamics_static_32:DyTGSDynamics.obj
 0001:000a7750       ?getName@SetupSolverConstraintsSubTask@Dy@physx@@UBEPBDXZ 100a8750 f i LowLevelDynamics_static_32:DyTGSDynamics.obj
 0001:000a7760       ?getName@SetupSolverConstraintsTask@Dy@physx@@UBEPBDXZ 100a8760 f i LowLevelDynamics_static_32:DyTGSDynamics.obj
 0001:000a7770       ?getName@SolveIslandTask@Dy@physx@@UBEPBDXZ 100a8770 f i LowLevelDynamics_static_32:DyTGSDynamics.obj
 0001:000a7780       ?getName@UpdateArticTask@Dy@physx@@UBEPBDXZ 100a8780 f i LowLevelDynamics_static_32:DyTGSDynamics.obj
 0001:000a7790       ?getName@UpdateContinuationTask@Dy@physx@@UBEPBDXZ 100a8790 f i LowLevelDynamics_static_32:DyDynamics.obj
 0001:000a7790       ?getName@UpdateContinuationTGSTask@Dy@physx@@UBEPBDXZ 100a8790 f i LowLevelDynamics_static_32:DyTGSDynamics.obj
 0001:000a77a0       ?integrateBodies@DynamicsTGSContext@Dy@physx@@IAEXABUSolverIslandObjectsStep@23@IPAUPxTGSSolverBodyVel@3@PAUPxTGSSolverBodyTxInertia@3@QBUPxTGSSolverBodyData@3@M@Z 100a87a0 f   LowLevelDynamics_static_32:DyTGSDynamics.obj
 0001:000a7b80       ?integrateCoreStep@Dy@physx@@YAXAAUPxTGSSolverBodyVel@2@AAUPxTGSSolverBodyTxInertia@2@M@Z 100a8b80 f   LowLevelDynamics_static_32:DyTGSDynamics.obj
 0001:000a7f30       ?iterativeSolveIsland@DynamicsTGSContext@Dy@physx@@IAEXABUSolverIslandObjectsStep@23@ABVPxsIslandIndices@3@AAVThreadContext@23@MMIIAAUSolverContext@23@@Z 100a8f30 f   LowLevelDynamics_static_32:DyTGSDynamics.obj
 0001:000a85a0       ?iterativeSolveIslandParallel@DynamicsTGSContext@Dy@physx@@IAEXABUSolverIslandObjectsStep@23@ABVPxsIslandIndices@3@AAVThreadContext@23@MIIPAH33333II@Z 100a95a0 f   LowLevelDynamics_static_32:DyTGSDynamics.obj
 0001:000a9430       ?parallelIntegrateBodies@DynamicsTGSContext@Dy@physx@@IAEXPAUPxTGSSolverBodyVel@3@PAUPxTGSSolverBodyTxInertia@3@QBUPxTGSSolverBodyData@3@IM@Z 100aa430 f   LowLevelDynamics_static_32:DyTGSDynamics.obj
 0001:000a9810       ?preIntegrateBodies@DynamicsTGSContext@Dy@physx@@IAEXPAPAUPxsBodyCore@3@PAPAVPxsRigidBody@3@PAUPxTGSSolverBodyVel@3@PAUPxTGSSolverBodyTxInertia@3@PAUPxTGSSolverBodyData@3@PAIIABVPxVec3@3@MAAI7I@Z 100aa810 f   LowLevelDynamics_static_32:DyTGSDynamics.obj
 0001:000a9ac0       ?prepareBodiesAndConstraints@DynamicsTGSContext@Dy@physx@@IAEXABUSolverIslandObjectsStep@23@AAVSimpleIslandManager@IG@3@AAUIslandContextStep@23@@Z 100aaac0 f   LowLevelDynamics_static_32:DyTGSDynamics.obj
 0001:000a9e90       ?removeJoint@SimulationController@Sc@physx@@UAEXIPAUConstraint@Dy@3@AAV?$Array@IV?$ReflectionAllocator@I@shdfnd@physx@@@shdfnd@3@AAVIslandSim@IG@3@@Z 100aae90 f i SimulationController_static_32:ScSimulationController.obj
 0001:000a9e90       ?processLostPatches@DynamicsTGSContext@Dy@physx@@UAEXAAVSimpleIslandManager@IG@3@PAPAVPxsContactManager@3@IAAVPxsContactManagerOutputIterator@3@@Z 100aae90 f i LowLevelDynamics_static_32:DyTGSDynamics.obj
 0001:000a9e90       ?processLostPatches@DynamicsContext@Dy@physx@@UAEXAAVSimpleIslandManager@IG@3@PAPAVPxsContactManager@3@IAAVPxsContactManagerOutputIterator@3@@Z 100aae90 f i LowLevelDynamics_static_32:DyDynamics.obj
 0001:000a9ea0       ?recreate@?$Array@PAUPxsBodyCore@physx@@V?$ReflectionAllocator@PAUPxsBodyCore@physx@@@shdfnd@2@@shdfnd@physx@@IAEXI@Z 100aaea0 f i LowLevelDynamics_static_32:DyTGSDynamics.obj
 0001:000a9f50       ?recreate@?$Array@PAVArticulationV@Dy@physx@@V?$ReflectionAllocator@PAVArticulationV@Dy@physx@@@shdfnd@3@@shdfnd@physx@@IAEXI@Z 100aaf50 f i LowLevelDynamics_static_32:DyTGSDynamics.obj
 0001:000aa000       ?recreate@?$Array@PAVPxsRigidBody@physx@@V?$ReflectionAllocator@PAVPxsRigidBody@physx@@@shdfnd@2@@shdfnd@physx@@IAEXI@Z 100ab000 f i LowLevelDynamics_static_32:DyTGSDynamics.obj
 0001:000aa0b0       ?recreate@?$Array@UPxConstraintBatchHeader@physx@@V?$ReflectionAllocator@UPxConstraintBatchHeader@physx@@@shdfnd@2@@shdfnd@physx@@IAEXI@Z 100ab0b0 f i LowLevelDynamics_static_32:DyTGSDynamics.obj
 0001:000aa160       ?recreate@?$Array@UPxSolverConstraintDesc@physx@@V?$AlignedAllocator@$0IA@V?$ReflectionAllocator@UPxSolverConstraintDesc@physx@@@shdfnd@physx@@@shdfnd@2@@shdfnd@physx@@IAEXI@Z 100ab160 f i LowLevelDynamics_static_32:DyTGSDynamics.obj
 0001:000aa240       ?recreate@?$Array@UPxTGSSolverBodyData@physx@@V?$AlignedAllocator@$0IA@V?$ReflectionAllocator@UPxTGSSolverBodyData@physx@@@shdfnd@physx@@@shdfnd@2@@shdfnd@physx@@IAEXI@Z 100ab240 f i LowLevelDynamics_static_32:DyTGSDynamics.obj
 0001:000aa380       ?recreate@?$Array@UPxTGSSolverBodyTxInertia@physx@@V?$AlignedAllocator@$0IA@V?$ReflectionAllocator@UPxTGSSolverBodyTxInertia@physx@@@shdfnd@physx@@@shdfnd@2@@shdfnd@physx@@IAEXI@Z 100ab380 f i LowLevelDynamics_static_32:DyTGSDynamics.obj
 0001:000aa4c0       ?recreate@?$Array@UPxTGSSolverBodyVel@physx@@V?$AlignedAllocator@$0IA@V?$ReflectionAllocator@UPxTGSSolverBodyVel@physx@@@shdfnd@physx@@@shdfnd@2@@shdfnd@physx@@IAEXI@Z 100ab4c0 f i LowLevelDynamics_static_32:DyTGSDynamics.obj
 0001:000aa620       ?recreate@?$Array@UPxsIndexedContactManager@physx@@V?$ReflectionAllocator@UPxsIndexedContactManager@physx@@@shdfnd@2@@shdfnd@physx@@IAEXI@Z 100ab620 f i LowLevelDynamics_static_32:DyTGSDynamics.obj
 0001:000aa6d0       ?recreate@?$Array@UThresholdStreamElement@Dy@physx@@VVirtualAllocator@shdfnd@3@@shdfnd@physx@@IAEXI@Z 100ab6d0 f i LowLevelDynamics_static_32:DyTGSDynamics.obj
 0001:000aa750       ?recreate@?$Array@VSpatialVector@Cm@physx@@V?$ReflectionAllocator@VSpatialVector@Cm@physx@@@shdfnd@3@@shdfnd@physx@@IAEXI@Z 100ab750 f i LowLevelDynamics_static_32:DyTGSDynamics.obj
 0001:000aa7b0       ?release@DynamicsMergeTask@Dy@physx@@UAEXXZ 100ab7b0 f i LowLevelDynamics_static_32:DyTGSDynamics.obj
 0001:000aa7d0       ?release@SetStepperTask@Dy@physx@@UAEXXZ 100ab7d0 f i LowLevelDynamics_static_32:DyTGSDynamics.obj
 0001:000aa7f0       ?resize@?$Array@IV?$ReflectionAllocator@I@shdfnd@physx@@@shdfnd@physx@@QAEXIABI@Z 100ab7f0 f i LowLevelDynamics_static_32:DyTGSDynamics.obj
 0001:000aa890       ?resize@?$Array@UPxTGSSolverBodyData@physx@@V?$AlignedAllocator@$0IA@V?$ReflectionAllocator@UPxTGSSolverBodyData@physx@@@shdfnd@physx@@@shdfnd@2@@shdfnd@physx@@QAEXIABUPxTGSSolverBodyData@3@@Z 100ab890 f i LowLevelDynamics_static_32:DyTGSDynamics.obj
 0001:000aa930       ?resize@?$Array@UPxTGSSolverBodyTxInertia@physx@@V?$AlignedAllocator@$0IA@V?$ReflectionAllocator@UPxTGSSolverBodyTxInertia@physx@@@shdfnd@physx@@@shdfnd@2@@shdfnd@physx@@QAEXIABUPxTGSSolverBodyTxInertia@3@@Z 100ab930 f i LowLevelDynamics_static_32:DyTGSDynamics.obj
 0001:000aa9e0       ?resize@?$Array@UPxTGSSolverBodyVel@physx@@V?$AlignedAllocator@$0IA@V?$ReflectionAllocator@UPxTGSSolverBodyVel@physx@@@shdfnd@physx@@@shdfnd@2@@shdfnd@physx@@QAEXIABUPxTGSSolverBodyVel@3@@Z 100ab9e0 f i LowLevelDynamics_static_32:DyTGSDynamics.obj
 0001:000aaab0       ?runInternal@ArticulationTask@Dy@physx@@UAEXXZ 100abab0 f i LowLevelDynamics_static_32:DyTGSDynamics.obj
 0001:000aaba0       ?runInternal@CopyBackTask@Dy@physx@@UAEXXZ 100abba0 f i LowLevelDynamics_static_32:DyTGSDynamics.obj
 0001:000aabd0       ?runInternal@EndIslandTask@Dy@physx@@UAEXXZ 100abbd0 f i LowLevelDynamics_static_32:DyTGSDynamics.obj
 0001:000aabf0       ?runInternal@FinishSolveIslandTask@Dy@physx@@UAEXXZ 100abbf0 f i LowLevelDynamics_static_32:DyTGSDynamics.obj
 0001:000aac10       ?runInternal@KinematicCopyTGSTask@Dy@physx@@UAEXXZ 100abc10 f i LowLevelDynamics_static_32:DyTGSDynamics.obj
 0001:000aade0       ?runInternal@ParallelSolveTask@Dy@physx@@UAEXXZ 100abde0 f i LowLevelDynamics_static_32:DyTGSDynamics.obj
 0001:000aae30       ?runInternal@PartitionTask@Dy@physx@@UAEXXZ 100abe30 f i LowLevelDynamics_static_32:DyTGSDynamics.obj
 0001:000ab230       ?runInternal@PreIntegrateParallelTask@Dy@physx@@UAEXXZ 100ac230 f i LowLevelDynamics_static_32:DyTGSDynamics.obj
 0001:000ab2a0       ?runInternal@PreIntegrateTask@Dy@physx@@UAEXXZ 100ac2a0 f i LowLevelDynamics_static_32:DyTGSDynamics.obj
 0001:000ab570       ?runInternal@PxsCreateArticConstraintsSubTask@Dy@physx@@UAEXXZ 100ac570 f i LowLevelDynamics_static_32:DyTGSDynamics.obj
 0001:000ab6a0       ?runInternal@SetStepperTask@Dy@physx@@UAEXXZ 100ac6a0 f i LowLevelDynamics_static_32:DyTGSDynamics.obj
 0001:000ab710       ?runInternal@SetupArticulationInternalConstraintsTask@Dy@physx@@UAEXXZ 100ac710 f i LowLevelDynamics_static_32:DyTGSDynamics.obj
 0001:000ab890       ?runInternal@SetupArticulationTask@Dy@physx@@UAEXXZ 100ac890 f i LowLevelDynamics_static_32:DyTGSDynamics.obj
 0001:000ab8f0       ?runInternal@SetupDescsTask@Dy@physx@@UAEXXZ 100ac8f0 f i LowLevelDynamics_static_32:DyTGSDynamics.obj
 0001:000ab920       ?runInternal@SetupSolverConstraintsSubTask@Dy@physx@@UAEXXZ 100ac920 f i LowLevelDynamics_static_32:DyTGSDynamics.obj
 0001:000ab9a0       ?runInternal@SetupSolverConstraintsTask@Dy@physx@@UAEXXZ 100ac9a0 f i LowLevelDynamics_static_32:DyTGSDynamics.obj
 0001:000abde0       ?runInternal@SolveIslandTask@Dy@physx@@UAEXXZ 100acde0 f i LowLevelDynamics_static_32:DyTGSDynamics.obj
 0001:000ac260       ?runInternal@UpdateArticTask@Dy@physx@@UAEXXZ 100ad260 f i LowLevelDynamics_static_32:DyTGSDynamics.obj
 0001:000ac2c0       ?runInternal@UpdateContinuationTGSTask@Dy@physx@@UAEXXZ 100ad2c0 f i LowLevelDynamics_static_32:DyTGSDynamics.obj
 0001:000ac2e0       ?setDescFromIndices@DynamicsTGSContext@Dy@physx@@IAEXAAUPxSolverConstraintDesc@3@IABVSimpleIslandManager@IG@3@PAIIPAUPxTGSSolverBodyVel@3@@Z 100ad2e0 f   LowLevelDynamics_static_32:DyTGSDynamics.obj
 0001:000ac4e0       ?setSimulationController@DynamicsTGSContext@Dy@physx@@UAEXPAVPxsSimulationController@3@@Z 100ad4e0 f i LowLevelDynamics_static_32:DyTGSDynamics.obj
 0001:000ac4e0       ?setSimulationController@DynamicsContext@Dy@physx@@UAEXPAVPxsSimulationController@3@@Z 100ad4e0 f i LowLevelDynamics_static_32:DyDynamics.obj
 0001:000ac4f0       ?setupArticulations@DynamicsTGSContext@Dy@physx@@IAEXAAUIslandContextStep@23@ABVPxVec3@3@MAAI2PAVPxBaseTask@3@@Z 100ad4f0 f   LowLevelDynamics_static_32:DyTGSDynamics.obj
 0001:000ac7c0       ?setupDescs@DynamicsTGSContext@Dy@physx@@IAEXAAUIslandContextStep@23@ABUSolverIslandObjectsStep@23@AAVSimpleIslandManager@IG@3@PAIIAAVPxsContactManagerOutputIterator@3@@Z 100ad7c0 f   LowLevelDynamics_static_32:DyTGSDynamics.obj
 0001:000aca10       ?solveConcludeConstraintsIteration@DynamicsTGSContext@Dy@physx@@IAEXQBUPxSolverConstraintDesc@3@QBUPxConstraintBatchHeader@3@IPAUPxTGSSolverBodyTxInertia@3@MAAUSolverContext@23@@Z 100ada10 f   LowLevelDynamics_static_32:DyTGSDynamics.obj
 0001:000aca70       ?solveConstraintsIteration@DynamicsTGSContext@Dy@physx@@IAEXQBUPxSolverConstraintDesc@3@QBUPxConstraintBatchHeader@3@IMQBUPxTGSSolverBodyTxInertia@3@MMAAUSolverContext@23@@Z 100ada70 f   LowLevelDynamics_static_32:DyTGSDynamics.obj
 0001:000acad0       ?solveIsland@DynamicsTGSContext@Dy@physx@@IAEXABUSolverIslandObjectsStep@23@ABVPxsIslandIndices@3@IAAVSimpleIslandManager@IG@3@PAIPAVPxsMaterialManager@3@AAVPxsContactManagerOutputIterator@3@PAVPxBaseTask@3@@Z 100adad0 f   LowLevelDynamics_static_32:DyTGSDynamics.obj
 0001:000ad2e0       ?stepArticulations@DynamicsTGSContext@Dy@physx@@IAEXAAVThreadContext@23@ABVPxsIslandIndices@3@MM@Z 100ae2e0 f   LowLevelDynamics_static_32:DyTGSDynamics.obj
 0001:000ad360       ?update@DynamicsTGSContext@Dy@physx@@UAEXAAVSimpleIslandManager@IG@3@PAVPxBaseTask@3@1PAPAVPxsContactManager@3@I2IIAAVPxsContactManagerOutputIterator@3@PAUPxsContactManagerOutput@3@MABVPxVec3@3@I@Z 100ae360 f   LowLevelDynamics_static_32:DyTGSDynamics.obj
 0001:000addb0       ?updatePostKinematic@DynamicsTGSContext@Dy@physx@@QAEXAAVSimpleIslandManager@IG@3@PAVPxBaseTask@3@1@Z 100aedb0 f   LowLevelDynamics_static_32:DyTGSDynamics.obj
 0001:000ae090       ?createHardLimit@ArticulationHelper@Dy@physx@@SAXABUFsData@23@PBUArticulationLink@23@IAAUSolverConstraint1DExt@23@ABVPxVec3@3@MM@Z 100af090 f   LowLevelDynamics_static_32:DyArticulationHelper.obj
 0001:000ae280       ?createTangentialSpring@ArticulationHelper@Dy@physx@@SAXABUFsData@23@PBUArticulationLink@23@IAAUSolverConstraint1DExt@23@ABVPxVec3@3@MMM@Z 100af280 f   LowLevelDynamics_static_32:DyArticulationHelper.obj
 0001:000ae4b0       ?getImpulseResponse@ArticulationHelper@Dy@physx@@SAXABUFsData@23@IABUSpatialVectorV@Cm@3@AAU563@@Z 100af4b0 f   LowLevelDynamics_static_32:DyArticulationHelper.obj
 0001:000ae8c0       ?getImpulseSelfResponse@ArticulationHelper@Dy@physx@@SAXABUFsData@23@IABUSpatialVectorV@Cm@3@AAU563@I12@Z 100af8c0 f   LowLevelDynamics_static_32:DyArticulationHelper.obj
 0001:000aef80       ?setupSolverConstraints@ArticulationHelper@Dy@physx@@SAIAAVArticulation@23@IAAVPxConstraintAllocator@3@PAUPxSolverConstraintDesc@3@PBUArticulationLink@23@PBUArticulationJointTransforms@23@MAAI@Z 100aff80 f   LowLevelDynamics_static_32:DyArticulationHelper.obj
 0001:000afd20       ?SolverCoreRegisterArticulationFnsCoulomb@Dy@physx@@YAXXZ 100b0d20 f   LowLevelDynamics_static_32:DySolverControlPF.obj
 0001:000afd80       ?create@SolverCoreGeneralPF@Dy@physx@@SAPAV123@XZ 100b0d80 f   LowLevelDynamics_static_32:DySolverControlPF.obj
 0001:000afdb0       ?solveVParallelAndWriteBack@SolverCoreGeneralPF@Dy@physx@@UBEHAAUSolverIslandParams@23@PAUSpatialVectorF@Cm@3@1@Z 100b0db0 f   LowLevelDynamics_static_32:DySolverControlPF.obj
 0001:000b0e80       ?solveV_Blocks@SolverCoreGeneralPF@Dy@physx@@UBEXAAUSolverIslandParams@23@@Z 100b1e80 f   LowLevelDynamics_static_32:DySolverControlPF.obj
 0001:000b14d0       ?PxcFsFlushVelocity@Dy@physx@@YAXAAUFsData@12@@Z 100b24d0 f   LowLevelDynamics_static_32:DyArticulationSIMD.obj
 0001:000b1950       ?PxcFsGetMotionVector@Dy@physx@@YA?AUSpatialVectorV@Cm@2@AAVArticulationV@12@I@Z 100b2950 f   LowLevelDynamics_static_32:DyArticulationSIMD.obj
 0001:000b1970       ??$sort@IU?$Less@I@shdfnd@physx@@V?$ReflectionAllocator@I@23@@shdfnd@physx@@YAXPAIIABU?$Less@I@01@ABV?$ReflectionAllocator@I@01@I@Z 100b2970 f i LowLevelDynamics_static_32:DyDynamics.obj
 0001:000b1cf0       ??$sort@PAUContactPatch@Dy@physx@@USortBoundsPredicateManifold@23@V?$ReflectionAllocator@PAUContactPatch@Dy@physx@@@shdfnd@3@@shdfnd@physx@@YAXPAPAUContactPatch@Dy@1@IABUSortBoundsPredicateManifold@31@ABV?$ReflectionAllocator@PAUContactPatch@Dy@physx@@@01@I@Z 100b2cf0 f i LowLevelDynamics_static_32:DyDynamics.obj
 0001:000b2190       ??$sort@PBUPxsIndexedContactManager@physx@@UArticulationSortPredicate@Dy@2@V?$ReflectionAllocator@PBUPxsIndexedContactManager@physx@@@shdfnd@2@@shdfnd@physx@@YAXPAPBUPxsIndexedContactManager@1@IABUArticulationSortPredicate@Dy@1@ABV?$ReflectionAllocator@PBUPxsIndexedContactManager@physx@@@01@I@Z 100b3190 f i LowLevelDynamics_static_32:DyDynamics.obj
 0001:000b2560       ??$sort@UPxsIndexedContactManager@physx@@UEnhancedSortPredicate@Dy@2@V?$ReflectionAllocator@UPxsIndexedContactManager@physx@@@shdfnd@2@@shdfnd@physx@@YAXPAUPxsIndexedContactManager@1@IABUEnhancedSortPredicate@Dy@1@ABV?$ReflectionAllocator@UPxsIndexedContactManager@physx@@@01@I@Z 100b3560 f i LowLevelDynamics_static_32:DyDynamics.obj
 0001:000b29b0       ??0DynamicsContext@Dy@physx@@IAE@PAVPxcNpMemBlockPool@2@AAVPxcScratchAllocator@2@AAVFlushPool@Cm@2@AAUPxvSimStats@2@PAVPxTaskManager@2@PAVVirtualAllocatorCallback@shdfnd@2@PAVPxsMaterialManager@2@PAVIslandSim@IG@2@_K_N99M9@Z 100b39b0 f   LowLevelDynamics_static_32:DyDynamics.obj
 0001:000b2fa0       ??1DynamicsContext@Dy@physx@@MAE@XZ 100b3fa0 f   LowLevelDynamics_static_32:DyDynamics.obj
 0001:000b3290       ??_EDynamicsContext@Dy@physx@@MAEPAXI@Z 100b4290 f i LowLevelDynamics_static_32:DyDynamics.obj
 0001:000b3290       ??_GDynamicsContext@Dy@physx@@MAEPAXI@Z 100b4290 f i LowLevelDynamics_static_32:DyDynamics.obj
 0001:000b32c0       ??_EPxsPreIntegrateTask@Dy@physx@@UAEPAXI@Z 100b42c0 f i LowLevelDynamics_static_32:DyDynamics.obj
 0001:000b32c0       ??_GPxsPreIntegrateTask@Dy@physx@@UAEPAXI@Z 100b42c0 f i LowLevelDynamics_static_32:DyDynamics.obj
 0001:000b32c0       ??_EPxsCCDAdvanceTask@physx@@UAEPAXI@Z 100b42c0 f i LowLevel_static_32:PxsCCD.obj
 0001:000b32c0       ??_GProcessSelfCollisionPairsParallel@Bp@physx@@UAEPAXI@Z 100b42c0 f i LowLevelAABB_static_32:BpAABBManager.obj
 0001:000b32c0       ??_EProcessSelfCollisionPairsParallel@Bp@physx@@UAEPAXI@Z 100b42c0 f i LowLevelAABB_static_32:BpAABBManager.obj
 0001:000b32c0       ??_GPxsCCDAdvanceTask@physx@@UAEPAXI@Z 100b42c0 f i LowLevel_static_32:PxsCCD.obj
 0001:000b32f0       ??_GPxsSolverEndTask@Dy@physx@@UAEPAXI@Z 100b42f0 f i LowLevelDynamics_static_32:DyDynamics.obj
 0001:000b32f0       ??_EPxsSolverConstraintPartitionTask@Dy@physx@@UAEPAXI@Z 100b42f0 f i LowLevelDynamics_static_32:DyDynamics.obj
 0001:000b32f0       ??_EPxsSolverSetupSolveTask@Dy@physx@@UAEPAXI@Z 100b42f0 f i LowLevelDynamics_static_32:DyDynamics.obj
 0001:000b32f0       ??_EPxsSolverEndTask@Dy@physx@@UAEPAXI@Z 100b42f0 f i LowLevelDynamics_static_32:DyDynamics.obj
 0001:000b32f0       ??_GPxsSolverConstraintPartitionTask@Dy@physx@@UAEPAXI@Z 100b42f0 f i LowLevelDynamics_static_32:DyDynamics.obj
 0001:000b32f0       ??_GPxsSolverSetupSolveTask@Dy@physx@@UAEPAXI@Z 100b42f0 f i LowLevelDynamics_static_32:DyDynamics.obj
 0001:000b3320       ??_EPxsSolverConstraintPostProcessTask@Dy@physx@@UAEPAXI@Z 100b4320 f i LowLevelDynamics_static_32:DyDynamics.obj
 0001:000b3320       ??_GPxsSolverConstraintPostProcessTask@Dy@physx@@UAEPAXI@Z 100b4320 f i LowLevelDynamics_static_32:DyDynamics.obj
 0001:000b3350       ??_GPxsSolverStartTask@Dy@physx@@UAEPAXI@Z 100b4350 f i LowLevelDynamics_static_32:DyDynamics.obj
 0001:000b3350       ??_EPxsSolverStartTask@Dy@physx@@UAEPAXI@Z 100b4350 f i LowLevelDynamics_static_32:DyDynamics.obj
 0001:000b3380       ?allocate@?$ReflectionAllocator@PBUPxsIndexedContactManager@physx@@@shdfnd@physx@@QAEPAXIPBDH@Z 100b4380 f i LowLevelDynamics_static_32:DyDynamics.obj
 0001:000b33e0       ?build@ThresholdTable@Dy@physx@@QAEXABVThresholdStream@23@@Z 100b43e0 f i LowLevelDynamics_static_32:DyDynamics.obj
 0001:000b3660       ?createDynamicsContext@Dy@physx@@YAPAVContext@12@PAVPxcNpMemBlockPool@2@AAVPxcScratchAllocator@2@AAVFlushPool@Cm@2@AAUPxvSimStats@2@PAVPxTaskManager@2@PAVVirtualAllocatorCallback@shdfnd@2@PAVPxsMaterialManager@2@PAVIslandSim@IG@2@_K_N99M9@Z 100b4660 f   LowLevelDynamics_static_32:DyDynamics.obj
 0001:000b3fe0       ?createForceChangeThresholdStream@PxsForceThresholdTask@Dy@physx@@QAEXXZ 100b4fe0 f i LowLevelDynamics_static_32:DyDynamics.obj
 0001:000b4410       ?createSolverTaskChain@Dy@physx@@YAPAVPxBaseTask@2@AAVDynamicsContext@12@ABUSolverIslandObjects@12@ABVPxsIslandIndices@2@IAAVSimpleIslandManager@IG@2@PAIPAVPxsMaterialManager@2@PAV32@AAVPxsContactManagerOutputIterator@2@_N@Z 100b5410 f   LowLevelDynamics_static_32:DyDynamics.obj
 0001:000b4850       ?getName@PxsCreateFinalizeContactsTask@Dy@physx@@UBEPBDXZ 100b5850 f i LowLevelDynamics_static_32:DyDynamics.obj
 0001:000b4850       ?getName@PxsCreateArticConstraintsTask@Dy@physx@@UBEPBDXZ 100b5850 f i LowLevelDynamics_static_32:DyDynamics.obj
 0001:000b4860       ?getName@PxsForceThresholdTask@Dy@physx@@UBEPBDXZ 100b5860 f i LowLevelDynamics_static_32:DyDynamics.obj
 0001:000b4870       ?getName@PxsParallelSolverTask@Dy@physx@@UBEPBDXZ 100b5870 f i LowLevelDynamics_static_32:DyDynamics.obj
 0001:000b4880       ?getName@PxsPreIntegrateTask@Dy@physx@@UBEPBDXZ 100b5880 f i LowLevelDynamics_static_32:DyDynamics.obj
 0001:000b4890       ?getName@PxsSolverConstraintPartitionTask@Dy@physx@@UBEPBDXZ 100b5890 f i LowLevelDynamics_static_32:DyDynamics.obj
 0001:000b48a0       ?getName@PxsSolverConstraintPostProcessTask@Dy@physx@@UBEPBDXZ 100b58a0 f i LowLevelDynamics_static_32:DyDynamics.obj
 0001:000b48b0       ?getName@PxsSolverCreateFinalizeConstraintsTask@Dy@physx@@UBEPBDXZ 100b58b0 f i LowLevelDynamics_static_32:DyDynamics.obj
 0001:000b48c0       ?getName@PxsSolverEndTask@Dy@physx@@UBEPBDXZ 100b58c0 f i LowLevelDynamics_static_32:DyDynamics.obj
 0001:000b48d0       ?getName@PxsSolverSetupSolveTask@Dy@physx@@UBEPBDXZ 100b58d0 f i LowLevelDynamics_static_32:DyDynamics.obj
 0001:000b48e0       ?getName@PxsSolverStartTask@Dy@physx@@UBEPBDXZ 100b58e0 f i LowLevelDynamics_static_32:DyDynamics.obj
 0001:000b48f0       ?getName@SolverArticulationUpdateTask@Dy@physx@@UBEPBDXZ 100b58f0 f i LowLevelDynamics_static_32:DyDynamics.obj
 0001:000b4900       ?growAndPushBack@?$Array@UThresholdStreamElement@Dy@physx@@VVirtualAllocator@shdfnd@3@@shdfnd@physx@@IAEAAUThresholdStreamElement@Dy@3@ABU453@@Z 100b5900 f i LowLevelDynamics_static_32:DyDynamics.obj
 0001:000b49c0       ?integrateCoreParallel@DynamicsContext@Dy@physx@@IAEXAAUSolverIslandParams@23@AAVIslandSim@IG@3@@Z 100b59c0 f   LowLevelDynamics_static_32:DyDynamics.obj
 0001:000b5c20       ?mergeContacts@PxsSolverConstraintPostProcessTask@Dy@physx@@QAEXAAUCompoundContactManager@23@AAVThreadContext@23@@Z 100b6c20 f i LowLevelDynamics_static_32:DyDynamics.obj
 0001:000b6130       ?mergeResults@DynamicsContext@Dy@physx@@UAEXXZ 100b7130 f   LowLevelDynamics_static_32:DyDynamics.obj
 0001:000b6690       ?preIntegrationParallel@DynamicsContext@Dy@physx@@IAEXMPBQAUPxsBodyCore@3@PBQAVPxsRigidBody@3@PBIIPAUPxSolverBody@3@PAUPxSolverBodyData@3@PAVSpatialVector@Cm@3@AAI6AAVPxBaseTask@3@@Z 100b7690 f   LowLevelDynamics_static_32:DyDynamics.obj
 0001:000b6850       ?recreate@?$Array@PBUPxsIndexedContactManager@physx@@V?$ReflectionAllocator@PBUPxsIndexedContactManager@physx@@@shdfnd@2@@shdfnd@physx@@IAEXI@Z 100b7850 f i LowLevelDynamics_static_32:DyDynamics.obj
 0001:000b68d0       ?recreate@?$Array@UCompoundContactManager@Dy@physx@@V?$ReflectionAllocator@UCompoundContactManager@Dy@physx@@@shdfnd@3@@shdfnd@physx@@IAEXI@Z 100b78d0 f i LowLevelDynamics_static_32:DyDynamics.obj
 0001:000b6990       ?recreate@?$Array@UPxSolverBody@physx@@V?$AlignedAllocator@$0IA@V?$ReflectionAllocator@UPxSolverBody@physx@@@shdfnd@physx@@@shdfnd@2@@shdfnd@physx@@IAEXI@Z 100b7990 f i LowLevelDynamics_static_32:DyDynamics.obj
 0001:000b6ab0       ?recreate@?$Array@UPxSolverBodyData@physx@@V?$AlignedAllocator@$0IA@V?$ReflectionAllocator@UPxSolverBodyData@physx@@@shdfnd@physx@@@shdfnd@2@@shdfnd@physx@@IAEXI@Z 100b7ab0 f i LowLevelDynamics_static_32:DyDynamics.obj
 0001:000b6c90       ?reduceContacts@?$ContactReduction@$05@Dy@physx@@QAEXXZ 100b7c90 f i LowLevelDynamics_static_32:DyDynamics.obj
 0001:000b77b0       ?reserveConstraintData@BlockAllocator@Dy@physx@@UAEPAEI@Z 100b87b0 f   LowLevelDynamics_static_32:DyDynamics.obj
 0001:000b7820       ?reserveFrictionData@BlockAllocator@Dy@physx@@UAEPAEI@Z 100b8820 f   LowLevelDynamics_static_32:DyDynamics.obj
 0001:000b7880       ?resize@?$Array@UPxSolverBody@physx@@V?$AlignedAllocator@$0IA@V?$ReflectionAllocator@UPxSolverBody@physx@@@shdfnd@physx@@@shdfnd@2@@shdfnd@physx@@QAEXIABUPxSolverBody@3@@Z 100b8880 f i LowLevelDynamics_static_32:DyDynamics.obj
 0001:000b7910       ?resize@?$Array@UPxSolverBodyData@physx@@V?$AlignedAllocator@$0IA@V?$ReflectionAllocator@UPxSolverBodyData@physx@@@shdfnd@physx@@@shdfnd@2@@shdfnd@physx@@QAEXIABUPxSolverBodyData@3@@Z 100b8910 f i LowLevelDynamics_static_32:DyDynamics.obj
 0001:000b7a30       ?runInternal@KinematicCopyTask@Dy@physx@@UAEXXZ 100b8a30 f i LowLevelDynamics_static_32:DyDynamics.obj
 0001:000b7b00       ?runInternal@PxsCreateArticConstraintsTask@Dy@physx@@UAEXXZ 100b8b00 f i LowLevelDynamics_static_32:DyDynamics.obj
 0001:000b7c70       ?runInternal@PxsCreateFinalizeContactsTask@Dy@physx@@UAEXXZ 100b8c70 f i LowLevelDynamics_static_32:DyDynamics.obj
 0001:000b7c90       ?runInternal@PxsForceThresholdTask@Dy@physx@@UAEXXZ 100b8c90 f i LowLevelDynamics_static_32:DyDynamics.obj
 0001:000b7cb0       ?runInternal@PxsParallelSolverTask@Dy@physx@@UAEXXZ 100b8cb0 f i LowLevelDynamics_static_32:DyDynamics.obj
 0001:000b7cd0       ?runInternal@PxsPreIntegrateTask@Dy@physx@@UAEXXZ 100b8cd0 f   LowLevelDynamics_static_32:DyDynamics.obj
 0001:000b7d20       ?runInternal@PxsSolverConstraintPartitionTask@Dy@physx@@UAEXXZ 100b8d20 f i LowLevelDynamics_static_32:DyDynamics.obj
 0001:000b7f20       ?runInternal@PxsSolverConstraintPostProcessTask@Dy@physx@@UAEXXZ 100b8f20 f i LowLevelDynamics_static_32:DyDynamics.obj
 0001:000b7fa0       ?runInternal@PxsSolverCreateFinalizeConstraintsTask@Dy@physx@@UAEXXZ 100b8fa0 f   LowLevelDynamics_static_32:DyDynamics.obj
 0001:000b8490       ?runInternal@PxsSolverEndTask@Dy@physx@@UAEXXZ 100b9490 f i LowLevelDynamics_static_32:DyDynamics.obj
 0001:000b8680       ?runInternal@PxsSolverSetupSolveTask@Dy@physx@@UAEXXZ 100b9680 f i LowLevelDynamics_static_32:DyDynamics.obj
 0001:000ba280       ?runInternal@PxsSolverStartTask@Dy@physx@@UAEXXZ 100bb280 f i LowLevelDynamics_static_32:DyDynamics.obj
 0001:000ba430       ?runInternal@SolverArticulationUpdateTask@Dy@physx@@UAEXXZ 100bb430 f i LowLevelDynamics_static_32:DyDynamics.obj
 0001:000ba710       ?runInternal@UpdateContinuationTask@Dy@physx@@UAEXXZ 100bb710 f i LowLevelDynamics_static_32:DyDynamics.obj
 0001:000ba730       ?setDescFromIndices@DynamicsContext@Dy@physx@@IAEXAAUPxSolverConstraintDesc@3@ABUPxsIndexedInteraction@3@I@Z 100bb730 f   LowLevelDynamics_static_32:DyDynamics.obj
 0001:000ba830       ?setDescFromIndices@DynamicsContext@Dy@physx@@IAEXAAUPxSolverConstraintDesc@3@IABVSimpleIslandManager@IG@3@PAII@Z 100bb830 f   LowLevelDynamics_static_32:DyDynamics.obj
 0001:000baa30       ?setupDescTask@PxsSolverStartTask@Dy@physx@@QAEXXZ 100bba30 f i LowLevelDynamics_static_32:DyDynamics.obj
 0001:000bb350       ?solveParallel@Dy@physx@@YAXAAVDynamicsContext@12@AAUSolverIslandParams@12@AAVIslandSim@IG@2@@Z 100bc350 f   LowLevelDynamics_static_32:DyDynamics.obj
 0001:000bb430       ?startTasks@PxsSolverStartTask@Dy@physx@@QAEXXZ 100bc430 f i LowLevelDynamics_static_32:DyDynamics.obj
 0001:000bb8a0       ?update@DynamicsContext@Dy@physx@@UAEXAAVSimpleIslandManager@IG@3@PAVPxBaseTask@3@1PAPAVPxsContactManager@3@I2IIAAVPxsContactManagerOutputIterator@3@PAUPxsContactManagerOutput@3@MABVPxVec3@3@I@Z 100bc8a0 f   LowLevelDynamics_static_32:DyDynamics.obj
 0001:000bc130       ?updatePostKinematic@DynamicsContext@Dy@physx@@QAEXAAVSimpleIslandManager@IG@3@PAVPxBaseTask@3@1@Z 100bd130 f   LowLevelDynamics_static_32:DyDynamics.obj
 0001:000bc420       ?clearExt1D@Dy@physx@@YAXABUPxSolverConstraintDesc@2@AAUSolverContext@12@@Z 100bd420 f   LowLevelDynamics_static_32:DySolverConstraints.obj
 0001:000bc460       ?conclude1D@Dy@physx@@YAXABUPxSolverConstraintDesc@2@AAUSolverContext@12@@Z 100bd460 f   LowLevelDynamics_static_32:DySolverConstraints.obj
 0001:000bc4a0       ?concludeContact@Dy@physx@@YAXABUPxSolverConstraintDesc@2@AAUSolverContext@12@@Z 100bd4a0 f   LowLevelDynamics_static_32:DySolverConstraints.obj
 0001:000bc600       ?solve1D@Dy@physx@@YAXABUPxSolverConstraintDesc@2@AAUSolverContext@12@@Z 100bd600 f   LowLevelDynamics_static_32:DySolverConstraints.obj
 0001:000bc840       ?solve1DBlock@Dy@physx@@YAXPIBUPxSolverConstraintDesc@2@IAAUSolverContext@12@@Z 100bd840 f   LowLevelDynamics_static_32:DySolverConstraints.obj
 0001:000bcaf0       ?solve1DBlockWriteBack@Dy@physx@@YAXPIBUPxSolverConstraintDesc@2@IAAUSolverContext@12@@Z 100bdaf0 f   LowLevelDynamics_static_32:DySolverConstraints.obj
 0001:000bcba0       ?solve1DConcludeBlock@Dy@physx@@YAXPIBUPxSolverConstraintDesc@2@IAAUSolverContext@12@@Z 100bdba0 f   LowLevelDynamics_static_32:DySolverConstraints.obj
 0001:000bcc80       ?solveContact@Dy@physx@@YAXABUPxSolverConstraintDesc@2@AAUSolverContext@12@@Z 100bdc80 f   LowLevelDynamics_static_32:DySolverConstraints.obj
 0001:000bd140       ?solveContactBlock@Dy@physx@@YAXPIBUPxSolverConstraintDesc@2@IAAUSolverContext@12@@Z 100be140 f   LowLevelDynamics_static_32:DySolverConstraints.obj
 0001:000bd670       ?solveContactBlockWriteBack@Dy@physx@@YAXPIBUPxSolverConstraintDesc@2@IAAUSolverContext@12@@Z 100be670 f   LowLevelDynamics_static_32:DySolverConstraints.obj
 0001:000bd780       ?solveContactConcludeBlock@Dy@physx@@YAXPIBUPxSolverConstraintDesc@2@IAAUSolverContext@12@@Z 100be780 f   LowLevelDynamics_static_32:DySolverConstraints.obj
 0001:000bd7f0       ?solveContact_BStatic@Dy@physx@@YAXABUPxSolverConstraintDesc@2@AAUSolverContext@12@@Z 100be7f0 f   LowLevelDynamics_static_32:DySolverConstraints.obj
 0001:000bdb50       ?solveContact_BStaticBlock@Dy@physx@@YAXPIBUPxSolverConstraintDesc@2@IAAUSolverContext@12@@Z 100beb50 f   LowLevelDynamics_static_32:DySolverConstraints.obj
 0001:000bdf20       ?solveContact_BStaticBlockWriteBack@Dy@physx@@YAXPIBUPxSolverConstraintDesc@2@IAAUSolverContext@12@@Z 100bef20 f   LowLevelDynamics_static_32:DySolverConstraints.obj
 0001:000be030       ?solveContact_BStaticConcludeBlock@Dy@physx@@YAXPIBUPxSolverConstraintDesc@2@IAAUSolverContext@12@@Z 100bf030 f   LowLevelDynamics_static_32:DySolverConstraints.obj
 0001:000be0a0       ?solveExt1D@Dy@physx@@YAXABUPxSolverConstraintDesc@2@AAT__m128@@1111111@Z 100bf0a0 f   LowLevelDynamics_static_32:DySolverConstraints.obj
 0001:000be290       ?solveExt1D@Dy@physx@@YAXABUPxSolverConstraintDesc@2@AAUSolverContext@12@@Z 100bf290 f   LowLevelDynamics_static_32:DySolverConstraints.obj
 0001:000be510       ?solveExt1DBlock@Dy@physx@@YAXPIBUPxSolverConstraintDesc@2@IAAUSolverContext@12@@Z 100bf510 f   LowLevelDynamics_static_32:DySolverConstraints.obj
 0001:000be7b0       ?solveExt1DBlockWriteBack@Dy@physx@@YAXPIBUPxSolverConstraintDesc@2@IAAUSolverContext@12@@Z 100bf7b0 f   LowLevelDynamics_static_32:DySolverConstraints.obj
 0001:000be830       ?solveExt1DConcludeBlock@Dy@physx@@YAXPIBUPxSolverConstraintDesc@2@IAAUSolverContext@12@@Z 100bf830 f   LowLevelDynamics_static_32:DySolverConstraints.obj
 0001:000be890       ?solveExtContact@Dy@physx@@YAXABUPxSolverConstraintDesc@2@AAT__m128@@1111111_N@Z 100bf890 f   LowLevelDynamics_static_32:DySolverConstraints.obj
 0001:000bec50       ?solveExtContact@Dy@physx@@YAXABUPxSolverConstraintDesc@2@AAUSolverContext@12@@Z 100bfc50 f   LowLevelDynamics_static_32:DySolverConstraints.obj
 0001:000beed0       ?solveExtContactBlock@Dy@physx@@YAXPIBUPxSolverConstraintDesc@2@IAAUSolverContext@12@@Z 100bfed0 f   LowLevelDynamics_static_32:DySolverConstraints.obj
 0001:000bf170       ?solveExtContactBlockWriteBack@Dy@physx@@YAXPIBUPxSolverConstraintDesc@2@IAAUSolverContext@12@@Z 100c0170 f   LowLevelDynamics_static_32:DySolverConstraints.obj
 0001:000bf250       ?solveExtContactConcludeBlock@Dy@physx@@YAXPIBUPxSolverConstraintDesc@2@IAAUSolverContext@12@@Z 100c0250 f   LowLevelDynamics_static_32:DySolverConstraints.obj
 0001:000bf280       ?solveExtContacts@Dy@physx@@YA?AT__m128@@PAUSolverContactPointExt@12@IABT3@AAT3@2222222PIAM@Z 100c0280 f   LowLevelDynamics_static_32:DySolverConstraints.obj
 0001:000bf3e0       ?writeBack1D@Dy@physx@@YAXABUPxSolverConstraintDesc@2@AAUSolverContext@12@AAUPxSolverBodyData@2@2@Z 100c03e0 f   LowLevelDynamics_static_32:DySolverConstraints.obj
 0001:000bf590       ?writeBackContact@Dy@physx@@YAXABUPxSolverConstraintDesc@2@AAUSolverContext@12@AAUPxSolverBodyData@2@2@Z 100c0590 f   LowLevelDynamics_static_32:DySolverConstraints.obj
 0001:000bf800       ?createFinalizeSolverContactsCoulomb1D@Dy@physx@@YA_NAAUPxSolverContactDesc@2@AAUPxsContactManagerOutput@2@AAVThreadContext@12@MMMMMAAVPxConstraintAllocator@2@PAUSpatialVectorF@Cm@2@@Z 100c0800 f   LowLevelDynamics_static_32:DyContactPrepPF.obj
 0001:000bf860       ?createFinalizeSolverContactsCoulomb2D@Dy@physx@@YA_NAAUPxSolverContactDesc@2@AAUPxsContactManagerOutput@2@AAVThreadContext@12@MMMMMAAVPxConstraintAllocator@2@PAUSpatialVectorF@Cm@2@@Z 100c0860 f   LowLevelDynamics_static_32:DyContactPrepPF.obj
 0001:000bf8c0       ?createFinalizeSolverContactsCoulomb@Dy@physx@@YA_NAAUPxSolverContactDesc@2@AAUPxsContactManagerOutput@2@AAVThreadContext@12@MMMMMAAVPxConstraintAllocator@2@W4Enum@PxFrictionType@2@PAUSpatialVectorF@Cm@2@@Z 100c08c0 f   LowLevelDynamics_static_32:DyContactPrepPF.obj
 0001:000c0c90       ?correlatePatches@Dy@physx@@YA_NAAUCorrelationBuffer@12@PBUContactPoint@Gu@2@ABVPxTransform@2@2MII@Z 100c1c90 f   LowLevelDynamics_static_32:DyFrictionCorrelation.obj
 0001:000c12d0       ?createContactPatches@Dy@physx@@YA_NAAUCorrelationBuffer@12@PBUContactPoint@Gu@2@IM@Z 100c22d0 f   LowLevelDynamics_static_32:DyFrictionCorrelation.obj
 0001:000c1550       ?growPatches@Dy@physx@@YAXAAUCorrelationBuffer@12@PBUContactPoint@Gu@2@ABVPxTransform@2@2MIM@Z 100c2550 f   LowLevelDynamics_static_32:DyFrictionCorrelation.obj
 0001:000c1d70       ?createImpulseResponseVector@Dy@physx@@YA?AUSpatialVectorV@Cm@2@ABT__m128@@0ABVSolverExtBody@12@@Z 100c2d70 f   LowLevelDynamics_static_32:DyArticulationContactPrep.obj
 0001:000c1e00       ?createImpulseResponseVector@Dy@physx@@YA?AVSpatialVector@Cm@2@ABVPxVec3@2@0ABVSolverExtBody@12@@Z 100c2e00 f   LowLevelDynamics_static_32:DyArticulationContactPrep.obj
 0001:000c1f00       ?getImpulseResponse@Dy@physx@@YA?AT__m128@@ABVSolverExtBody@12@ABUSpatialVectorV@Cm@2@AAU562@ABT3@301233PAU562@_N@Z 100c2f00 f   LowLevelDynamics_static_32:DyArticulationContactPrep.obj
 0001:000c2060       ?getImpulseResponse@Dy@physx@@YAMABVSolverExtBody@12@ABVSpatialVector@Cm@2@AAV452@MM012MMPAUSpatialVectorF@52@_N@Z 100c3060 f   LowLevelDynamics_static_32:DyArticulationContactPrep.obj
 0001:000c2370       ?getLinVel@SolverExtBody@Dy@physx@@QBE?AVPxVec3@3@XZ 100c3370 f   LowLevelDynamics_static_32:DyArticulationContactPrep.obj
 0001:000c23e0       ?getVelocity@SolverExtBody@Dy@physx@@QBE?AUSpatialVectorV@Cm@3@XZ 100c33e0 f   LowLevelDynamics_static_32:DyArticulationContactPrep.obj
 0001:000c2430       ?projectVelocity@SolverExtBody@Dy@physx@@QBEMABVPxVec3@3@0@Z 100c3430 f   LowLevelDynamics_static_32:DyArticulationContactPrep.obj
 0001:000c2530       ?setupFinalizeExtSolverContacts@Dy@physx@@YAXPBUContactPoint@Gu@2@ABUCorrelationBuffer@12@ABVPxTransform@2@2PAEABVSolverExtBody@12@4MMMMMMM3MPAUSpatialVectorF@Cm@2@@Z 100c3530 f   LowLevelDynamics_static_32:DyArticulationContactPrep.obj
 0001:000c3830       ?computeBlockStreamByteSizesCoulomb4@Dy@physx@@YAXPAUPxSolverContactDesc@2@AAVThreadContext@12@ABUCorrelationBuffer@12@IAAIPAI3@Z 100c4830 f   LowLevelDynamics_static_32:DyContactPrep4PF.obj
 0001:000c3ac0       ?createFinalizeSolverContacts4Coulomb1D@Dy@physx@@YA?AW4Enum@SolverConstraintPrepState@12@PAPAUPxsContactManagerOutput@2@AAVThreadContext@12@PAUPxSolverContactDesc@2@MMMMMAAVPxConstraintAllocator@2@@Z 100c4ac0 f   LowLevelDynamics_static_32:DyContactPrep4PF.obj
 0001:000c3b20       ?createFinalizeSolverContacts4Coulomb2D@Dy@physx@@YA?AW4Enum@SolverConstraintPrepState@12@PAPAUPxsContactManagerOutput@2@AAVThreadContext@12@PAUPxSolverContactDesc@2@MMMMMAAVPxConstraintAllocator@2@@Z 100c4b20 f   LowLevelDynamics_static_32:DyContactPrep4PF.obj
 0001:000c3b80       ?createFinalizeSolverContacts4Coulomb@Dy@physx@@YA?AW4Enum@SolverConstraintPrepState@12@PAPAUPxsContactManagerOutput@2@AAVThreadContext@12@PAUPxSolverContactDesc@2@MMMMMAAVPxConstraintAllocator@2@W43PxFrictionType@2@@Z 100c4b80 f   LowLevelDynamics_static_32:DyContactPrep4PF.obj
 0001:000c6490       ?solve1D4Block_Conclude@Dy@physx@@YAXPIBUPxSolverConstraintDesc@2@IAAUSolverContext@12@@Z 100c7490 f   LowLevelDynamics_static_32:DySolverConstraintsBlock.obj
 0001:000c64f0       ?solve1D4Block_WriteBack@Dy@physx@@YAXPIBUPxSolverConstraintDesc@2@IAAUSolverContext@12@@Z 100c74f0 f   LowLevelDynamics_static_32:DySolverConstraintsBlock.obj
 0001:000c6bf0       ?solve1D4_Block@Dy@physx@@YAXPIBUPxSolverConstraintDesc@2@IAAUSolverContext@12@@Z 100c7bf0 f   LowLevelDynamics_static_32:DySolverConstraintsBlock.obj
 0001:000c7f10       ?solveContactPreBlock@Dy@physx@@YAXPIBUPxSolverConstraintDesc@2@IAAUSolverContext@12@@Z 100c8f10 f   LowLevelDynamics_static_32:DySolverConstraintsBlock.obj
 0001:000c7f30       ?solveContactPreBlock_Conclude@Dy@physx@@YAXPIBUPxSolverConstraintDesc@2@IAAUSolverContext@12@@Z 100c8f30 f   LowLevelDynamics_static_32:DySolverConstraintsBlock.obj
 0001:000c7f60       ?solveContactPreBlock_ConcludeStatic@Dy@physx@@YAXPIBUPxSolverConstraintDesc@2@IAAUSolverContext@12@@Z 100c8f60 f   LowLevelDynamics_static_32:DySolverConstraintsBlock.obj
 0001:000c7f90       ?solveContactPreBlock_Static@Dy@physx@@YAXPIBUPxSolverConstraintDesc@2@IAAUSolverContext@12@@Z 100c8f90 f   LowLevelDynamics_static_32:DySolverConstraintsBlock.obj
 0001:000c7fb0       ?solveContactPreBlock_WriteBack@Dy@physx@@YAXPIBUPxSolverConstraintDesc@2@IAAUSolverContext@12@@Z 100c8fb0 f   LowLevelDynamics_static_32:DySolverConstraintsBlock.obj
 0001:000c80a0       ?solveContactPreBlock_WriteBackStatic@Dy@physx@@YAXPIBUPxSolverConstraintDesc@2@IAAUSolverContext@12@@Z 100c90a0 f   LowLevelDynamics_static_32:DySolverConstraintsBlock.obj
 0001:000c8190       ?writeBack1D4@Dy@physx@@YAXPIBUPxSolverConstraintDesc@2@AAUSolverContext@12@PIAPBUPxSolverBodyData@2@2@Z 100c9190 f   LowLevelDynamics_static_32:DySolverConstraintsBlock.obj
 0001:000c8520       ?writeBackContact4_Block@Dy@physx@@YAXPIBUPxSolverConstraintDesc@2@AAUSolverContext@12@PIAPBUPxSolverBodyData@2@2@Z 100c9520 f   LowLevelDynamics_static_32:DySolverConstraintsBlock.obj
 0001:000c8860       ??0ThreadContext@Dy@physx@@QAE@PAVPxcNpMemBlockPool@2@@Z 100c9860 f   LowLevelDynamics_static_32:DyThreadContext.obj
 0001:000c8b00       ?recreate@?$Array@UArticulationSolverDesc@Dy@physx@@V?$ReflectionAllocator@UArticulationSolverDesc@Dy@physx@@@shdfnd@3@@shdfnd@physx@@IAEXI@Z 100c9b00 f i LowLevelDynamics_static_32:DyThreadContext.obj
 0001:000c8bc0       ?recreate@?$Array@UPxSolverConstraintDesc@physx@@V?$ReflectionAllocator@UPxSolverConstraintDesc@physx@@@shdfnd@2@@shdfnd@physx@@IAEXI@Z 100c9bc0 f i LowLevelDynamics_static_32:DyThreadContext.obj
 0001:000c8c80       ?reset@ThreadContext@Dy@physx@@QAEXXZ 100c9c80 f   LowLevelDynamics_static_32:DyThreadContext.obj
 0001:000c8d20       ?resizeArrays@ThreadContext@Dy@physx@@QAEXII@Z 100c9d20 f   LowLevelDynamics_static_32:DyThreadContext.obj
 0001:000ca040       ?partitionContactConstraints@Dy@physx@@YAIAAUConstraintPartitionArgs@12@@Z 100cb040 f   LowLevelDynamics_static_32:DyConstraintPartition.obj
 0001:000ca2d0       ?concludeContactCoulomb@Dy@physx@@YAXABUPxSolverConstraintDesc@2@AAUSolverContext@12@@Z 100cb2d0 f   LowLevelDynamics_static_32:DySolverPFConstraints.obj
 0001:000ca3d0       ?solveContactCoulomb@Dy@physx@@YAXABUPxSolverConstraintDesc@2@AAUSolverContext@12@@Z 100cb3d0 f   LowLevelDynamics_static_32:DySolverPFConstraints.obj
 0001:000ca620       ?solveContactCoulombBlock@Dy@physx@@YAXPIBUPxSolverConstraintDesc@2@IAAUSolverContext@12@@Z 100cb620 f   LowLevelDynamics_static_32:DySolverPFConstraints.obj
 0001:000ca890       ?solveContactCoulombBlockWriteBack@Dy@physx@@YAXPIBUPxSolverConstraintDesc@2@IAAUSolverContext@12@@Z 100cb890 f   LowLevelDynamics_static_32:DySolverPFConstraints.obj
 0001:000ca940       ?solveContactCoulombConcludeBlock@Dy@physx@@YAXPIBUPxSolverConstraintDesc@2@IAAUSolverContext@12@@Z 100cb940 f   LowLevelDynamics_static_32:DySolverPFConstraints.obj
 0001:000ca970       ?solveContactCoulomb_BStatic@Dy@physx@@YAXABUPxSolverConstraintDesc@2@AAUSolverContext@12@@Z 100cb970 f   LowLevelDynamics_static_32:DySolverPFConstraints.obj
 0001:000cab00       ?solveContactCoulomb_BStaticBlock@Dy@physx@@YAXPIBUPxSolverConstraintDesc@2@IAAUSolverContext@12@@Z 100cbb00 f   LowLevelDynamics_static_32:DySolverPFConstraints.obj
 0001:000cacb0       ?solveContactCoulomb_BStaticBlockWriteBack@Dy@physx@@YAXPIBUPxSolverConstraintDesc@2@IAAUSolverContext@12@@Z 100cbcb0 f   LowLevelDynamics_static_32:DySolverPFConstraints.obj
 0001:000cad60       ?solveContactCoulomb_BStaticConcludeBlock@Dy@physx@@YAXPIBUPxSolverConstraintDesc@2@IAAUSolverContext@12@@Z 100cbd60 f   LowLevelDynamics_static_32:DySolverPFConstraints.obj
 0001:000cad90       ?solveExtContactCoulomb@Dy@physx@@YAXABUPxSolverConstraintDesc@2@AAUSolverContext@12@@Z 100cbd90 f   LowLevelDynamics_static_32:DySolverPFConstraints.obj
 0001:000cb0a0       ?solveExtContactCoulombBlock@Dy@physx@@YAXPIBUPxSolverConstraintDesc@2@IAAUSolverContext@12@@Z 100cc0a0 f   LowLevelDynamics_static_32:DySolverPFConstraints.obj
 0001:000cb3e0       ?solveExtContactCoulombBlockWriteBack@Dy@physx@@YAXPIBUPxSolverConstraintDesc@2@IAAUSolverContext@12@@Z 100cc3e0 f   LowLevelDynamics_static_32:DySolverPFConstraints.obj
 0001:000cb4c0       ?solveExtContactCoulombConcludeBlock@Dy@physx@@YAXPIBUPxSolverConstraintDesc@2@IAAUSolverContext@12@@Z 100cc4c0 f   LowLevelDynamics_static_32:DySolverPFConstraints.obj
 0001:000cb4f0       ?solveExtFrictionBlock@Dy@physx@@YAXPIBUPxSolverConstraintDesc@2@IAAUSolverContext@12@@Z 100cc4f0 f   LowLevelDynamics_static_32:DySolverPFConstraints.obj
 0001:000cb4f0       ?solveExtFrictionBlockWriteBack@Dy@physx@@YAXPIBUPxSolverConstraintDesc@2@IAAUSolverContext@12@@Z 100cc4f0 f   LowLevelDynamics_static_32:DySolverPFConstraints.obj
 0001:000cb9b0       ?solveFrictionBlock@Dy@physx@@YAXPIBUPxSolverConstraintDesc@2@IAAUSolverContext@12@@Z 100cc9b0 f   LowLevelDynamics_static_32:DySolverPFConstraints.obj
 0001:000cb9b0       ?solveFrictionBlockWriteBack@Dy@physx@@YAXPIBUPxSolverConstraintDesc@2@IAAUSolverContext@12@@Z 100cc9b0 f   LowLevelDynamics_static_32:DySolverPFConstraints.obj
 0001:000cbd40       ?solveFriction_BStaticBlock@Dy@physx@@YAXPIBUPxSolverConstraintDesc@2@IAAUSolverContext@12@@Z 100ccd40 f   LowLevelDynamics_static_32:DySolverPFConstraints.obj
 0001:000cbd40       ?solveFriction_BStaticBlockWriteBack@Dy@physx@@YAXPIBUPxSolverConstraintDesc@2@IAAUSolverContext@12@@Z 100ccd40 f   LowLevelDynamics_static_32:DySolverPFConstraints.obj
 0001:000cbfc0       ?writeBackContactCoulomb@Dy@physx@@YAXABUPxSolverConstraintDesc@2@AAUSolverContext@12@AAUPxSolverBodyData@2@2@Z 100ccfc0 f   LowLevelDynamics_static_32:DySolverPFConstraints.obj
 0001:000ccdf0       ?solveContactCoulombPreBlock@Dy@physx@@YAXPIBUPxSolverConstraintDesc@2@IAAUSolverContext@12@@Z 100cddf0 f   LowLevelDynamics_static_32:DySolverPFConstraintsBlock.obj
 0001:000cce10       ?solveContactCoulombPreBlock_Conclude@Dy@physx@@YAXPIBUPxSolverConstraintDesc@2@IAAUSolverContext@12@@Z 100cde10 f   LowLevelDynamics_static_32:DySolverPFConstraintsBlock.obj
 0001:000cce30       ?solveContactCoulombPreBlock_ConcludeStatic@Dy@physx@@YAXPIBUPxSolverConstraintDesc@2@IAAUSolverContext@12@@Z 100cde30 f   LowLevelDynamics_static_32:DySolverPFConstraintsBlock.obj
 0001:000cce50       ?solveContactCoulombPreBlock_Static@Dy@physx@@YAXPIBUPxSolverConstraintDesc@2@IAAUSolverContext@12@@Z 100cde50 f   LowLevelDynamics_static_32:DySolverPFConstraintsBlock.obj
 0001:000cce70       ?solveContactCoulombPreBlock_WriteBack@Dy@physx@@YAXPIBUPxSolverConstraintDesc@2@IAAUSolverContext@12@@Z 100cde70 f   LowLevelDynamics_static_32:DySolverPFConstraintsBlock.obj
 0001:000ccf60       ?solveContactCoulombPreBlock_WriteBackStatic@Dy@physx@@YAXPIBUPxSolverConstraintDesc@2@IAAUSolverContext@12@@Z 100cdf60 f   LowLevelDynamics_static_32:DySolverPFConstraintsBlock.obj
 0001:000cdbe0       ?solveFrictionCoulombPreBlock_Conclude@Dy@physx@@YAXPIBUPxSolverConstraintDesc@2@IAAUSolverContext@12@@Z 100cebe0 f   LowLevelDynamics_static_32:DySolverPFConstraintsBlock.obj
 0001:000cdbe0       ?solveFrictionCoulombPreBlock@Dy@physx@@YAXPIBUPxSolverConstraintDesc@2@IAAUSolverContext@12@@Z 100cebe0 f   LowLevelDynamics_static_32:DySolverPFConstraintsBlock.obj
 0001:000cdbe0       ?solveFrictionCoulombPreBlock_WriteBack@Dy@physx@@YAXPIBUPxSolverConstraintDesc@2@IAAUSolverContext@12@@Z 100cebe0 f   LowLevelDynamics_static_32:DySolverPFConstraintsBlock.obj
 0001:000cdc00       ?solveFrictionCoulombPreBlock_WriteBackStatic@Dy@physx@@YAXPIBUPxSolverConstraintDesc@2@IAAUSolverContext@12@@Z 100cec00 f   LowLevelDynamics_static_32:DySolverPFConstraintsBlock.obj
 0001:000cdc00       ?solveFrictionCoulombPreBlock_ConcludeStatic@Dy@physx@@YAXPIBUPxSolverConstraintDesc@2@IAAUSolverContext@12@@Z 100cec00 f   LowLevelDynamics_static_32:DySolverPFConstraintsBlock.obj
 0001:000cdc00       ?solveFrictionCoulombPreBlock_Static@Dy@physx@@YAXPIBUPxSolverConstraintDesc@2@IAAUSolverContext@12@@Z 100cec00 f   LowLevelDynamics_static_32:DySolverPFConstraintsBlock.obj
 0001:000cdc20       ?writeBackContactCoulomb4@Dy@physx@@YAXPBUPxSolverConstraintDesc@2@AAUSolverContext@12@PIAPBUPxSolverBodyData@2@2@Z 100cec20 f   LowLevelDynamics_static_32:DySolverPFConstraintsBlock.obj
 0001:000cdeb0       ?setupFinalizeExtSolverContactsCoulomb@Dy@physx@@YA_NABVContactBuffer@Gu@2@ABUCorrelationBuffer@12@ABVPxTransform@2@2PAEMMABVSolverExtBody@12@4IMMMMMMPAUSpatialVectorF@Cm@2@@Z 100ceeb0 f   LowLevelDynamics_static_32:DyArticulationContactPrepPF.obj
 0001:000ce9b0       ??0PruningStructure@Sq@physx@@QAE@XZ 100cf9b0 f   SceneQuery_static_32:SqPruningStructure.obj
 0001:000cea10       ??_EPruningStructure@Sq@physx@@UAEPAXI@Z 100cfa10 f i SceneQuery_static_32:SqPruningStructure.obj
 0001:000cea10       ??_GPruningStructure@Sq@physx@@UAEPAXI@Z 100cfa10 f i SceneQuery_static_32:SqPruningStructure.obj
 0001:000ceac0       ?build@PruningStructure@Sq@physx@@QAE_NPBQAVPxRigidActor@3@I@Z 100cfac0 f   SceneQuery_static_32:SqPruningStructure.obj
 0001:000cf090       ?createObject@PruningStructure@Sq@physx@@SAPAV123@AAPAEAAVPxDeserializationContext@3@@Z 100d0090 f   SceneQuery_static_32:SqPruningStructure.obj
 0001:000cf1b0       ?exportExtraData@PruningStructure@Sq@physx@@QAEXAAVPxSerializationContext@3@@Z 100d01b0 f   SceneQuery_static_32:SqPruningStructure.obj
 0001:000cf270       ?getConcreteTypeName@PxPruningStructure@physx@@UBEPBDXZ 100d0270 f i SceneQuery_static_32:SqPruningStructure.obj
 0001:000cf280       ?getRigidActors@PruningStructure@Sq@physx@@UBEIPAPAVPxRigidActor@3@II@Z 100d0280 f   SceneQuery_static_32:SqPruningStructure.obj
 0001:000cf300       ?invalidate@PruningStructure@Sq@physx@@QAEXPAVPxActor@3@@Z 100d0300 f   SceneQuery_static_32:SqPruningStructure.obj
 0001:000cf370       ?isKindOf@PxPruningStructure@physx@@MBE_NPBD@Z 100d0370 f i SceneQuery_static_32:SqPruningStructure.obj
 0001:000cf3f0       ?release@PruningStructure@Sq@physx@@UAEXXZ 100d03f0 f   SceneQuery_static_32:SqPruningStructure.obj
 0001:000cf440       ?requiresObjects@PruningStructure@Sq@physx@@UAEXAAVPxProcessPxBaseCallback@3@@Z 100d0440 f   SceneQuery_static_32:SqPruningStructure.obj
 0001:000cf470       ?resolveReferences@PruningStructure@Sq@physx@@UAEXAAVPxDeserializationContext@3@@Z 100d0470 f   SceneQuery_static_32:SqPruningStructure.obj
 0001:000cf4b0       ??0SceneQueryManager@Sq@physx@@QAE@AAVScene@Scb@2@W4Enum@PxPruningStructureType@2@1IABVPxSceneLimits@2@@Z 100d04b0 f   SceneQuery_static_32:SqSceneQueryManager.obj
 0001:000cf7e0       ??1SceneQueryManager@Sq@physx@@QAE@XZ 100d07e0 f   SceneQuery_static_32:SqSceneQueryManager.obj
 0001:000cf8b0       ??_EDynamicBoundsSync@Sq@physx@@UAEPAXI@Z 100d08b0 f i SceneQuery_static_32:SqSceneQueryManager.obj
 0001:000cf8b0       ??_GDynamicBoundsSync@Sq@physx@@UAEPAXI@Z 100d08b0 f i SceneQuery_static_32:SqSceneQueryManager.obj
 0001:000cf8e0       ?addCompoundShape@SceneQueryManager@Sq@physx@@QAEXABVBVHStructure@Gu@3@IABVPxTransform@3@PAIPAPBVShape@Scb@3@ABVActor@83@@Z 100d08e0 f   SceneQuery_static_32:SqSceneQueryManager.obj
 0001:000cfae0       ?addPrunerShape@SceneQueryManager@Sq@physx@@QAEIABVShape@Scb@3@ABVActor@53@_NIPBVPxBounds3@3@2@Z 100d0ae0 f   SceneQuery_static_32:SqSceneQueryManager.obj
 0001:000cfc70       ?addPruningStructure@SceneQueryManager@Sq@physx@@QAEXABVPruningStructure@23@@Z 100d0c70 f   SceneQuery_static_32:SqSceneQueryManager.obj
 0001:000cfce0       ?afterSync@SceneQueryManager@Sq@physx@@QAEXW4Enum@PxSceneQueryUpdateMode@3@@Z 100d0ce0 f   SceneQuery_static_32:SqSceneQueryManager.obj
 0001:000cfd40       ?clear@?$HashSetBase@V?$Pair@II@shdfnd@physx@@U?$Hash@V?$Pair@II@shdfnd@physx@@@23@VNonTrackingAllocator@23@$00@internal@shdfnd@physx@@QAEXXZ 100d0d40 f i SceneQuery_static_32:SqSceneQueryManager.obj
 0001:000cfd40       ?clear@?$HashMapBase@IPAVIncrementalAABBTreeNode@Sq@physx@@U?$Hash@I@shdfnd@3@VNonTrackingAllocator@53@@internal@shdfnd@physx@@QAEXXZ 100d0d40 f i SceneQuery_static_32:SqIncrementalAABBPrunerCore.obj
 0001:000cfd40       ?clear@?$HashMapBase@UPrunerPayload@Sq@physx@@UExtendedBucketPrunerData@23@UExtendedBucketPrunerHash@23@VNonTrackingAllocator@shdfnd@3@@internal@shdfnd@physx@@QAEXXZ 100d0d40 f i SceneQuery_static_32:SqExtendedBucketPruner.obj
 0001:000cfd40       ?clear@?$HashSetBase@PAVBodyCore@Sc@physx@@U?$Hash@PAVBodyCore@Sc@physx@@@shdfnd@3@VNonTrackingAllocator@53@$00@internal@shdfnd@physx@@QAEXXZ 100d0d40 f i SimulationController_static_32:ScScene.obj
 0001:000cfdb0       ?count@?$BitMapBase@VNonTrackingAllocator@shdfnd@physx@@@Cm@physx@@QBEIXZ 100d0db0 f i SceneQuery_static_32:SqSceneQueryManager.obj
 0001:000cff50       ?flushMemory@SceneQueryManager@Sq@physx@@QAEXXZ 100d0f50 f   SceneQuery_static_32:SqSceneQueryManager.obj
 0001:000cffb0       ?flushShapes@SceneQueryManager@Sq@physx@@AAEXXZ 100d0fb0 f   SceneQuery_static_32:SqSceneQueryManager.obj
 0001:000d0110       ?flushUpdates@SceneQueryManager@Sq@physx@@QAEXXZ 100d1110 f   SceneQuery_static_32:SqSceneQueryManager.obj
 0001:000d0170       ?forceDynamicTreeRebuild@SceneQueryManager@Sq@physx@@QAEX_N0@Z 100d1170 f   SceneQuery_static_32:SqSceneQueryManager.obj
 0001:000d01d0       ?getPayload@SceneQueryManager@Sq@physx@@QBEABUPrunerPayload@23@II@Z 100d11d0 f   SceneQuery_static_32:SqSceneQueryManager.obj
 0001:000d0210       ?hash@?$HashBase@V?$Pair@$$CBV?$Pair@PBUPxsRigidCore@physx@@PBUPxsShapeCore@2@@shdfnd@physx@@PAUPxsCCDShape@3@@shdfnd@physx@@V?$Pair@PBUPxsRigidCore@physx@@PBUPxsShapeCore@2@@23@U?$Hash@V?$Pair@PBUPxsRigidCore@physx@@PBUPxsShapeCore@2@@shdfnd@physx@@@23@UGetKey@?$HashMapBase@V?$Pair@PBUPxsRigidCore@physx@@PBUPxsShapeCore@2@@shdfnd@physx@@PAUPxsCCDShape@3@U?$Hash@V?$Pair@PBUPxsRigidCore@physx@@PBUPxsShapeCore@2@@shdfnd@physx@@@23@VNonTrackingAllocator@23@@internal@23@VNonTrackingAllocator@23@$00@internal@shdfnd@physx@@ABEIABV?$Pair@PBUPxsRigidCore@physx@@PBUPxsShapeCore@2@@34@I@Z 100d1210 f i LowLevel_static_32:PxsCCD.obj
 0001:000d0210       ?hash@?$HashBase@V?$Pair@II@shdfnd@physx@@V123@U?$Hash@V?$Pair@II@shdfnd@physx@@@23@UGetKey@?$HashSetBase@V?$Pair@II@shdfnd@physx@@U?$Hash@V?$Pair@II@shdfnd@physx@@@23@VNonTrackingAllocator@23@$00@internal@23@VNonTrackingAllocator@23@$00@internal@shdfnd@physx@@ABEIABV?$Pair@II@34@I@Z 100d1210 f i SceneQuery_static_32:SqSceneQueryManager.obj
 0001:000d0290       ?init@PrunerExt@Sq@physx@@QAEXW4Enum@PxPruningStructureType@3@_KI@Z 100d1290 f   SceneQuery_static_32:SqSceneQueryManager.obj
 0001:000d03f0       ?markForUpdate@SceneQueryManager@Sq@physx@@QAEXII@Z 100d13f0 f   SceneQuery_static_32:SqSceneQueryManager.obj
 0001:000d0570       ?preallocate@SceneQueryManager@Sq@physx@@QAEXII@Z 100d1570 f   SceneQuery_static_32:SqSceneQueryManager.obj
 0001:000d05c0       ?prepareSceneQueriesUpdate@SceneQueryManager@Sq@physx@@QAE_NW4Enum@PruningIndex@23@@Z 100d15c0 f   SceneQuery_static_32:SqSceneQueryManager.obj
 0001:000d05f0       ?removeCompoundActor@SceneQueryManager@Sq@physx@@QAEXI_N@Z 100d15f0 f   SceneQuery_static_32:SqSceneQueryManager.obj
 0001:000d0610       ?removePrunerShape@SceneQueryManager@Sq@physx@@QAEXII@Z 100d1610 f   SceneQuery_static_32:SqSceneQueryManager.obj
 0001:000d0790       ?reserveInternal@?$HashBase@V?$Pair@II@shdfnd@physx@@V123@U?$Hash@V?$Pair@II@shdfnd@physx@@@23@UGetKey@?$HashSetBase@V?$Pair@II@shdfnd@physx@@U?$Hash@V?$Pair@II@shdfnd@physx@@@23@VNonTrackingAllocator@23@$00@internal@23@VNonTrackingAllocator@23@$00@internal@shdfnd@physx@@AAEXI@Z 100d1790 f i SceneQuery_static_32:SqSceneQueryManager.obj
 0001:000d0980       ?sceneQueryBuildStep@SceneQueryManager@Sq@physx@@QAEXW4Enum@PruningIndex@23@@Z 100d1980 f   SceneQuery_static_32:SqSceneQueryManager.obj
 0001:000d09b0       ?setDynamicTreeRebuildRateHint@SceneQueryManager@Sq@physx@@QAEXI@Z 100d19b0 f   SceneQuery_static_32:SqSceneQueryManager.obj
 0001:000d09f0       ?shiftOrigin@SceneQueryManager@Sq@physx@@QAEXABVPxVec3@3@@Z 100d19f0 f   SceneQuery_static_32:SqSceneQueryManager.obj
 0001:000d0a30       ?sync@DynamicBoundsSync@Sq@physx@@UAEXPBI0PBVPxBounds3@3@IABV?$BitMapBase@VNonTrackingAllocator@shdfnd@physx@@@Cm@3@@Z 100d1a30 f   SceneQuery_static_32:SqSceneQueryManager.obj
 0001:000d0b10       ?updateCompoundActor@SceneQueryManager@Sq@physx@@QAEXIABVPxTransform@3@_N@Z 100d1b10 f   SceneQuery_static_32:SqSceneQueryManager.obj
 0001:000d0b40       ?updateCompoundActors@SceneQueryManager@Sq@physx@@QAEXPBQAVBodyCore@Sc@3@I@Z 100d1b40 f   SceneQuery_static_32:SqSceneQueryManager.obj
