 PhysXCooking_32

 Timestamp is 60560a6f (Sat Mar 20 15:45:03 2021)

 Preferred load address is 10000000

 Start         Length     Name                   Class
 0001:00000000 00001320H .text$di                CODE
 0001:00001320 000b6b70H .text$mn                CODE
 0001:000b7e90 00000193H .text$x                 CODE
 0002:00000000 00000160H .idata$5                DATA
 0002:00000160 00000004H .00cfg                  DATA
 0002:00000164 00000004H .CRT$XCA                DATA
 0002:00000168 000000f8H .CRT$XCU                DATA
 0002:00000260 00000004H .CRT$XCZ                DATA
 0002:00000264 00000004H .CRT$XIA                DATA
 0002:00000268 0000000cH .CRT$XIC                DATA
 0002:00000274 00000004H .CRT$XIZ                DATA
 0002:00000278 00000004H .CRT$XPA                DATA
 0002:0000027c 00000008H .CRT$XPX                DATA
 0002:00000284 00000004H .CRT$XPXA               DATA
 0002:00000288 00000004H .CRT$XPZ                DATA
 0002:0000028c 00000004H .CRT$XTA                DATA
 0002:00000290 00000010H .CRT$XTZ                DATA
 0002:00000294 00000000H .gfids$y                DATA
 0002:000002a0 00025b74H .rdata                  DATA
 0002:00025e14 000002acH .rdata$r                DATA
 0002:000260c0 00000040H .rdata$sxdata           DATA
 0002:00026100 000003f8H .rdata$zzzdbg           DATA
 0002:000264f8 00000004H .rtc$IAA                DATA
 0002:000264fc 00000050H .rtc$IMZ                DATA
 0002:0002654c 00000004H .rtc$IZZ                DATA
 0002:00026550 00000004H .rtc$TAA                DATA
 0002:00026554 00000050H .rtc$TMZ                DATA
 0002:000265a4 00000004H .rtc$TZZ                DATA
 0002:000265a8 00000c6cH .xdata$x                DATA
 0002:00027214 00000040H .didat$2                DATA
 0002:00027254 00000020H .didat$3                DATA
 0002:00027274 000000e8H .didat$4                DATA
 0002:0002735c 00000ad8H .didat$6                DATA
 0002:00027e34 000000ecH .didat$7                DATA
 0002:00027f20 00001c68H .edata                  DATA
 0002:00029b88 00000014H .idata$2                DATA
 0002:00029b9c 00000014H .idata$3                DATA
 0002:00029bb0 00000160H .idata$4                DATA
 0002:00029d10 00000662H .idata$6                DATA
 0003:00000000 00000900H .data                   DATA
 0003:00000900 00000348H .data$r                 DATA
 0003:00000c48 000000e8H .didat$5                DATA
 0003:00000d30 000018d4H .bss                    DATA
 0004:00000000 000000a0H .rsrc$01                DATA
 0004:000000a0 000004b0H .rsrc$02                DATA

  Address         Publics by Value              Rva+Base       Lib:Object

 0000:00000000       ___hybrid_code_map_count   00000000     <absolute>
 0000:00000000       ___guard_longjmp_table     00000000     <absolute>
 0000:00000000       ___volatile_metadata       00000000     <absolute>
 0000:00000000       ___hybrid_auxiliary_iat    00000000     <absolute>
 0000:00000000       ___hybrid_code_map         00000000     <absolute>
 0000:00000000       __except_list              00000000     <absolute>
 0000:00000000       ___guard_fids_count        00000000     <absolute>
 0000:00000000       ___guard_iat_table         00000000     <absolute>
 0000:00000000       ___guard_longjmp_count     00000000     <absolute>
 0000:00000000       ___enclave_config          00000000     <absolute>
 0000:00000000       ___AbsoluteZero            00000000     <absolute>
 0000:00000000       ___guard_iat_count         00000000     <absolute>
 0000:00000000       ___dynamic_value_reloc_table 00000000     <absolute>
 0000:00000000       ___guard_fids_table        00000000     <absolute>
 0000:00000010       ___safe_se_handler_count   00000010     <absolute>
 0000:00000100       ___guard_flags             00000100     <absolute>
 0000:00000000       ___ImageBase               10000000     <linker-defined>
 0001:00001320       ?ComputeNbBoundaryEdges@AdjTriangle@physx@@QBEIXZ 10002320 f   Adjacencies.obj
 0001:000013b0       ?ComputeNbNeighbors@AdjTriangle@physx@@QBEIXZ 100023b0 f   Adjacencies.obj
 0001:00001440       ?HasNeighbor@AdjTriangle@physx@@QBE_NIPAI@Z 10002440 f   Adjacencies.obj
 0001:00001530       ?Flip@AdjTriangle@physx@@QAEXXZ 10002530 f   Adjacencies.obj
 0001:00001560       ??0Adjacencies@physx@@QAE@XZ 10002560 f   Adjacencies.obj
 0001:00001590       ??1Adjacencies@physx@@QAE@XZ 10002590 f   Adjacencies.obj
 0001:000015d0       ?Load@Adjacencies@physx@@QAE_NAAVPxInputStream@2@@Z 100025d0 f   Adjacencies.obj
 0001:000016d0       ?ComputeNbBoundaryEdges@Adjacencies@physx@@QBEIXZ 100026d0 f   Adjacencies.obj
 0001:00001730       ?GetBoundaryVertices@Adjacencies@physx@@QBE_NIPA_NPBU?$TriangleT@I@Gu@2@@Z 10002730 f   Adjacencies.obj
 0001:00001940       ?MakeLastRef@Adjacencies@physx@@QAE_NAAVAdjTriangle@2@IPAU?$TriangleT@I@Gu@2@@Z 10002940 f   Adjacencies.obj
 0001:00001bc0       ?AssignNewEdgeCode@Adjacencies@physx@@AAEXIE@Z 10002bc0 f   Adjacencies.obj
 0001:00001c40       ??0AdjacenciesBuilder@physx@@QAE@XZ 10002c40 f   Adjacencies.obj
 0001:00001c60       ??1AdjacenciesBuilder@physx@@QAE@XZ 10002c60 f   Adjacencies.obj
 0001:00001c80       ?Init@AdjacenciesBuilder@physx@@QAE_NABUADJACENCIESCREATE@2@@Z 10002c80 f   Adjacencies.obj
 0001:00002940       ??$?_UI@@YAPAXIV?$ReflectionAllocator@I@shdfnd@physx@@PBDH@Z 10003940 f i Adjacencies.obj
 0001:00002960       ??$?_UV?$ReflectionAllocator@VAdjEdge@@@shdfnd@physx@@@UserAllocated@shdfnd@physx@@SAPAXIV?$ReflectionAllocator@VAdjEdge@@@12@PBDH@Z 10003960 f i Adjacencies.obj
 0001:00002980       ??$?_UV?$ReflectionAllocator@VAdjTriangle@physx@@@shdfnd@physx@@@UserAllocated@shdfnd@physx@@SAPAXIV?$ReflectionAllocator@VAdjTriangle@physx@@@12@PBDH@Z 10003980 f i Adjacencies.obj
 0001:000029a0       ??$swap@I@shdfnd@physx@@YAXAAI0@Z 100039a0 f i Adjacencies.obj
 0001:000029d0       ??0?$ReflectionAllocator@I@shdfnd@physx@@QAE@PBD@Z 100039d0 f i Adjacencies.obj
 0001:000029e0       ??0?$ReflectionAllocator@VAdjEdge@@@shdfnd@physx@@QAE@PBD@Z 100039e0 f i Adjacencies.obj
 0001:000029f0       ??0?$ReflectionAllocator@VAdjTriangle@physx@@@shdfnd@physx@@QAE@PBD@Z 100039f0 f i Adjacencies.obj
 0001:00002a00       ??0?$TriangleT@I@Gu@physx@@QAE@XZ 10003a00 f i Adjacencies.obj
 0001:00002a10       ??0AdjEdge@@QAE@XZ         10003a10 f i Adjacencies.obj
 0001:00002a20       ??0AdjTriangle@physx@@QAE@XZ 10003a20 f i Adjacencies.obj
 0001:00002a30       ??0Allocator@shdfnd@physx@@QAE@PBD@Z 10003a30 f i Adjacencies.obj
 0001:00002a40       ??0EDGELISTCREATE@Gu@physx@@QAE@XZ 10003a40 f i Adjacencies.obj
 0001:00002aa0       ??0NonTrackingAllocator@shdfnd@physx@@QAE@PBD@Z 10003aa0 f i Adjacencies.obj
 0001:00002ab0       ??0PxFoundation@physx@@QAE@ABV01@@Z 10003ab0 f i Adjacencies.obj
 0001:00002ad0       ??0PxFoundation@physx@@QAE@XZ 10003ad0 f i Adjacencies.obj
 0001:00002af0       ??1AdjEdge@@QAE@XZ         10003af0 f i Adjacencies.obj
 0001:00002b00       ??1AdjTriangle@physx@@QAE@XZ 10003b00 f i Adjacencies.obj
 0001:00002b10       ??1PxFoundation@physx@@MAE@XZ 10003b10 f i Adjacencies.obj
 0001:00002b30       ??3UserAllocated@shdfnd@physx@@SAXPAX@Z 10003b30 f i Adjacencies.obj
 0001:00002b50       ??4Allocator@shdfnd@physx@@QAEAAV012@$$QAV012@@Z 10003b50 f i Adjacencies.obj
 0001:00002b60       ??4Allocator@shdfnd@physx@@QAEAAV012@ABV012@@Z 10003b60 f i Adjacencies.obj
 0001:00002b70       ??4MutexImpl@shdfnd@physx@@QAEAAV012@ABV012@@Z 10003b70 f i Adjacencies.obj
 0001:00002b80       ??4PxFoundation@physx@@QAEAAV01@ABV01@@Z 10003b80 f i Adjacencies.obj
 0001:00002b90       ??_EAdjEdge@@QAEPAXI@Z     10003b90 f i Adjacencies.obj
 0001:00002c40       ??_EAdjTriangle@physx@@QAEPAXI@Z 10003c40 f i Adjacencies.obj
 0001:00002cf0       ??_EPxFoundation@physx@@MAEPAXI@Z 10003cf0 f i Adjacencies.obj
 0001:00002d70       ??_FAllocator@shdfnd@physx@@QAEXXZ 10003d70 f i Adjacencies.obj
 0001:00002d90       ??_FNamedAllocator@shdfnd@physx@@QAEXXZ 10003d90 f i Adjacencies.obj
 0001:00002db0       ??_GPxFoundation@physx@@MAEPAXI@Z 10003db0 f i Adjacencies.obj
 0001:00002de0       ??_H@YGXPAXIIP6EPAX0@Z@Z   10003de0 f i Adjacencies.obj
 0001:00002e30       ??_I@YGXPAXIIP6EX0@Z@Z     10003e30 f i Adjacencies.obj
 0001:00002e90       ??_VUserAllocated@shdfnd@physx@@SAXPAX@Z 10003e90 f i Adjacencies.obj
 0001:00002eb0       ?GetNbHits@RadixSort@Cm@physx@@QBEIXZ 10003eb0 f i Adjacencies.obj
 0001:00002ed0       ?GetNbTotalCalls@RadixSort@Cm@physx@@QBEIXZ 10003ed0 f i Adjacencies.obj
 0001:00002ef0       ?GetRanks@RadixSort@Cm@physx@@QBEPBIXZ 10003ef0 f i Adjacencies.obj
 0001:00002f10       ?GetRecyclable@RadixSort@Cm@physx@@QBEPAIXZ 10003f10 f i Adjacencies.obj
 0001:00002f30       ?HasActiveEdge01@AdjTriangle@physx@@QBEHXZ 10003f30 f i Adjacencies.obj
 0001:00002f50       ?HasActiveEdge01@EdgeTriangleAC@Gu@physx@@SAHABUEdgeTriangleData@23@@Z 10003f50 f i Adjacencies.obj
 0001:00002f70       ?HasActiveEdge12@AdjTriangle@physx@@QBEHXZ 10003f70 f i Adjacencies.obj
 0001:00002f90       ?HasActiveEdge12@EdgeTriangleAC@Gu@physx@@SAHABUEdgeTriangleData@23@@Z 10003f90 f i Adjacencies.obj
 0001:00002fb0       ?HasActiveEdge20@AdjTriangle@physx@@QBEHXZ 10003fb0 f i Adjacencies.obj
 0001:00002fd0       ?HasActiveEdge20@EdgeTriangleAC@Gu@physx@@SAHABUEdgeTriangleData@23@@Z 10003fd0 f i Adjacencies.obj
 0001:00002ff0       ?PxMemZero@physx@@YAPAXPAXI@Z 10003ff0 f i Adjacencies.obj
 0001:00003010       ?__empty_global_delete@@YAXPAX@Z 10004010 f i Adjacencies.obj
 0001:00003020       ?__empty_global_delete@@YAXPAXI@Z 10004020 f i Adjacencies.obj
 0001:00003030       ?allocate@?$ReflectionAllocator@I@shdfnd@physx@@QAEPAXIPBDH@Z 10004030 f i Adjacencies.obj
 0001:00003080       ?allocate@?$ReflectionAllocator@VAdjEdge@@@shdfnd@physx@@QAEPAXIPBDH@Z 10004080 f i Adjacencies.obj
 0001:000030d0       ?allocate@?$ReflectionAllocator@VAdjTriangle@physx@@@shdfnd@physx@@QAEPAXIPBDH@Z 100040d0 f i Adjacencies.obj
 0001:00003120       ?deallocate@NonTrackingAllocator@shdfnd@physx@@QAEXPAX@Z 10004120 f i Adjacencies.obj
 0001:00003150       ?findEdge@?$TriangleT@I@Gu@physx@@QBEEII@Z 10004150 f i Adjacencies.obj
 0001:00003270       ?getAllocator@Foundation@shdfnd@physx@@QAEAAVPxAllocatorCallback@3@XZ 10004270 f i Adjacencies.obj
 0001:00003290       ?getAllocatorCallback@Foundation@shdfnd@physx@@UAEAAVPxAllocatorCallback@3@XZ 10004290 f i Adjacencies.obj
 0001:000032b0       ?getEdgeTriangle@EdgeList@Gu@physx@@QBEABUEdgeTriangleData@23@I@Z 100042b0 f i Adjacencies.obj
 0001:000032d0       ?getErrorCallback@Foundation@shdfnd@physx@@UAEAAVPxErrorCallback@3@XZ 100042d0 f i Adjacencies.obj
 0001:000032f0       ?getErrorLevel@Foundation@shdfnd@physx@@UBE?AW4Enum@PxErrorCode@3@XZ 100042f0 f i Adjacencies.obj
 0001:00003310       ?getFoundation@shdfnd@physx@@YAAAVFoundation@12@XZ 10004310 f i Adjacencies.obj
 0001:00003320       ?getInternalErrorCallback@Foundation@shdfnd@physx@@QAEAAVPxErrorCallback@3@XZ 10004320 f i Adjacencies.obj
 0001:00003340       ?getName@?$ReflectionAllocator@I@shdfnd@physx@@CAPBDXZ 10004340 f i Adjacencies.obj
 0001:00003380       ?getName@?$ReflectionAllocator@VAdjEdge@@@shdfnd@physx@@CAPBDXZ 10004380 f i Adjacencies.obj
 0001:000033c0       ?getName@?$ReflectionAllocator@VAdjTriangle@physx@@@shdfnd@physx@@CAPBDXZ 100043c0 f i Adjacencies.obj
 0001:00003400       ?getNamedAllocMap@Foundation@shdfnd@physx@@QAEAAV?$HashMap@PBVNamedAllocator@shdfnd@physx@@PBDU?$Hash@PBVNamedAllocator@shdfnd@physx@@@23@VNonTrackingAllocator@23@@23@XZ 10004400 f i Adjacencies.obj
 0001:00003420       ?getNamedAllocMutex@Foundation@shdfnd@physx@@QAEAAV?$MutexT@VAllocator@shdfnd@physx@@@23@XZ 10004420 f i Adjacencies.obj
 0001:00003440       ?getReportAllocationNames@Foundation@shdfnd@physx@@UBE_NXZ 10004440 f i Adjacencies.obj
 0001:00003460       ?getTempAllocFreeTable@Foundation@shdfnd@physx@@QAEAAV?$Array@PATTempAllocatorChunk@shdfnd@physx@@VAllocator@23@@23@XZ 10004460 f i Adjacencies.obj
 0001:00003480       ?getTempAllocMutex@Foundation@shdfnd@physx@@QAEAAV?$MutexT@VAllocator@shdfnd@physx@@@23@XZ 10004480 f i Adjacencies.obj
 0001:000034a0       ?invalidateRanks@RadixSort@Cm@physx@@QAEXXZ 100044a0 f i Adjacencies.obj
 0001:000034c0       ?memZero@intrinsics@physx@@YAPAXPAXI@Z 100044c0 f i Adjacencies.obj
 0001:000034e0       ?name@type_info@@QBEPBDXZ  100044e0 f i Adjacencies.obj
 0001:00003500       ?setErrorLevel@Foundation@shdfnd@physx@@UAEXW4Enum@PxErrorCode@3@@Z 10004500 f i Adjacencies.obj
 0001:00003520       ?setReportAllocationNames@Foundation@shdfnd@physx@@UAEX_N@Z 10004520 f i Adjacencies.obj
 0001:00003540       _PxCreateCooking           10004540 f   Cooking.obj
 0001:000035f0       ?release@Cooking@physx@@UAEXXZ 100045f0 f   Cooking.obj
 0001:00003630       ?setParams@Cooking@physx@@UAEXABUPxCookingParams@2@@Z 10004630 f   Cooking.obj
 0001:00003650       ?getParams@Cooking@physx@@UBEABUPxCookingParams@2@XZ 10004650 f   Cooking.obj
 0001:00003670       ?platformMismatch@Cooking@physx@@UBE_NXZ 10004670 f   Cooking.obj
 0001:000036b0       ?cookTriangleMesh@Cooking@physx@@UBE_NABVPxTriangleMeshDesc@2@AAVPxOutputStream@2@PAW4Enum@PxTriangleMeshCookingResult@2@@Z 100046b0 f   Cooking.obj
 0001:00003770       ?createTriangleMesh@Cooking@physx@@UBEPAVPxTriangleMesh@2@ABVPxTriangleMeshDesc@2@AAVPxPhysicsInsertionCallback@2@PAW4Enum@PxTriangleMeshCookingResult@2@@Z 10004770 f   Cooking.obj
 0001:00003830       ?validateTriangleMesh@Cooking@physx@@UBE_NABVPxTriangleMeshDesc@2@@Z 10004830 f   Cooking.obj
 0001:000038d0       ?cookConvexMesh@Cooking@physx@@UBE_NABVPxConvexMeshDesc@2@AAVPxOutputStream@2@PAW4Enum@PxConvexMeshCookingResult@2@@Z 100048d0 f   Cooking.obj
 0001:00003b00       ?createConvexMesh@Cooking@physx@@UBEPAVPxConvexMesh@2@ABVPxConvexMeshDesc@2@AAVPxPhysicsInsertionCallback@2@PAW4Enum@PxConvexMeshCookingResult@2@@Z 10004b00 f   Cooking.obj
 0001:00003d60       ?validateConvexMesh@Cooking@physx@@UBE_NABVPxConvexMeshDesc@2@@Z 10004d60 f   Cooking.obj
 0001:00003db0       ?computeHullPolygons@Cooking@physx@@UBE_NABVPxSimpleTriangleMesh@2@AAVPxAllocatorCallback@2@AAIAAPAVPxVec3@2@2AAPAI2AAPAUPxHullPolygon@2@@Z 10004db0 f   Cooking.obj
 0001:00003f70       ?cookHeightField@Cooking@physx@@UBE_NABVPxHeightFieldDesc@2@AAVPxOutputStream@2@@Z 10004f70 f   Cooking.obj
 0001:00004090       ?createHeightField@Cooking@physx@@UBEPAVPxHeightField@2@ABVPxHeightFieldDesc@2@AAVPxPhysicsInsertionCallback@2@@Z 10005090 f   Cooking.obj
 0001:00004270       ?cookBVHStructure@Cooking@physx@@UBE_NABVPxBVHStructureDesc@2@AAVPxOutputStream@2@@Z 10005270 f   Cooking.obj
 0001:00004330       ?createBVHStructure@Cooking@physx@@UBEPAVPxBVHStructure@2@ABVPxBVHStructureDesc@2@AAVPxPhysicsInsertionCallback@2@@Z 10005330 f   Cooking.obj
 0001:00004400       ?cookConvexMeshInternal@Cooking@physx@@ABE_NABVPxConvexMeshDesc@2@AAVConvexMeshBuilder@2@PAVConvexHullLib@2@PAW4Enum@PxConvexMeshCookingResult@2@@Z 10005400 f   Cooking.obj
 0001:00004630       ?cookTriangleMesh@Cooking@physx@@ABE_NAAVTriangleMeshBuilder@2@ABVPxTriangleMeshDesc@2@AAVPxOutputStream@2@PAW4Enum@PxTriangleMeshCookingResult@2@@Z 10005630 f   Cooking.obj
 0001:000046c0       ?createTriangleMesh@Cooking@physx@@ABEPAVPxTriangleMesh@2@AAVTriangleMeshBuilder@2@ABVPxTriangleMeshDesc@2@AAVPxPhysicsInsertionCallback@2@PAW4Enum@PxTriangleMeshCookingResult@2@@Z 100056c0 f   Cooking.obj
 0001:00004820       ??$?2V?$ReflectionAllocator@VCooking@physx@@@shdfnd@physx@@@UserAllocated@shdfnd@physx@@SAPAXIV?$ReflectionAllocator@VCooking@physx@@@12@PBDH@Z 10005820 f i Cooking.obj
 0001:00004840       ??$?2V?$ReflectionAllocator@VQuickHullConvexHullLib@physx@@@shdfnd@physx@@@UserAllocated@shdfnd@physx@@SAPAXIV?$ReflectionAllocator@VQuickHullConvexHullLib@physx@@@12@PBDH@Z 10005840 f i Cooking.obj
 0001:00004860       ??$PX_UNUSED@VPxFoundation@physx@@@@YAXABVPxFoundation@physx@@@Z 10005860 f i Cooking.obj
 0001:00004870       ??$PX_UNUSED@W4PxIDENTITY@physx@@@@YAXABW4PxIDENTITY@physx@@@Z 10005870 f i Cooking.obj
 0001:00004880       ??$PxMax@I@physx@@YAIII@Z  10005880 f i Cooking.obj
 0001:000048b0       ??$PxMin@G@physx@@YAGGG@Z  100058b0 f i Cooking.obj
 0001:000048e0       ??0?$PxBitAndDataT@G$0IAAA@@physx@@QAE@XZ 100058e0 f i Cooking.obj
 0001:00004900       ??0?$PxFlags@W4Enum@PxBaseFlag@physx@@G@physx@@QAE@ABV01@@Z 10005900 f i Cooking.obj
 0001:00004920       ??0?$PxFlags@W4Enum@PxConvexFlag@physx@@G@physx@@QAE@ABV01@@Z 10005920 f i Cooking.obj
 0001:00004940       ??0?$PxFlags@W4Enum@PxConvexFlag@physx@@G@physx@@QAE@W4Enum@PxConvexFlag@1@@Z 10005940 f i Cooking.obj
 0001:00004960       ??0?$PxFlags@W4Enum@PxConvexFlag@physx@@G@physx@@QAE@XZ 10005960 f i Cooking.obj
 0001:00004980       ??0?$PxFlags@W4Enum@PxHeightFieldFlag@physx@@G@physx@@QAE@ABV01@@Z 10005980 f i Cooking.obj
 0001:000049a0       ??0?$PxFlags@W4Enum@PxHeightFieldFlag@physx@@G@physx@@QAE@W4PxEMPTY@1@@Z 100059a0 f i Cooking.obj
 0001:000049b0       ??0?$PxFlags@W4Enum@PxHeightFieldFlag@physx@@G@physx@@QAE@XZ 100059b0 f i Cooking.obj
 0001:000049d0       ??0?$PxFlags@W4Enum@PxMeshFlag@physx@@G@physx@@QAE@ABV01@@Z 100059d0 f i Cooking.obj
 0001:000049f0       ??0?$PxFlags@W4Enum@PxMeshPreprocessingFlag@physx@@I@physx@@QAE@ABV01@@Z 100059f0 f i Cooking.obj
 0001:00004a10       ??0?$ReflectionAllocator@VCooking@physx@@@shdfnd@physx@@QAE@PBD@Z 10005a10 f i Cooking.obj
 0001:00004a20       ??0?$ReflectionAllocator@VHeightField@Gu@physx@@@shdfnd@physx@@QAE@PBD@Z 10005a20 f i Cooking.obj
 0001:00004a30       ??0?$ReflectionAllocator@VQuickHullConvexHullLib@physx@@@shdfnd@physx@@QAE@PBD@Z 10005a30 f i Cooking.obj
 0001:00004a40       ??0CenterExtents@Gu@physx@@QAE@ABV012@@Z 10005a40 f i Cooking.obj
 0001:00004a70       ??0CenterExtents@Gu@physx@@QAE@XZ 10005a70 f i Cooking.obj
 0001:00004aa0       ??0ConvexHullData@Gu@physx@@QAE@XZ 10005aa0 f i Cooking.obj
 0001:00004ad0       ??0ConvexHullInitData@Gu@physx@@QAE@XZ 10005ad0 f i Cooking.obj
 0001:00004b00       ??0Cooking@physx@@QAE@ABUPxCookingParams@1@@Z 10005b00 f i Cooking.obj
 0001:00004b30       ??0DebugText@Cm@physx@@QAE@$$QAU012@@Z 10005b30 f i Cooking.obj
 0001:00004b80       ??0DebugText@Cm@physx@@QAE@ABU012@@Z 10005b80 f i Cooking.obj
 0001:00004bd0       ??0HeightFieldData@Gu@physx@@QAE@$$QAU012@@Z 10005bd0 f i Cooking.obj
 0001:00004c60       ??0HeightFieldData@Gu@physx@@QAE@ABU012@@Z 10005c60 f i Cooking.obj
 0001:00004cf0       ??0HeightFieldData@Gu@physx@@QAE@W4PxEMPTY@2@@Z 10005cf0 f i Cooking.obj
 0001:00004d20       ??0HeightFieldData@Gu@physx@@QAE@XZ 10005d20 f i Cooking.obj
 0001:00004d50       ??0PxConvexMeshDesc@physx@@QAE@ABV01@@Z 10005d50 f i Cooking.obj
 0001:00004de0       ??0PxCooking@physx@@QAE@XZ 10005de0 f i Cooking.obj
 0001:00004e00       ??0PxCookingParams@physx@@QAE@ABU01@@Z 10005e00 f i Cooking.obj
 0001:00004eb0       ??0PxDebugLine@physx@@QAE@ABU01@@Z 10005eb0 f i Cooking.obj
 0001:00004f00       ??0PxMat33@physx@@QAE@XZ   10005f00 f i Cooking.obj
 0001:00004f30       ??0PxMat44@physx@@QAE@ABV01@@Z 10005f30 f i Cooking.obj
 0001:00004f90       ??0PxMat44@physx@@QAE@W4PxIDENTITY@1@@Z 10005f90 f i Cooking.obj
 0001:00005080       ??0PxVec3@physx@@QAE@ABV01@@Z 10006080 f i Cooking.obj
 0001:000050c0       ??0PxVec3@physx@@QAE@M@Z   100060c0 f i Cooking.obj
 0001:00005100       ??0PxVec3@physx@@QAE@MMM@Z 10006100 f i Cooking.obj
 0001:00005140       ??0PxVec3@physx@@QAE@XZ    10006140 f i Cooking.obj
 0001:00005150       ??0PxVec4@physx@@QAE@ABV01@@Z 10006150 f i Cooking.obj
 0001:00005190       ??0PxVec4@physx@@QAE@MMMM@Z 10006190 f i Cooking.obj
 0001:000051e0       ??0RenderOutput@Cm@physx@@QAE@AAVRenderBuffer@12@@Z 100061e0 f i Cooking.obj
 0001:00005250       ??0RenderOutput@Cm@physx@@QAE@ABV012@@Z 10006250 f i Cooking.obj
 0001:000052d0       ??1CenterExtents@Gu@physx@@QAE@XZ 100062d0 f i Cooking.obj
 0001:000052e0       ??1ConvexHullData@Gu@physx@@QAE@XZ 100062e0 f i Cooking.obj
 0001:00005300       ??1ConvexHullInitData@Gu@physx@@QAE@XZ 10006300 f i Cooking.obj
 0001:00005320       ??1Cooking@physx@@UAE@XZ   10006320 f i Cooking.obj
 0001:00005340       ??1HeightFieldData@Gu@physx@@QAE@XZ 10006340 f i Cooking.obj
 0001:00005360       ??1PxBase@physx@@MAE@XZ    10006360 f i Cooking.obj
 0001:00005380       ??1PxConvexMesh@physx@@MAE@XZ 10006380 f i Cooking.obj
 0001:000053a0       ??1PxCooking@physx@@MAE@XZ 100063a0 f i Cooking.obj
 0001:000053c0       ??1PxHeightField@physx@@MAE@XZ 100063c0 f i Cooking.obj
 0001:000053e0       ??2@YAPAXIPAX@Z            100063e0 f i Cooking.obj
 0001:000053f0       ??2UserAllocated@shdfnd@physx@@SAPAXIPAX@Z 100063f0 f i Cooking.obj
 0001:00005400       ??4?$PxFlags@W4Enum@PxHeightFieldFlag@physx@@G@physx@@QAEAAV01@ABV01@@Z 10006400 f i Cooking.obj
 0001:00005420       ??4?$PxFlags@W4Enum@PxMeshPreprocessingFlag@physx@@I@physx@@QAEAAV01@ABV01@@Z 10006420 f i Cooking.obj
 0001:00005440       ??4CenterExtents@Gu@physx@@QAEAAV012@ABV012@@Z 10006440 f i Cooking.obj
 0001:00005470       ??4DebugText@Cm@physx@@QAEAAU012@$$QAU012@@Z 10006470 f i Cooking.obj
 0001:000054f0       ??4DebugText@Cm@physx@@QAEAAU012@ABU012@@Z 100064f0 f i Cooking.obj
 0001:00005570       ??4FPUGuard@shdfnd@physx@@QAEAAV012@ABV012@@Z 10006570 f i Cooking.obj
 0001:000055a0       ??4HeightFieldData@Gu@physx@@QAEAAU012@$$QAU012@@Z 100065a0 f i Cooking.obj
 0001:00005630       ??4HeightFieldData@Gu@physx@@QAEAAU012@ABU012@@Z 10006630 f i Cooking.obj
 0001:000056c0       ??4PxCookingParams@physx@@QAEAAU01@ABU01@@Z 100066c0 f i Cooking.obj
 0001:00005770       ??4PxVec3@physx@@QAEAAV01@ABV01@@Z 10006770 f i Cooking.obj
 0001:000057b0       ??9?$PxFlags@W4Enum@PxHeightFieldFlag@physx@@G@physx@@QBE_NABV01@@Z 100067b0 f i Cooking.obj
 0001:000057f0       ??B?$PxBitAndDataT@E$0IA@@physx@@QBEEXZ 100067f0 f i Cooking.obj
 0001:00005810       ??B?$PxBitAndDataT@G$0IAAA@@physx@@QBEGXZ 10006810 f i Cooking.obj
 0001:00005830       ??B?$PxFlags@W4Enum@PxBaseFlag@physx@@G@physx@@QBE_NXZ 10006830 f i Cooking.obj
 0001:00005860       ??B?$PxFlags@W4Enum@PxConvexFlag@physx@@G@physx@@QBE_NXZ 10006860 f i Cooking.obj
 0001:00005890       ??B?$PxFlags@W4Enum@PxMeshFlag@physx@@G@physx@@QBE_NXZ 10006890 f i Cooking.obj
 0001:000058c0       ??B?$PxFlags@W4Enum@PxMeshPreprocessingFlag@physx@@I@physx@@QBE_NXZ 100068c0 f i Cooking.obj
 0001:000058f0       ??I?$PxFlags@W4Enum@PxBaseFlag@physx@@G@physx@@QBE?AV01@W4Enum@PxBaseFlag@1@@Z 100068f0 f i Cooking.obj
 0001:00005930       ??I?$PxFlags@W4Enum@PxConvexFlag@physx@@G@physx@@QBE?AV01@W4Enum@PxConvexFlag@1@@Z 10006930 f i Cooking.obj
 0001:00005970       ??I?$PxFlags@W4Enum@PxHeightFieldFlag@physx@@G@physx@@QBE?AV01@W4Enum@PxHeightFieldFlag@1@@Z 10006970 f i Cooking.obj
 0001:000059b0       ??I?$PxFlags@W4Enum@PxMeshFlag@physx@@G@physx@@QBE?AV01@W4Enum@PxMeshFlag@1@@Z 100069b0 f i Cooking.obj
 0001:000059f0       ??I?$PxFlags@W4Enum@PxMeshPreprocessingFlag@physx@@I@physx@@QBE?AV01@W4Enum@PxMeshPreprocessingFlag@1@@Z 100069f0 f i Cooking.obj
 0001:00005a30       ??S?$PxFlags@W4Enum@PxConvexFlag@physx@@G@physx@@QBE?AV01@XZ 10006a30 f i Cooking.obj
 0001:00005a70       ??Sphysx@@YA?AV?$PxFlags@W4Enum@PxConvexFlag@physx@@G@0@W4Enum@PxConvexFlag@0@@Z 10006a70 f i Cooking.obj
 0001:00005aa0       ??_4?$PxFlags@W4Enum@PxConvexFlag@physx@@G@physx@@QAEAAV01@ABV01@@Z 10006aa0 f i Cooking.obj
 0001:00005ad0       ??_EPxConvexMesh@physx@@MAEPAXI@Z 10006ad0 f i Cooking.obj
 0001:00005b50       ??_EPxHeightField@physx@@MAEPAXI@Z 10006b50 f i Cooking.obj
 0001:00005bd0       ??_GCooking@physx@@UAEPAXI@Z 10006bd0 f i Cooking.obj
 0001:00005bd0       ??_ECooking@physx@@UAEPAXI@Z 10006bd0 f i Cooking.obj
 0001:00005c20       ??_GPxBase@physx@@MAEPAXI@Z 10006c20 f i Cooking.obj
 0001:00005c20       ??_EPxBase@physx@@MAEPAXI@Z 10006c20 f i Cooking.obj
 0001:00005c50       ??_GPxCooking@physx@@MAEPAXI@Z 10006c50 f i Cooking.obj
 0001:00005c50       ??_EPxCooking@physx@@MAEPAXI@Z 10006c50 f i Cooking.obj
 0001:00005c80       ?FLoad@aos@shdfnd@physx@@YA?AT__m128@@M@Z 10006c80 f i Cooking.obj
 0001:00005cc0       ?PxMemCopy@physx@@YAPAXPAXPBXI@Z 10006cc0 f i Cooking.obj
 0001:00005ce0       ?V3Load@aos@shdfnd@physx@@YA?AT__m128@@M@Z 10006ce0 f i Cooking.obj
 0001:00005d30       ?V4Load@aos@shdfnd@physx@@YA?AT__m128@@M@Z 10006d30 f i Cooking.obj
 0001:00005d70       ?allocate@?$Array@UPxDebugLine@physx@@VNamedAllocator@shdfnd@2@@shdfnd@physx@@IAEPAUPxDebugLine@3@I@Z 10006d70 f i Cooking.obj
 0001:00005de0       ?allocate@?$ReflectionAllocator@VCooking@physx@@@shdfnd@physx@@QAEPAXIPBDH@Z 10006de0 f i Cooking.obj
 0001:00005e30       ?allocate@?$ReflectionAllocator@VHeightField@Gu@physx@@@shdfnd@physx@@QAEPAXIPBDH@Z 10006e30 f i Cooking.obj
 0001:00005e80       ?allocate@?$ReflectionAllocator@VQuickHullConvexHullLib@physx@@@shdfnd@physx@@QAEPAXIPBDH@Z 10006e80 f i Cooking.obj
 0001:00005ed0       ?capacity@?$Array@UPxDebugLine@physx@@VNamedAllocator@shdfnd@2@@shdfnd@physx@@QBEIXZ 10006ed0 f i Cooking.obj
 0001:00005ef0       ?copy@?$Array@UPxDebugLine@physx@@VNamedAllocator@shdfnd@2@@shdfnd@physx@@KAXPAUPxDebugLine@3@0PBU43@@Z 10006ef0 f i Cooking.obj
 0001:00005f40       ?deallocate@?$Array@UPxDebugLine@physx@@VNamedAllocator@shdfnd@2@@shdfnd@physx@@IAEXPAX@Z 10006f40 f i Cooking.obj
 0001:00005f60       ?destroy@?$Array@UPxDebugLine@physx@@VNamedAllocator@shdfnd@2@@shdfnd@physx@@KAXPAUPxDebugLine@3@0@Z 10006f60 f i Cooking.obj
 0001:00005f80       ?end@?$Array@UPxDebugLine@physx@@VNamedAllocator@shdfnd@2@@shdfnd@physx@@QAEPAUPxDebugLine@3@XZ 10006f80 f i Cooking.obj
 0001:00005fa0       ?forceSize_Unsafe@?$Array@UPxDebugLine@physx@@VNamedAllocator@shdfnd@2@@shdfnd@physx@@QAEXI@Z 10006fa0 f i Cooking.obj
 0001:00006000       ?fsel@intrinsics@physx@@YAMMMM@Z 10007000 f i Cooking.obj
 0001:00006030       ?gatherStrided@Cooking@physx@@SAXPBXPAXIII@Z 10007030 f i Cooking.obj
 0001:00006090       ?getConcreteTypeName@PxConvexMesh@physx@@UBEPBDXZ 10007090 f i Cooking.obj
 0001:000060a0       ?getConcreteTypeName@PxHeightField@physx@@UBEPBDXZ 100070a0 f i Cooking.obj
 0001:000060b0       ?getConvexEdgeThreshold@HeightField@Gu@physx@@UBEMXZ 100070b0 f i Cooking.obj
 0001:000060d0       ?getFlags@HeightField@Gu@physx@@UBE?AV?$PxFlags@W4Enum@PxHeightFieldFlag@physx@@G@3@XZ 100070d0 f i Cooking.obj
 0001:000060f0       ?getFormat@HeightField@Gu@physx@@UBE?AW4Enum@PxHeightFieldFormat@3@XZ 100070f0 f i Cooking.obj
 0001:00006110       ?getHeight@HeightField@Gu@physx@@QBEMI@Z 10007110 f i Cooking.obj
 0001:00006140       ?getHeight@HeightField@Gu@physx@@UBEMMM@Z 10007140 f i Cooking.obj
 0001:00006170       ?getHeightInternal2@HeightField@Gu@physx@@QBEMIMM@Z 10007170 f i Cooking.obj
 0001:00006340       ?getHeightInternal@HeightField@Gu@physx@@QBEMMM@Z 10007340 f i Cooking.obj
 0001:000063a0       ?getHullVertices@ConvexHullData@Gu@physx@@QBEPBVPxVec3@3@XZ 100073a0 f i Cooking.obj
 0001:000063d0       ?getIndexBuffer@ConvexMesh@Gu@physx@@UBEPBEXZ 100073d0 f i Cooking.obj
 0001:000063f0       ?getMaterialIndex0@HeightField@Gu@physx@@QBEGI@Z 100073f0 f i Cooking.obj
 0001:00006420       ?getMaterialIndex1@HeightField@Gu@physx@@QBEGI@Z 10007420 f i Cooking.obj
 0001:00006450       ?getMeshData@TriangleMeshBuilder@physx@@QAEAAVTriangleMeshData@Gu@2@XZ 10007450 f i Cooking.obj
 0001:00006470       ?getName@?$ReflectionAllocator@VCooking@physx@@@shdfnd@physx@@CAPBDXZ 10007470 f i Cooking.obj
 0001:000064b0       ?getName@?$ReflectionAllocator@VHeightField@Gu@physx@@@shdfnd@physx@@CAPBDXZ 100074b0 f i Cooking.obj
 0001:000064f0       ?getName@?$ReflectionAllocator@VQuickHullConvexHullLib@physx@@@shdfnd@physx@@CAPBDXZ 100074f0 f i Cooking.obj
 0001:00006530       ?getNbColumns@HeightField@Gu@physx@@UBEIXZ 10007530 f i Cooking.obj
 0001:00006550       ?getNbColumnsFast@HeightField@Gu@physx@@QBEIXZ 10007550 f i Cooking.obj
 0001:00006570       ?getNbPolygons@ConvexMesh@Gu@physx@@UBEIXZ 10007570 f i Cooking.obj
 0001:00006590       ?getNbRows@HeightField@Gu@physx@@UBEIXZ 10007590 f i Cooking.obj
 0001:000065b0       ?getNbVertices@ConvexMesh@Gu@physx@@UBEIXZ 100075b0 f i Cooking.obj
 0001:000065d0       ?getPaddedBounds@HeightFieldData@Gu@physx@@QBEABVCenterExtentsPadded@23@XZ 100075d0 f i Cooking.obj
 0001:000065e0       ?getSample@HeightField@Gu@physx@@QBEABUPxHeightFieldSample@3@I@Z 100075e0 f i Cooking.obj
 0001:00006650       ?getSample@HeightField@Gu@physx@@UBEABUPxHeightFieldSample@3@II@Z 10007650 f i Cooking.obj
 0001:00006680       ?getSampleStride@HeightField@Gu@physx@@UBEIXZ 10007680 f i Cooking.obj
 0001:00006690       ?getTimestamp@HeightField@Gu@physx@@UBEIXZ 10007690 f i Cooking.obj
 0001:000066b0       ?getTriangleMaterial@HeightField@Gu@physx@@QBEGI@Z 100076b0 f i Cooking.obj
 0001:00006700       ?getTriangleMaterialIndex@HeightField@Gu@physx@@UBEGI@Z 10007700 f i Cooking.obj
 0001:00006720       ?getTriangleNormal@HeightField@Gu@physx@@UBE?AVPxVec3@3@I@Z 10007720 f i Cooking.obj
 0001:00006740       ?getTriangleNormalInternal@HeightField@Gu@physx@@QBE?AVPxVec3@3@I@Z 10007740 f i Cooking.obj
 0001:00006930       ?getTriangleVertexIndices@HeightField@Gu@physx@@QBEXIAAI00@Z 10007930 f i Cooking.obj
 0001:00006a20       ?getType@PxMidphaseDesc@physx@@QBE?AW4Enum@PxMeshMidPhase@2@XZ 10007a20 f i Cooking.obj
 0001:00006a40       ?getVertexData8@ConvexHullData@Gu@physx@@QBEPBEXZ 10007a40 f i Cooking.obj
 0001:00006ad0       ?getVertices@ConvexMesh@Gu@physx@@UBEPBVPxVec3@3@XZ 10007ad0 f i Cooking.obj
 0001:00006af0       ?grow@?$Array@UPxDebugLine@physx@@VNamedAllocator@shdfnd@2@@shdfnd@physx@@IAEXI@Z 10007af0 f i Cooking.obj
 0001:00006b50       ?isBitSet@?$PxBitAndDataT@E$0IA@@physx@@QBEEXZ 10007b50 f i Cooking.obj
 0001:00006b70       ?isBitSet@?$PxBitAndDataT@G$0IAAA@@physx@@QBEGXZ 10007b70 f i Cooking.obj
 0001:00006b90       ?isFirstTriangle@HeightField@Gu@physx@@QBE_NI@Z 10007b90 f i Cooking.obj
 0001:00006bc0       ?isInUserMemory@?$Array@UPxDebugLine@physx@@VNamedAllocator@shdfnd@2@@shdfnd@physx@@QBEIXZ 10007bc0 f i Cooking.obj
 0001:00006be0       ?isKindOf@PxBase@physx@@MBE_NPBD@Z 10007be0 f i Cooking.obj
 0001:00006c20       ?isKindOf@PxConvexMesh@physx@@MBE_NPBD@Z 10007c20 f i Cooking.obj
 0001:00006c70       ?isKindOf@PxHeightField@physx@@MBE_NPBD@Z 10007c70 f i Cooking.obj
 0001:00006cc0       ?isReleasable@PxBase@physx@@UBE_NXZ 10007cc0 f i Cooking.obj
 0001:00006cf0       ?isValid@PxBVHStructureDesc@physx@@QBE_NXZ 10007cf0 f i Cooking.obj
 0001:00006d30       ?isValid@PxConvexMeshDesc@physx@@QBE_NXZ 10007d30 f i Cooking.obj
 0001:00006ed0       ?isValid@PxHeightFieldDesc@physx@@QBE_NXZ 10007ed0 f i Cooking.obj
 0001:00006f50       ?isValid@PxSimpleTriangleMesh@physx@@QBE_NXZ 10007f50 f i Cooking.obj
 0001:00007000       ?isValid@PxTriangleMeshDesc@physx@@QBE_NXZ 10008000 f i Cooking.obj
 0001:00007060       ?isValidVertex@HeightField@Gu@physx@@QBE_NI@Z 10008060 f i Cooking.obj
 0001:000070a0       ?isZerothVertexShared@HeightField@Gu@physx@@QBE_NI@Z 100080a0 f i Cooking.obj
 0001:000070e0       ?littleEndian@shdfnd@physx@@YADXZ 100080e0 f i Cooking.obj
 0001:00007100       ?markSerializedMem@Cm@physx@@YAXPAXI@Z 10008100 f i Cooking.obj
 0001:00007130       ?memCopy@intrinsics@physx@@YAPAXPAXPBXI@Z 10008130 f i Cooking.obj
 0001:00007150       ?outputSegment@RenderOutput@Cm@physx@@QAEXABVPxVec3@3@0@Z 10008150 f i Cooking.obj
 0001:000071a0       ?preExportDataReset@ConvexMesh@Gu@physx@@QAEXXZ 100081a0 f i Cooking.obj
 0001:000071c0       ?preExportDataReset@HeightField@Gu@physx@@QAEXXZ 100081c0 f i Cooking.obj
 0001:000071e0       ?preExportDataReset@RefCountable@Cm@physx@@QAEXXZ 100081e0 f i Cooking.obj
 0001:00007200       ?recreate@?$Array@UPxDebugLine@physx@@VNamedAllocator@shdfnd@2@@shdfnd@physx@@IAEXI@Z 10008200 f i Cooking.obj
 0001:000072d0       ?reserve@?$Array@UPxDebugLine@physx@@VNamedAllocator@shdfnd@2@@shdfnd@physx@@QAEXI@Z 100082d0 f i Cooking.obj
 0001:00007300       ?reserveSegments@RenderOutput@Cm@physx@@QAEPAUPxDebugLine@3@I@Z 10008300 f i Cooking.obj
 0001:00007330       ?size@?$Array@UPxDebugLine@physx@@VNamedAllocator@shdfnd@2@@shdfnd@physx@@QBEIXZ 10008330 f i Cooking.obj
 0001:00007350       ?tessFlag@PxHeightFieldSample@physx@@QBEEXZ 10008350 f i Cooking.obj
 0001:00007390       ??0ReducedVertexCloud@physx@@QAE@PBVPxVec3@1@I@Z 10008390 f   CookingUtils.obj
 0001:000073d0       ??1ReducedVertexCloud@physx@@QAE@XZ 100083d0 f   CookingUtils.obj
 0001:000073f0       ?Clean@ReducedVertexCloud@physx@@QAEAAV12@XZ 100083f0 f   CookingUtils.obj
 0001:00007450       ?Reduce@ReducedVertexCloud@physx@@QAE_NPAUREDUCEDCLOUD@2@@Z 10008450 f   CookingUtils.obj
 0001:00007770       ??$?_UM@@YAPAXIV?$ReflectionAllocator@M@shdfnd@physx@@PBDH@Z 10008770 f i CookingUtils.obj
 0001:00007790       ??0?$ReflectionAllocator@M@shdfnd@physx@@QAE@PBD@Z 10008790 f i CookingUtils.obj
 0001:000077a0       ?allocate@?$ReflectionAllocator@M@shdfnd@physx@@QAEPAXIPBDH@Z 100087a0 f i CookingUtils.obj
 0001:000077f0       ?getName@?$ReflectionAllocator@M@shdfnd@physx@@CAPBDXZ 100087f0 f i CookingUtils.obj
 0001:00007830       ??0EdgeList@Gu@physx@@QAE@XZ 10008830 f   EdgeList.obj
 0001:00007870       ??1EdgeList@Gu@physx@@QAE@XZ 10008870 f   EdgeList.obj
 0001:00007910       ?load@EdgeList@Gu@physx@@QAE_NAAVPxInputStream@3@@Z 10008910 f   EdgeList.obj
 0001:00007ad0       ??0EdgeListBuilder@Gu@physx@@QAE@XZ 10008ad0 f   EdgeList.obj
 0001:00007af0       ??1EdgeListBuilder@Gu@physx@@QAE@XZ 10008af0 f   EdgeList.obj
 0001:00007b10       ?init@EdgeListBuilder@Gu@physx@@QAE_NABUEDGELISTCREATE@23@@Z 10008b10 f   EdgeList.obj
 0001:00007c90       ?createFacesToEdges@EdgeListBuilder@Gu@physx@@AAE_NIPBIPBG@Z 10008c90 f   EdgeList.obj
 0001:00008170       ?createEdgesToFaces@EdgeListBuilder@Gu@physx@@AAE_NIPBIPBG@Z 10009170 f   EdgeList.obj
 0001:00008570       ?computeActiveEdges@EdgeListBuilder@Gu@physx@@AAE_NIPBIPBGPBVPxVec3@3@M@Z 10009570 f   EdgeList.obj
 0001:00009800       ??$?_UUEdgeData@Gu@physx@@@@YAPAXIV?$ReflectionAllocator@UEdgeData@Gu@physx@@@shdfnd@physx@@PBDH@Z 1000a800 f i EdgeList.obj
 0001:00009820       ??$?_UUEdgeTriangleData@Gu@physx@@@@YAPAXIV?$ReflectionAllocator@UEdgeTriangleData@Gu@physx@@@shdfnd@physx@@PBDH@Z 1000a820 f i EdgeList.obj
 0001:00009840       ??0?$ReflectionAllocator@UEdgeData@Gu@physx@@@shdfnd@physx@@QAE@PBD@Z 1000a840 f i EdgeList.obj
 0001:00009850       ??0?$ReflectionAllocator@UEdgeTriangleData@Gu@physx@@@shdfnd@physx@@QAE@PBD@Z 1000a850 f i EdgeList.obj
 0001:00009860       ??0PxPlane@physx@@QAE@ABVPxVec3@1@00@Z 1000a860 f i EdgeList.obj
 0001:000098e0       ??0PxTriangle@physx@@QAE@ABVPxVec3@1@00@Z 1000a8e0 f i EdgeList.obj
 0001:00009940       ??1PxTriangle@physx@@QAE@XZ 1000a940 f i EdgeList.obj
 0001:00009950       ??DPxVec3@physx@@QBE?AV01@M@Z 1000a950 f i EdgeList.obj
 0001:000099a0       ??GPxVec3@physx@@QBE?AV01@ABV01@@Z 1000a9a0 f i EdgeList.obj
 0001:00009a00       ??_0PxVec3@physx@@QAEAAV01@M@Z 1000aa00 f i EdgeList.obj
 0001:00009a60       ?PxAtan2@physx@@YAMMM@Z    1000aa60 f i EdgeList.obj
 0001:00009a90       ?PxRecipSqrt@physx@@YAMM@Z 1000aa90 f i EdgeList.obj
 0001:00009ab0       ?PxSqrt@physx@@YAMM@Z      1000aab0 f i EdgeList.obj
 0001:00009ad0       ?allocate@?$ReflectionAllocator@UEdgeData@Gu@physx@@@shdfnd@physx@@QAEPAXIPBDH@Z 1000aad0 f i EdgeList.obj
 0001:00009b20       ?allocate@?$ReflectionAllocator@UEdgeTriangleData@Gu@physx@@@shdfnd@physx@@QAEPAXIPBDH@Z 1000ab20 f i EdgeList.obj
 0001:00009b70       ?angle@shdfnd@physx@@YAMABVPxVec3@2@0@Z 1000ab70 f i EdgeList.obj
 0001:00009bd0       ?cross@PxVec3@physx@@QBE?AV12@ABV12@@Z 1000abd0 f i EdgeList.obj
 0001:00009c70       ?distance@PxPlane@physx@@QBEMABVPxVec3@2@@Z 1000ac70 f i EdgeList.obj
 0001:00009cb0       ?dot@PxVec3@physx@@QBEMABV12@@Z 1000acb0 f i EdgeList.obj
 0001:00009d00       ?getEdgeToTriangles@EdgeList@Gu@physx@@QBEPBUEdgeDescData@23@XZ 1000ad00 f i EdgeList.obj
 0001:00009d20       ?getEdges@EdgeList@Gu@physx@@QBEPBUEdgeData@23@XZ 1000ad20 f i EdgeList.obj
 0001:00009d40       ?getFacesByEdges@EdgeList@Gu@physx@@QBEPBIXZ 1000ad40 f i EdgeList.obj
 0001:00009d60       ?getName@?$ReflectionAllocator@UEdgeData@Gu@physx@@@shdfnd@physx@@CAPBDXZ 1000ad60 f i EdgeList.obj
 0001:00009da0       ?getName@?$ReflectionAllocator@UEdgeTriangleData@Gu@physx@@@shdfnd@physx@@CAPBDXZ 1000ada0 f i EdgeList.obj
 0001:00009de0       ?getNbEdges@EdgeList@Gu@physx@@QBEIXZ 1000ade0 f i EdgeList.obj
 0001:00009df0       ?getNormalized@PxVec3@physx@@QBE?AV12@XZ 1000adf0 f i EdgeList.obj
 0001:00009e80       ?magnitude@PxVec3@physx@@QBEMXZ 1000ae80 f i EdgeList.obj
 0001:00009ea0       ?magnitudeSquared@PxVec3@physx@@QBEMXZ 1000aea0 f i EdgeList.obj
 0001:00009ef0       ?normal@PxTriangle@physx@@QBEXAAVPxVec3@2@@Z 1000aef0 f i EdgeList.obj
 0001:00009f60       ?normalize@PxVec3@physx@@QAEMXZ 1000af60 f i EdgeList.obj
 0001:00009fa0       ?recipSqrt@intrinsics@physx@@YAMM@Z 1000afa0 f i EdgeList.obj
 0001:00009fe0       ?sqrt@intrinsics@physx@@YAMM@Z 1000afe0 f i EdgeList.obj
 0001:0000a000       _atan2f                    1000b000 f i EdgeList.obj
 0001:0000a030       _fabsf                     1000b030 f i EdgeList.obj
 0001:0000a060       _sqrtf                     1000b060 f i EdgeList.obj
 0001:0000a090       ??0MeshCleaner@physx@@QAE@IPBVPxVec3@1@IPBIM@Z 1000b090 f   MeshCleaner.obj
 0001:0000a8c0       ??1MeshCleaner@physx@@QAE@XZ 1000b8c0 f   MeshCleaner.obj
 0001:0000aaf0       ??9Indices@@QBE_NABU0@@Z   1000baf0 f i MeshCleaner.obj
 0001:0000ab70       ??9PxVec3@physx@@QBE_NABV01@@Z 1000bb70 f i MeshCleaner.obj
 0001:0000abd0       ?PxFloor@physx@@YAMM@Z     1000bbd0 f i MeshCleaner.obj
 0001:0000abf0       ?nextPowerOfTwo@shdfnd@physx@@YAII@Z 1000bbf0 f i MeshCleaner.obj
 0001:0000ac40       _floorf                    1000bc40 f i MeshCleaner.obj
 0001:0000ac70       ?createQuantizer@physx@@YAPAVQuantizer@1@XZ 1000bc70 f   Quantizer.obj
 0001:0000acd0       ?kmeans_cluster3d@@YAIPBVPxVec3@physx@@IIPAV12@PAIMM@Z 1000bcd0 f   Quantizer.obj
 0001:0000ad10       ??$?2V?$ReflectionAllocator@VQuantizerImpl@@@shdfnd@physx@@@UserAllocated@shdfnd@physx@@SAPAXIV?$ReflectionAllocator@VQuantizerImpl@@@12@PBDH@Z 1000bd10 f i Quantizer.obj
 0001:0000ad30       ??$PX_UNUSED@W4PxZERO@physx@@@@YAXABW4PxZERO@physx@@@Z 1000bd30 f i Quantizer.obj
 0001:0000ad40       ??$PxMax@M@physx@@YAMMM@Z  1000bd40 f i Quantizer.obj
 0001:0000ad70       ??$PxMin@M@physx@@YAMMM@Z  1000bd70 f i Quantizer.obj
 0001:0000ada0       ??$kmeans_cluster@VPxVec3@physx@@M@@YAIPBVPxVec3@physx@@IIPAV01@PAIMM@Z 1000bda0 f i Quantizer.obj
 0001:0000b260       ??0?$Array@VPxVec3@physx@@VNamedAllocator@shdfnd@2@@shdfnd@physx@@QAE@ABVNamedAllocator@12@@Z 1000c260 f i Quantizer.obj
 0001:0000b2a0       ??0?$ReflectionAllocator@VQuantizerImpl@@@shdfnd@physx@@QAE@PBD@Z 1000c2a0 f i Quantizer.obj
 0001:0000b2b0       ??0PxBounds3@physx@@QAE@XZ 1000c2b0 f i Quantizer.obj
 0001:0000b2e0       ??0PxVec3@physx@@QAE@W4PxZERO@1@@Z 1000c2e0 f i Quantizer.obj
 0001:0000b320       ??0Quantizer@physx@@QAE@XZ 1000c320 f i Quantizer.obj
 0001:0000b340       ??0QuantizerImpl@@QAE@XZ   1000c340 f i Quantizer.obj
 0001:0000b420       ??1?$Array@VPxVec3@physx@@VNamedAllocator@shdfnd@2@@shdfnd@physx@@QAE@XZ 1000c420 f i Quantizer.obj
 0001:0000b480       ??1Quantizer@physx@@MAE@XZ 1000c480 f i Quantizer.obj
 0001:0000b4a0       ??1QuantizerImpl@@EAE@XZ   1000c4a0 f i Quantizer.obj
 0001:0000b4e0       ??A?$Array@VPxVec3@physx@@VNamedAllocator@shdfnd@2@@shdfnd@physx@@QAEAAVPxVec3@2@I@Z 1000c4e0 f i Quantizer.obj
 0001:0000b540       ??APxVec3@physx@@QAEAAMI@Z 1000c540 f i Quantizer.obj
 0001:0000b570       ??HPxVec3@physx@@QBE?AV01@ABV01@@Z 1000c570 f i Quantizer.obj
 0001:0000b5d0       ??XPxVec3@physx@@QAEAAV01@M@Z 1000c5d0 f i Quantizer.obj
 0001:0000b620       ??YPxVec3@physx@@QAEAAV01@ABV01@@Z 1000c620 f i Quantizer.obj
 0001:0000b680       ??_GQuantizer@physx@@MAEPAXI@Z 1000c680 f i Quantizer.obj
 0001:0000b680       ??_EQuantizer@physx@@MAEPAXI@Z 1000c680 f i Quantizer.obj
 0001:0000b6b0       ??_EQuantizerImpl@@EAEPAXI@Z 1000c6b0 f i Quantizer.obj
 0001:0000b6b0       ??_GQuantizerImpl@@EAEPAXI@Z 1000c6b0 f i Quantizer.obj
 0001:0000b700       ?PxAbs@physx@@YAMM@Z       1000c700 f i Quantizer.obj
 0001:0000b720       ?PxIsFinite@physx@@YA_NM@Z 1000c720 f i Quantizer.obj
 0001:0000b740       ?abs@intrinsics@physx@@YAMM@Z 1000c740 f i Quantizer.obj
 0001:0000b760       ?allocate@?$Array@VPxVec3@physx@@VNamedAllocator@shdfnd@2@@shdfnd@physx@@IAEPAVPxVec3@3@I@Z 1000c760 f i Quantizer.obj
 0001:0000b7d0       ?allocate@?$ReflectionAllocator@VQuantizerImpl@@@shdfnd@physx@@QAEPAXIPBDH@Z 1000c7d0 f i Quantizer.obj
 0001:0000b820       ?capacity@?$Array@VPxVec3@physx@@VNamedAllocator@shdfnd@2@@shdfnd@physx@@QBEIXZ 1000c820 f i Quantizer.obj
 0001:0000b840       ?capacityIncrement@?$Array@VPxVec3@physx@@VNamedAllocator@shdfnd@2@@shdfnd@physx@@IBEIXZ 1000c840 f i Quantizer.obj
 0001:0000b880       ?clear@?$Array@VPxVec3@physx@@VNamedAllocator@shdfnd@2@@shdfnd@physx@@QAEXXZ 1000c880 f i Quantizer.obj
 0001:0000b8b0       ?copy@?$Array@VPxVec3@physx@@VNamedAllocator@shdfnd@2@@shdfnd@physx@@KAXPAVPxVec3@3@0PBV43@@Z 1000c8b0 f i Quantizer.obj
 0001:0000b900       ?deallocate@?$Array@VPxVec3@physx@@VNamedAllocator@shdfnd@2@@shdfnd@physx@@IAEXPAX@Z 1000c900 f i Quantizer.obj
 0001:0000b920       ?destroy@?$Array@VPxVec3@physx@@VNamedAllocator@shdfnd@2@@shdfnd@physx@@KAXPAVPxVec3@3@0@Z 1000c920 f i Quantizer.obj
 0001:0000b940       ?getCenter@PxBounds3@physx@@QBE?AVPxVec3@2@XZ 1000c940 f i Quantizer.obj
 0001:0000b9b0       ?getDenormalizeCenter@QuantizerImpl@@UBEABVPxVec3@physx@@XZ 1000c9b0 f i Quantizer.obj
 0001:0000b9d0       ?getDenormalizeScale@QuantizerImpl@@UBEABVPxVec3@physx@@XZ 1000c9d0 f i Quantizer.obj
 0001:0000b9f0       ?getDimensions@PxBounds3@physx@@QBE?AVPxVec3@2@XZ 1000c9f0 f i Quantizer.obj
 0001:0000ba40       ?getName@?$ReflectionAllocator@VQuantizerImpl@@@shdfnd@physx@@CAPBDXZ 1000ca40 f i Quantizer.obj
 0001:0000ba80       ?growAndPushBack@?$Array@VPxVec3@physx@@VNamedAllocator@shdfnd@2@@shdfnd@physx@@IAEAAVPxVec3@3@ABV43@@Z 1000ca80 f i Quantizer.obj
 0001:0000bba0       ?include@PxBounds3@physx@@QAEXABVPxVec3@2@@Z 1000cba0 f i Quantizer.obj
 0001:0000bc10       ?isFinite@PxBounds3@physx@@QBE_NXZ 1000cc10 f i Quantizer.obj
 0001:0000bc60       ?isFinite@PxVec3@physx@@QBE_NXZ 1000cc60 f i Quantizer.obj
 0001:0000bce0       ?isFinite@intrinsics@physx@@YA_NM@Z 1000cce0 f i Quantizer.obj
 0001:0000bd20       ?isInUserMemory@?$Array@VPxVec3@physx@@VNamedAllocator@shdfnd@2@@shdfnd@physx@@QBEIXZ 1000cd20 f i Quantizer.obj
 0001:0000bd40       ?isValid@PxBounds3@physx@@QBE_NXZ 1000cd40 f i Quantizer.obj
 0001:0000be30       ?kmeansQuantize3D@QuantizerImpl@@UAEPBVPxVec3@physx@@IPBV23@I_NIAAI@Z 1000ce30 f i Quantizer.obj
 0001:0000c020       ?maximum@PxVec3@physx@@QBE?AV12@ABV12@@Z 1000d020 f i Quantizer.obj
 0001:0000c0b0       ?minimum@PxVec3@physx@@QBE?AV12@ABV12@@Z 1000d0b0 f i Quantizer.obj
 0001:0000c140       ?multiply@PxVec3@physx@@QBE?AV12@ABV12@@Z 1000d140 f i Quantizer.obj
 0001:0000c1a0       ?normalizeInput@QuantizerImpl@@AAEXIPBVPxVec3@physx@@I@Z 1000d1a0 f i Quantizer.obj
 0001:0000c390       ?pushBack@?$Array@VPxVec3@physx@@VNamedAllocator@shdfnd@2@@shdfnd@physx@@QAEAAVPxVec3@3@ABV43@@Z 1000d390 f i Quantizer.obj
 0001:0000c410       ?release@QuantizerImpl@@UAEXXZ 1000d410 f i Quantizer.obj
 0001:0000c450       ?selectMax@intrinsics@physx@@YAMMM@Z 1000d450 f i Quantizer.obj
 0001:0000c480       ?selectMin@intrinsics@physx@@YAMMM@Z 1000d480 f i Quantizer.obj
 0001:0000c4b0       ?setEmpty@PxBounds3@physx@@QAEXXZ 1000d4b0 f i Quantizer.obj
 0001:0000c500       ??0BVHStructureBuilder@physx@@QAE@XZ 1000d500 f   BVHStructureBuilder.obj
 0001:0000c540       ??1BVHStructureBuilder@physx@@QAE@XZ 1000d540 f   BVHStructureBuilder.obj
 0001:0000c5c0       ?loadFromDesc@BVHStructureBuilder@physx@@QAE_NABVPxBVHStructureDesc@2@@Z 1000d5c0 f   BVHStructureBuilder.obj
 0001:0000c7f0       ?save@BVHStructureBuilder@physx@@QBE_NAAVPxOutputStream@2@_N@Z 1000d7f0 f   BVHStructureBuilder.obj
 0001:0000c980       ?moveData@BVHStructureBuilder@physx@@QAEXAAUBVHStructureData@Gu@2@@Z 1000d980 f   BVHStructureBuilder.obj
 0001:0000ca00       ?flatten@@YAXABVNodeAllocator@Gu@physx@@PAUBVHNode@23@@Z 1000da00 f   BVHStructureBuilder.obj
 0001:0000cc50       ??$?4VNamedAllocator@shdfnd@physx@@@?$Array@USlab@NodeAllocator@Gu@physx@@VNamedAllocator@shdfnd@4@@shdfnd@physx@@QAEAAV012@ABV012@@Z 1000dc50 f i BVHStructureBuilder.obj
 0001:0000ccc0       ??$PX_UNUSED@_N@@YAXAB_N@Z 1000dcc0 f i BVHStructureBuilder.obj
 0001:0000ccd0       ??$copy@VNamedAllocator@shdfnd@physx@@@?$Array@USlab@NodeAllocator@Gu@physx@@VNamedAllocator@shdfnd@4@@shdfnd@physx@@IAEXABV012@@Z 1000dcd0 f i BVHStructureBuilder.obj
 0001:0000cd60       ??0?$Array@USlab@NodeAllocator@Gu@physx@@VNamedAllocator@shdfnd@4@@shdfnd@physx@@QAE@ABV012@ABVNamedAllocator@12@@Z 1000dd60 f i BVHStructureBuilder.obj
 0001:0000cd90       ??0AABBTreeBuildNode@Gu@physx@@QAE@ABV012@@Z 1000dd90 f i BVHStructureBuilder.obj
 0001:0000cdd0       ??0AABBTreeBuildNode@Gu@physx@@QAE@XZ 1000ddd0 f i BVHStructureBuilder.obj
 0001:0000cdf0       ??0AABBTreeBuildParams@Gu@physx@@QAE@IIPBVPxBounds3@2@@Z 1000ddf0 f i BVHStructureBuilder.obj
 0001:0000ce30       ??0BuildStats@Gu@physx@@QAE@XZ 1000de30 f i BVHStructureBuilder.obj
 0001:0000ce60       ??0NodeAllocator@Gu@physx@@QAE@ABV012@@Z 1000de60 f i BVHStructureBuilder.obj
 0001:0000cec0       ??0PxBounds3@physx@@QAE@ABV01@@Z 1000dec0 f i BVHStructureBuilder.obj
 0001:0000cef0       ??0PxVec4@physx@@QAE@XZ    1000def0 f i BVHStructureBuilder.obj
 0001:0000cf00       ??1AABBTreeBuildNode@Gu@physx@@QAE@XZ 1000df00 f i BVHStructureBuilder.obj
 0001:0000cf10       ??1AABBTreeBuildParams@Gu@physx@@QAE@XZ 1000df10 f i BVHStructureBuilder.obj
 0001:0000cf30       ??4?$Array@USlab@NodeAllocator@Gu@physx@@VNamedAllocator@shdfnd@4@@shdfnd@physx@@QAEAAV012@ABV012@@Z 1000df30 f i BVHStructureBuilder.obj
 0001:0000cf50       ??4AABBTreeBuildNode@Gu@physx@@QAEAAV012@ABV012@@Z 1000df50 f i BVHStructureBuilder.obj
 0001:0000cf90       ??4AABBTreeBuildParams@Gu@physx@@QAEAAV012@ABV012@@Z 1000df90 f i BVHStructureBuilder.obj
 0001:0000cfc0       ??4BuildStats@Gu@physx@@QAEAAU012@$$QAU012@@Z 1000dfc0 f i BVHStructureBuilder.obj
 0001:0000cff0       ??4BuildStats@Gu@physx@@QAEAAU012@ABU012@@Z 1000dff0 f i BVHStructureBuilder.obj
 0001:0000d010       ??4NodeAllocator@Gu@physx@@QAEAAV012@ABV012@@Z 1000e010 f i BVHStructureBuilder.obj
 0001:0000d060       ??4PxBounds3@physx@@QAEAAV01@ABV01@@Z 1000e060 f i BVHStructureBuilder.obj
 0001:0000d090       ??A?$Array@USlab@NodeAllocator@Gu@physx@@VNamedAllocator@shdfnd@4@@shdfnd@physx@@QBEABUSlab@NodeAllocator@Gu@2@I@Z 1000e090 f i BVHStructureBuilder.obj
 0001:0000d0f0       ??_FAABBTreeBuildParams@Gu@physx@@QAEXXZ 1000e0f0 f i BVHStructureBuilder.obj
 0001:0000d110       ?V4Add@aos@shdfnd@physx@@YA?AT__m128@@T4@0@Z 1000e110 f i BVHStructureBuilder.obj
 0001:0000d150       ?V4LoadU@aos@shdfnd@physx@@YA?AT__m128@@QBM@Z 1000e150 f i BVHStructureBuilder.obj
 0001:0000d180       ?V4Scale@aos@shdfnd@physx@@YA?AT__m128@@T4@0@Z 1000e180 f i BVHStructureBuilder.obj
 0001:0000d1c0       ?V4StoreA@aos@shdfnd@physx@@YAXT__m128@@PAM@Z 1000e1c0 f i BVHStructureBuilder.obj
 0001:0000d240       ?V4StoreU@aos@shdfnd@physx@@YAXT__m128@@PAM@Z 1000e240 f i BVHStructureBuilder.obj
 0001:0000d270       ?V4Sub@aos@shdfnd@physx@@YA?AT__m128@@T4@0@Z 1000e270 f i BVHStructureBuilder.obj
 0001:0000d2b0       ?__global_array_delete@@YAXPAX@Z 1000e2b0 f i BVHStructureBuilder.obj
 0001:0000d2d0       ?__global_array_delete@@YAXPAXI@Z 1000e2d0 f i BVHStructureBuilder.obj
 0001:0000d2f0       ?__global_delete@@YAXPAX@Z 1000e2f0 f i BVHStructureBuilder.obj
 0001:0000d310       ?__global_delete@@YAXPAXI@Z 1000e310 f i BVHStructureBuilder.obj
 0001:0000d330       ?allocate@?$Array@USlab@NodeAllocator@Gu@physx@@VNamedAllocator@shdfnd@4@@shdfnd@physx@@IAEPAUSlab@NodeAllocator@Gu@3@I@Z 1000e330 f i BVHStructureBuilder.obj
 0001:0000d3a0       ?begin@?$Array@USlab@NodeAllocator@Gu@physx@@VNamedAllocator@shdfnd@4@@shdfnd@physx@@QBEPBUSlab@NodeAllocator@Gu@3@XZ 1000e3a0 f i BVHStructureBuilder.obj
 0001:0000d3b0       ?capacity@?$Array@USlab@NodeAllocator@Gu@physx@@VNamedAllocator@shdfnd@4@@shdfnd@physx@@QBEIXZ 1000e3b0 f i BVHStructureBuilder.obj
 0001:0000d3d0       ?clear@?$Array@USlab@NodeAllocator@Gu@physx@@VNamedAllocator@shdfnd@4@@shdfnd@physx@@QAEXXZ 1000e3d0 f i BVHStructureBuilder.obj
 0001:0000d400       ?copy@?$Array@USlab@NodeAllocator@Gu@physx@@VNamedAllocator@shdfnd@4@@shdfnd@physx@@KAXPAUSlab@NodeAllocator@Gu@3@0PBU4563@@Z 1000e400 f i BVHStructureBuilder.obj
 0001:0000d460       ?deallocate@?$Array@USlab@NodeAllocator@Gu@physx@@VNamedAllocator@shdfnd@4@@shdfnd@physx@@IAEXPAX@Z 1000e460 f i BVHStructureBuilder.obj
 0001:0000d480       ?destroy@?$Array@USlab@NodeAllocator@Gu@physx@@VNamedAllocator@shdfnd@4@@shdfnd@physx@@KAXPAUSlab@NodeAllocator@Gu@3@0@Z 1000e480 f i BVHStructureBuilder.obj
 0001:0000d4a0       ?empty@?$Array@USlab@NodeAllocator@Gu@physx@@VNamedAllocator@shdfnd@4@@shdfnd@physx@@QBE_NXZ 1000e4a0 f i BVHStructureBuilder.obj
 0001:0000d4d0       ?getAABB@AABBTreeBuildNode@Gu@physx@@QBEABVPxBounds3@3@XZ 1000e4d0 f i BVHStructureBuilder.obj
 0001:0000d4e0       ?getCount@BuildStats@Gu@physx@@QBEIXZ 1000e4e0 f i BVHStructureBuilder.obj
 0001:0000d4f0       ?getNbPrimitives@AABBTreeBuildNode@Gu@physx@@QBEIXZ 1000e4f0 f i BVHStructureBuilder.obj
 0001:0000d510       ?getNbRuntimePrimitives@AABBTreeBuildNode@Gu@physx@@QBEIXZ 1000e510 f i BVHStructureBuilder.obj
 0001:0000d530       ?getNeg@AABBTreeBuildNode@Gu@physx@@QBEPBV123@XZ 1000e530 f i BVHStructureBuilder.obj
 0001:0000d570       ?getPos@AABBTreeBuildNode@Gu@physx@@QBEPBV123@XZ 1000e570 f i BVHStructureBuilder.obj
 0001:0000d590       ?getPrimitives@AABBTreeBuildNode@Gu@physx@@QAEPAIPAI@Z 1000e590 f i BVHStructureBuilder.obj
 0001:0000d5b0       ?getPrimitives@AABBTreeBuildNode@Gu@physx@@QBEPBIPBI@Z 1000e5b0 f i BVHStructureBuilder.obj
 0001:0000d5d0       ?grow@?$Array@USlab@NodeAllocator@Gu@physx@@VNamedAllocator@shdfnd@4@@shdfnd@physx@@IAEXI@Z 1000e5d0 f i BVHStructureBuilder.obj
 0001:0000d630       ?increaseCount@BuildStats@Gu@physx@@QAEXI@Z 1000e630 f i BVHStructureBuilder.obj
 0001:0000d650       ?inflateBounds@@YAXAAVPxBounds3@physx@@ABV12@@Z 1000e650 f i BVHStructureBuilder.obj
 0001:0000d780       ?isAligned16@aos@shdfnd@physx@@YA_NPAX@Z 1000e780 f i BVHStructureBuilder.obj
 0001:0000d7b0       ?isInUserMemory@?$Array@USlab@NodeAllocator@Gu@physx@@VNamedAllocator@shdfnd@4@@shdfnd@physx@@QBEIXZ 1000e7b0 f i BVHStructureBuilder.obj
 0001:0000d7d0       ?isLeaf@AABBTreeBuildNode@Gu@physx@@QBE_NXZ 1000e7d0 f i BVHStructureBuilder.obj
 0001:0000d800       ?recreate@?$Array@USlab@NodeAllocator@Gu@physx@@VNamedAllocator@shdfnd@4@@shdfnd@physx@@IAEXI@Z 1000e800 f i BVHStructureBuilder.obj
 0001:0000d8d0       ?reserve@?$Array@USlab@NodeAllocator@Gu@physx@@VNamedAllocator@shdfnd@4@@shdfnd@physx@@QAEXI@Z 1000e8d0 f i BVHStructureBuilder.obj
 0001:0000d900       ?reset@AABBTreeBuildParams@Gu@physx@@QAEXXZ 1000e900 f i BVHStructureBuilder.obj
 0001:0000d950       ?reset@BuildStats@Gu@physx@@QAEXXZ 1000e950 f i BVHStructureBuilder.obj
 0001:0000d970       ?setCount@BuildStats@Gu@physx@@QAEXI@Z 1000e970 f i BVHStructureBuilder.obj
 0001:0000d990       ?setNbRunTimePrimitives@AABBTreeBuildNode@Gu@physx@@QAEXI@Z 1000e990 f i BVHStructureBuilder.obj
 0001:0000d9b0       ?size@?$Array@USlab@NodeAllocator@Gu@physx@@VNamedAllocator@shdfnd@4@@shdfnd@physx@@QBEIXZ 1000e9b0 f i BVHStructureBuilder.obj
 0001:0000d9d0       ?saveHeightField@physx@@YA_NABVHeightField@Gu@1@AAVPxOutputStream@1@_N@Z 1000e9d0 f   HeightFieldCooking.obj
 0001:0000dcb0       ??APxVec3@physx@@QBEABMI@Z 1000ecb0 f i HeightFieldCooking.obj
 0001:0000dce0       ??B?$PxFlags@W4Enum@PxHeightFieldFlag@physx@@G@physx@@QBEGXZ 1000ece0 f i HeightFieldCooking.obj
 0001:0000dd00       ?getData@HeightField@Gu@physx@@QBEABUHeightFieldData@23@XZ 1000ed00 f i HeightFieldCooking.obj
 0001:0000dd20       ?getMax@CenterExtents@Gu@physx@@QBEMI@Z 1000ed20 f i HeightFieldCooking.obj
 0001:0000dd60       ?getMin@CenterExtents@Gu@physx@@QBEMI@Z 1000ed60 f i HeightFieldCooking.obj
 0001:0000dda0       ?buildFromTriangles@RTreeCooker@physx@@SAXAAURTree@Gu@2@PBVPxVec3@2@IPBGPBIIAAV?$Array@IVNamedAllocator@shdfnd@physx@@@shdfnd@2@PAURemapCallback@12@MW4Enum@PxMeshCookingHint@2@@Z 1000eda0 f   RTreeCooking.obj
 0001:0000ed20       ??$PX_UNUSED@I@@YAXABI@Z   1000fd20 f i RTreeCooking.obj
 0001:0000ed30       ??$PX_UNUSED@M@@YAXABM@Z   1000fd30 f i RTreeCooking.obj
 0001:0000ed40       ??$PX_UNUSED@PAURTreeNodeNQ@physx@@@@YAXABQAURTreeNodeNQ@physx@@@Z 1000fd40 f i RTreeCooking.obj
 0001:0000ed50       ??$PX_UNUSED@URTreeNodeNQ@physx@@@@YAXABURTreeNodeNQ@physx@@@Z 1000fd50 f i RTreeCooking.obj
 0001:0000ed60       ??$PxMax@H@physx@@YAHHH@Z  1000fd60 f i RTreeCooking.obj
 0001:0000ed90       ??$PxMin@I@physx@@YAIII@Z  1000fd90 f i RTreeCooking.obj
 0001:0000edc0       ??$median3@I$$CBU?$Less@I@shdfnd@physx@@@internal@shdfnd@physx@@YAXPAIHHABU?$Less@I@12@@Z 1000fdc0 f i RTreeCooking.obj
 0001:0000eeb0       ??$median3@I$$CBUSortBoundsPredicate@physx@@@internal@shdfnd@physx@@YAXPAIHHABUSortBoundsPredicate@2@@Z 1000feb0 f i RTreeCooking.obj
 0001:0000efa0       ??$partition@I$$CBU?$Less@I@shdfnd@physx@@@internal@shdfnd@physx@@YAHPAIHHABU?$Less@I@12@@Z 1000ffa0 f i RTreeCooking.obj
 0001:0000f100       ??$partition@I$$CBUSortBoundsPredicate@physx@@@internal@shdfnd@physx@@YAHPAIHHABUSortBoundsPredicate@2@@Z 10010100 f i RTreeCooking.obj
 0001:0000f260       ??$partition@UBoundsLTE@physx@@@quickSelect@physx@@YAIPIAIIIIABUBoundsLTE@1@@Z 10010260 f i RTreeCooking.obj
 0001:0000f470       ??$quickSelectFirstK@UBoundsLTE@physx@@@quickSelect@physx@@YAXPIAIIIIABUBoundsLTE@1@@Z 10010470 f i RTreeCooking.obj
 0001:0000f560       ??$smallSort@I$$CBU?$Less@I@shdfnd@physx@@@internal@shdfnd@physx@@YAXPAIHHABU?$Less@I@12@@Z 10010560 f i RTreeCooking.obj
 0001:0000f600       ??$smallSort@I$$CBUSortBoundsPredicate@physx@@@internal@shdfnd@physx@@YAXPAIHHABUSortBoundsPredicate@2@@Z 10010600 f i RTreeCooking.obj
 0001:0000f6a0       ??$sort@I@shdfnd@physx@@YAXPAII@Z 100106a0 f i RTreeCooking.obj
 0001:0000f6e0       ??$sort@IU?$Less@I@shdfnd@physx@@VNamedAllocator@23@@shdfnd@physx@@YAXPAIIABU?$Less@I@01@ABVNamedAllocator@01@I@Z 100106e0 f i RTreeCooking.obj
 0001:0000f910       ??$sort@IUSortBoundsPredicate@physx@@@shdfnd@physx@@YAXPAIIABUSortBoundsPredicate@1@@Z 10010910 f i RTreeCooking.obj
 0001:0000f950       ??$sort@IUSortBoundsPredicate@physx@@VNamedAllocator@shdfnd@2@@shdfnd@physx@@YAXPAIIABUSortBoundsPredicate@1@ABVNamedAllocator@01@I@Z 10010950 f i RTreeCooking.obj
 0001:0000fb80       ??0?$AlignedAllocator@$0IA@VNonTrackingAllocator@shdfnd@physx@@@shdfnd@physx@@QAE@ABVNonTrackingAllocator@12@@Z 10010b80 f i RTreeCooking.obj
 0001:0000fb90       ??0?$Array@IVNamedAllocator@shdfnd@physx@@@shdfnd@physx@@QAE@IABIABVNamedAllocator@12@@Z 10010b90 f i RTreeCooking.obj
 0001:0000fbe0       ??0?$Array@UInterval@physx@@V?$InlineAllocator@$0CAAA@VNamedAllocator@shdfnd@physx@@@shdfnd@2@@shdfnd@physx@@QAE@ABV?$InlineAllocator@$0CAAA@VNamedAllocator@shdfnd@physx@@@12@@Z 10010be0 f i RTreeCooking.obj
 0001:0000fc30       ??0?$Array@UPxBounds3V@physx@@VNamedAllocator@shdfnd@2@@shdfnd@physx@@QAE@ABVNamedAllocator@12@@Z 10010c30 f i RTreeCooking.obj
 0001:0000fc70       ??0?$Array@URTreeNodeNQ@physx@@VNamedAllocator@shdfnd@2@@shdfnd@physx@@QAE@ABVNamedAllocator@12@@Z 10010c70 f i RTreeCooking.obj
 0001:0000fcb0       ??0?$Array@URTreeNodeQ@Gu@physx@@VNamedAllocator@shdfnd@3@@shdfnd@physx@@QAE@ABVNamedAllocator@12@@Z 10010cb0 f i RTreeCooking.obj
 0001:0000fcf0       ??0?$InlineAllocator@$0CAAA@VNamedAllocator@shdfnd@physx@@@shdfnd@physx@@QAE@ABV012@@Z 10010cf0 f i RTreeCooking.obj
 0001:0000fd20       ??0?$InlineAllocator@$0CAAA@VNamedAllocator@shdfnd@physx@@@shdfnd@physx@@QAE@ABVNamedAllocator@12@@Z 10010d20 f i RTreeCooking.obj
 0001:0000fd50       ??0?$InlineArray@UInterval@physx@@$0EAA@VNamedAllocator@shdfnd@2@@shdfnd@physx@@QAE@ABVNamedAllocator@12@@Z 10010d50 f i RTreeCooking.obj
 0001:0000fdc0       ??0?$ScopedPointer@HVTempAllocator@shdfnd@physx@@@shdfnd@physx@@QAE@XZ 10010dc0 f i RTreeCooking.obj
 0001:0000fde0       ??0?$Stack@VNamedAllocator@shdfnd@physx@@@internal@shdfnd@physx@@QAE@PAHIABVNamedAllocator@23@@Z 10010de0 f i RTreeCooking.obj
 0001:0000fe20       ??0BoundsLTE@physx@@QAE@IPBVPxVec3@1@@Z 10010e20 f i RTreeCooking.obj
 0001:0000fe50       ??0Interval@physx@@QAE@II@Z 10010e50 f i RTreeCooking.obj
 0001:0000fe80       ??0PxBounds3@physx@@QAE@ABVPxVec3@1@0@Z 10010e80 f i RTreeCooking.obj
 0001:0000feb0       ??0PxBounds3V@physx@@QAE@AAT__m128@@0@Z 10010eb0 f i RTreeCooking.obj
 0001:0000fee0       ??0PxBounds3V@physx@@QAE@UU@01@@Z 10010ee0 f i RTreeCooking.obj
 0001:0000fef0       ??0PxVec4@physx@@QAE@ABVPxVec3@1@M@Z 10010ef0 f i RTreeCooking.obj
 0001:0000ff30       ??0PxVec4@physx@@QAE@M@Z   10010f30 f i RTreeCooking.obj
 0001:0000ff80       ??0RTreeNodeNQ@physx@@QAE@ABU01@@Z 10010f80 f i RTreeCooking.obj
 0001:0000ffc0       ??0RTreeNodeNQ@physx@@QAE@XZ 10010fc0 f i RTreeCooking.obj
 0001:0000fff0       ??0SortBoundsPredicate@physx@@QAE@IPBUPxBounds3V@1@@Z 10010ff0 f i RTreeCooking.obj
 0001:00010020       ??0SubSortQuick@physx@@QAE@PAIPBUPxBounds3V@1@IM@Z 10011020 f i RTreeCooking.obj
 0001:00010140       ??0SubSortSAH@physx@@QAE@PAIPBUPxBounds3V@1@IPBI22222M@Z 10011140 f i RTreeCooking.obj
 0001:000102c0       ??0TempAllocator@shdfnd@physx@@QAE@PBD@Z 100112c0 f i RTreeCooking.obj
 0001:000102d0       ??1?$Array@IVNamedAllocator@shdfnd@physx@@@shdfnd@physx@@QAE@XZ 100112d0 f i RTreeCooking.obj
 0001:00010330       ??1?$Array@UInterval@physx@@V?$InlineAllocator@$0CAAA@VNamedAllocator@shdfnd@physx@@@shdfnd@2@@shdfnd@physx@@QAE@XZ 10011330 f i RTreeCooking.obj
 0001:000103a0       ??1?$Array@UPxBounds3V@physx@@VNamedAllocator@shdfnd@2@@shdfnd@physx@@QAE@XZ 100113a0 f i RTreeCooking.obj
 0001:00010400       ??1?$Array@URTreeNodeNQ@physx@@VNamedAllocator@shdfnd@2@@shdfnd@physx@@QAE@XZ 10011400 f i RTreeCooking.obj
 0001:00010460       ??1?$Array@URTreeNodeQ@Gu@physx@@VNamedAllocator@shdfnd@3@@shdfnd@physx@@QAE@XZ 10011460 f i RTreeCooking.obj
 0001:000104c0       ??1?$InlineAllocator@$0CAAA@VNamedAllocator@shdfnd@physx@@@shdfnd@physx@@QAE@XZ 100114c0 f i RTreeCooking.obj
 0001:000104e0       ??1?$InlineArray@UInterval@physx@@$0EAA@VNamedAllocator@shdfnd@2@@shdfnd@physx@@QAE@XZ 100114e0 f i RTreeCooking.obj
 0001:00010500       ??1?$ScopedPointer@HVTempAllocator@shdfnd@physx@@@shdfnd@physx@@QAE@XZ 10011500 f i RTreeCooking.obj
 0001:00010530       ??1?$Stack@VNamedAllocator@shdfnd@physx@@@internal@shdfnd@physx@@QAE@XZ 10011530 f i RTreeCooking.obj
 0001:00010560       ??1SubSortQuick@physx@@QAE@XZ 10011560 f i RTreeCooking.obj
 0001:00010580       ??1SubSortSAH@physx@@QAE@XZ 10011580 f i RTreeCooking.obj
 0001:00010620       ??4PxVec4@physx@@QAEAAV01@ABV01@@Z 10011620 f i RTreeCooking.obj
 0001:00010660       ??A?$Array@IVNamedAllocator@shdfnd@physx@@@shdfnd@physx@@QAEAAII@Z 10011660 f i RTreeCooking.obj
 0001:000106c0       ??A?$Array@UInterval@physx@@V?$InlineAllocator@$0CAAA@VNamedAllocator@shdfnd@physx@@@shdfnd@2@@shdfnd@physx@@QAEAAUInterval@2@I@Z 100116c0 f i RTreeCooking.obj
 0001:00010720       ??A?$Array@URTreeNodeNQ@physx@@VNamedAllocator@shdfnd@2@@shdfnd@physx@@QAEAAURTreeNodeNQ@2@I@Z 10011720 f i RTreeCooking.obj
 0001:00010780       ??A?$Array@URTreeNodeQ@Gu@physx@@VNamedAllocator@shdfnd@3@@shdfnd@physx@@QAEAAURTreeNodeQ@Gu@2@I@Z 10011780 f i RTreeCooking.obj
 0001:000107e0       ??B?$ScopedPointer@HVTempAllocator@shdfnd@physx@@@shdfnd@physx@@QBEPAHXZ 100117e0 f i RTreeCooking.obj
 0001:000107f0       ??GPxVec4@physx@@QBE?AV01@ABV01@@Z 100117f0 f i RTreeCooking.obj
 0001:00010860       ??KPxVec4@physx@@QBE?AV01@M@Z 10011860 f i RTreeCooking.obj
 0001:000108e0       ??R?$Less@I@shdfnd@physx@@QBE_NABI0@Z 100118e0 f i RTreeCooking.obj
 0001:00010910       ??RBoundsLTE@physx@@QBE_NABI0@Z 10011910 f i RTreeCooking.obj
 0001:00010980       ??RSortBoundsPredicate@physx@@QBE_NABI0@Z 10011980 f i RTreeCooking.obj
 0001:00010a70       ?FMax@aos@shdfnd@physx@@YA?AT__m128@@XZ 10011a70 f i RTreeCooking.obj
 0001:00010ab0       ?FNegMax@aos@shdfnd@physx@@YA?AT__m128@@XZ 10011ab0 f i RTreeCooking.obj
 0001:00010af0       ?FStore@aos@shdfnd@physx@@YAXT__m128@@PIAM@Z 10011af0 f i RTreeCooking.obj
 0001:00010b70       ?PxAbs@physx@@YAHH@Z       10011b70 f i RTreeCooking.obj
 0001:00010b90       ?V3Add@aos@shdfnd@physx@@YA?AT__m128@@T4@0@Z 10011b90 f i RTreeCooking.obj
 0001:00010c50       ?V3Dot@aos@shdfnd@physx@@YA?AT__m128@@T4@0@Z 10011c50 f i RTreeCooking.obj
 0001:00010d80       ?V3LoadU@aos@shdfnd@physx@@YA?AT__m128@@ABVPxVec3@3@@Z 10011d80 f i RTreeCooking.obj
 0001:00010dd0       ?V3Max@aos@shdfnd@physx@@YA?AT__m128@@T4@0@Z 10011dd0 f i RTreeCooking.obj
 0001:00010e90       ?V3Min@aos@shdfnd@physx@@YA?AT__m128@@T4@0@Z 10011e90 f i RTreeCooking.obj
 0001:00010f50       ?V3PermZXY@aos@shdfnd@physx@@YA?AT__m128@@T4@@Z 10011f50 f i RTreeCooking.obj
 0001:00010fd0       ?V3ReadXYZ@aos@shdfnd@physx@@YAABVPxVec3@3@ABT__m128@@@Z 10011fd0 f i RTreeCooking.obj
 0001:00010fe0       ?V3Splat@aos@shdfnd@physx@@YA?AT__m128@@T4@@Z 10011fe0 f i RTreeCooking.obj
 0001:00011090       ?V3StoreA@aos@shdfnd@physx@@YAXT__m128@@AAVPxVec3@3@@Z 10012090 f i RTreeCooking.obj
 0001:00011150       ?V3StoreU@aos@shdfnd@physx@@YAXT__m128@@AAVPxVec3@3@@Z 10012150 f i RTreeCooking.obj
 0001:000111d0       ?V3Sub@aos@shdfnd@physx@@YA?AT__m128@@T4@0@Z 100121d0 f i RTreeCooking.obj
 0001:00011290       ?V3Zero@aos@shdfnd@physx@@YA?AT__m128@@XZ 10012290 f i RTreeCooking.obj
 0001:000112c0       ?V4ClearW@aos@shdfnd@physx@@YA?AT__m128@@T4@@Z 100122c0 f i RTreeCooking.obj
 0001:00011300       ?V4ReadW@aos@shdfnd@physx@@YAMABT__m128@@@Z 10012300 f i RTreeCooking.obj
 0001:00011310       ?V4ReadX@aos@shdfnd@physx@@YAMABT__m128@@@Z 10012310 f i RTreeCooking.obj
 0001:00011320       ?V4ReadY@aos@shdfnd@physx@@YAMABT__m128@@@Z 10012320 f i RTreeCooking.obj
 0001:00011330       ?V4ReadZ@aos@shdfnd@physx@@YAMABT__m128@@@Z 10012330 f i RTreeCooking.obj
 0001:00011340       ?Vec3V_From_FloatV@aos@shdfnd@physx@@YA?AT__m128@@T4@@Z 10012340 f i RTreeCooking.obj
 0001:00011390       ?Vec3V_From_Vec4V@aos@shdfnd@physx@@YA?AT__m128@@T4@@Z 10012390 f i RTreeCooking.obj
 0001:000113d0       ?Vec4V_From_FloatV@aos@shdfnd@physx@@YA?AT__m128@@T4@@Z 100123d0 f i RTreeCooking.obj
 0001:00011400       ?allocate@?$AlignedAllocator@$0IA@VNonTrackingAllocator@shdfnd@physx@@@shdfnd@physx@@QAEPAXIPBDH@Z 10012400 f i RTreeCooking.obj
 0001:00011460       ?allocate@?$Array@IVNamedAllocator@shdfnd@physx@@@shdfnd@physx@@IAEPAII@Z 10012460 f i RTreeCooking.obj
 0001:000114d0       ?allocate@?$Array@UInterval@physx@@V?$InlineAllocator@$0CAAA@VNamedAllocator@shdfnd@physx@@@shdfnd@2@@shdfnd@physx@@IAEPAUInterval@3@I@Z 100124d0 f i RTreeCooking.obj
 0001:00011540       ?allocate@?$Array@UPxBounds3V@physx@@VNamedAllocator@shdfnd@2@@shdfnd@physx@@IAEPAUPxBounds3V@3@I@Z 10012540 f i RTreeCooking.obj
 0001:000115b0       ?allocate@?$Array@URTreeNodeNQ@physx@@VNamedAllocator@shdfnd@2@@shdfnd@physx@@IAEPAURTreeNodeNQ@3@I@Z 100125b0 f i RTreeCooking.obj
 0001:00011620       ?allocate@?$Array@URTreeNodeQ@Gu@physx@@VNamedAllocator@shdfnd@3@@shdfnd@physx@@IAEPAURTreeNodeQ@Gu@3@I@Z 10012620 f i RTreeCooking.obj
 0001:00011690       ?allocate@?$InlineAllocator@$0CAAA@VNamedAllocator@shdfnd@physx@@@shdfnd@physx@@QAEPAXIPBDH@Z 10012690 f i RTreeCooking.obj
 0001:000116e0       ?allocate@NonTrackingAllocator@shdfnd@physx@@QAEPAXIPBDH@Z 100126e0 f i RTreeCooking.obj
 0001:00011730       ?begin@?$Array@IVNamedAllocator@shdfnd@physx@@@shdfnd@physx@@QAEPAIXZ 10012730 f i RTreeCooking.obj
 0001:00011740       ?begin@?$Array@UPxBounds3V@physx@@VNamedAllocator@shdfnd@2@@shdfnd@physx@@QAEPAUPxBounds3V@3@XZ 10012740 f i RTreeCooking.obj
 0001:00011750       ?begin@?$Array@VPxVec3@physx@@VNamedAllocator@shdfnd@2@@shdfnd@physx@@QAEPAVPxVec3@3@XZ 10012750 f i RTreeCooking.obj
 0001:00011760       ?capacity@?$Array@IVNamedAllocator@shdfnd@physx@@@shdfnd@physx@@QBEIXZ 10012760 f i RTreeCooking.obj
 0001:00011780       ?capacity@?$Array@UInterval@physx@@V?$InlineAllocator@$0CAAA@VNamedAllocator@shdfnd@physx@@@shdfnd@2@@shdfnd@physx@@QBEIXZ 10012780 f i RTreeCooking.obj
 0001:000117a0       ?capacity@?$Array@UPxBounds3V@physx@@VNamedAllocator@shdfnd@2@@shdfnd@physx@@QBEIXZ 100127a0 f i RTreeCooking.obj
 0001:000117c0       ?capacity@?$Array@URTreeNodeNQ@physx@@VNamedAllocator@shdfnd@2@@shdfnd@physx@@QBEIXZ 100127c0 f i RTreeCooking.obj
 0001:000117e0       ?capacity@?$Array@URTreeNodeQ@Gu@physx@@VNamedAllocator@shdfnd@3@@shdfnd@physx@@QBEIXZ 100127e0 f i RTreeCooking.obj
 0001:00011800       ?capacityIncrement@?$Array@IVNamedAllocator@shdfnd@physx@@@shdfnd@physx@@IBEIXZ 10012800 f i RTreeCooking.obj
 0001:00011840       ?capacityIncrement@?$Array@UInterval@physx@@V?$InlineAllocator@$0CAAA@VNamedAllocator@shdfnd@physx@@@shdfnd@2@@shdfnd@physx@@IBEIXZ 10012840 f i RTreeCooking.obj
 0001:00011880       ?capacityIncrement@?$Array@UPxBounds3V@physx@@VNamedAllocator@shdfnd@2@@shdfnd@physx@@IBEIXZ 10012880 f i RTreeCooking.obj
 0001:000118c0       ?capacityIncrement@?$Array@URTreeNodeNQ@physx@@VNamedAllocator@shdfnd@2@@shdfnd@physx@@IBEIXZ 100128c0 f i RTreeCooking.obj
 0001:00011900       ?capacityIncrement@?$Array@URTreeNodeQ@Gu@physx@@VNamedAllocator@shdfnd@3@@shdfnd@physx@@IBEIXZ 10012900 f i RTreeCooking.obj
 0001:00011940       ?computeSA@SubSortSAH@physx@@QAEMPBIABUInterval@2@@Z 10012940 f i RTreeCooking.obj
 0001:00011a70       ?copy@?$Array@IVNamedAllocator@shdfnd@physx@@@shdfnd@physx@@KAXPAI0PBI@Z 10012a70 f i RTreeCooking.obj
 0001:00011ac0       ?copy@?$Array@UInterval@physx@@V?$InlineAllocator@$0CAAA@VNamedAllocator@shdfnd@physx@@@shdfnd@2@@shdfnd@physx@@KAXPAUInterval@3@0PBU43@@Z 10012ac0 f i RTreeCooking.obj
 0001:00011b20       ?copy@?$Array@UPxBounds3V@physx@@VNamedAllocator@shdfnd@2@@shdfnd@physx@@KAXPAUPxBounds3V@3@0PBU43@@Z 10012b20 f i RTreeCooking.obj
 0001:00011b80       ?copy@?$Array@URTreeNodeNQ@physx@@VNamedAllocator@shdfnd@2@@shdfnd@physx@@KAXPAURTreeNodeNQ@3@0PBU43@@Z 10012b80 f i RTreeCooking.obj
 0001:00011bd0       ?copy@?$Array@URTreeNodeQ@Gu@physx@@VNamedAllocator@shdfnd@3@@shdfnd@physx@@KAXPAURTreeNodeQ@Gu@3@0PBU453@@Z 10012bd0 f i RTreeCooking.obj
 0001:00011c30       ?create@?$Array@IVNamedAllocator@shdfnd@physx@@@shdfnd@physx@@KAXPAI0ABI@Z 10012c30 f i RTreeCooking.obj
 0001:00011c70       ?deallocate@?$Array@IVNamedAllocator@shdfnd@physx@@@shdfnd@physx@@IAEXPAX@Z 10012c70 f i RTreeCooking.obj
 0001:00011c90       ?deallocate@?$Array@UInterval@physx@@V?$InlineAllocator@$0CAAA@VNamedAllocator@shdfnd@physx@@@shdfnd@2@@shdfnd@physx@@IAEXPAX@Z 10012c90 f i RTreeCooking.obj
 0001:00011cb0       ?deallocate@?$Array@UPxBounds3V@physx@@VNamedAllocator@shdfnd@2@@shdfnd@physx@@IAEXPAX@Z 10012cb0 f i RTreeCooking.obj
 0001:00011cd0       ?deallocate@?$Array@URTreeNodeNQ@physx@@VNamedAllocator@shdfnd@2@@shdfnd@physx@@IAEXPAX@Z 10012cd0 f i RTreeCooking.obj
 0001:00011cf0       ?deallocate@?$Array@URTreeNodeQ@Gu@physx@@VNamedAllocator@shdfnd@3@@shdfnd@physx@@IAEXPAX@Z 10012cf0 f i RTreeCooking.obj
 0001:00011d10       ?deallocate@?$InlineAllocator@$0CAAA@VNamedAllocator@shdfnd@physx@@@shdfnd@physx@@QAEXPAX@Z 10012d10 f i RTreeCooking.obj
 0001:00011d40       ?destroy@?$Array@IVNamedAllocator@shdfnd@physx@@@shdfnd@physx@@KAXPAI0@Z 10012d40 f i RTreeCooking.obj
 0001:00011d60       ?destroy@?$Array@UInterval@physx@@V?$InlineAllocator@$0CAAA@VNamedAllocator@shdfnd@physx@@@shdfnd@2@@shdfnd@physx@@KAXPAUInterval@3@0@Z 10012d60 f i RTreeCooking.obj
 0001:00011d80       ?destroy@?$Array@UPxBounds3V@physx@@VNamedAllocator@shdfnd@2@@shdfnd@physx@@KAXPAUPxBounds3V@3@0@Z 10012d80 f i RTreeCooking.obj
 0001:00011da0       ?destroy@?$Array@URTreeNodeNQ@physx@@VNamedAllocator@shdfnd@2@@shdfnd@physx@@KAXPAURTreeNodeNQ@3@0@Z 10012da0 f i RTreeCooking.obj
 0001:00011dc0       ?destroy@?$Array@URTreeNodeQ@Gu@physx@@VNamedAllocator@shdfnd@3@@shdfnd@physx@@KAXPAURTreeNodeQ@Gu@3@0@Z 10012dc0 f i RTreeCooking.obj
 0001:00011de0       ?empty@?$Stack@VNamedAllocator@shdfnd@physx@@@internal@shdfnd@physx@@QAE_NXZ 10012de0 f i RTreeCooking.obj
 0001:00011e10       ?empty@PxBounds3@physx@@SA?AV12@XZ 10012e10 f i RTreeCooking.obj
 0001:00011e60       ?getExtents@PxBounds3V@physx@@QBE?AT__m128@@XZ 10012e60 f i RTreeCooking.obj
 0001:00011eb0       ?getMaxVec3@PxBounds3V@physx@@QBE?BVPxVec3@2@XZ 10012eb0 f i RTreeCooking.obj
 0001:00011ef0       ?getMinVec3@PxBounds3V@physx@@QBE?BVPxVec3@2@XZ 10012ef0 f i RTreeCooking.obj
 0001:00011f30       ?grow@?$Array@IVNamedAllocator@shdfnd@physx@@@shdfnd@physx@@IAEXI@Z 10012f30 f i RTreeCooking.obj
 0001:00011f90       ?grow@?$Array@UPxBounds3V@physx@@VNamedAllocator@shdfnd@2@@shdfnd@physx@@IAEXI@Z 10012f90 f i RTreeCooking.obj
 0001:00011ff0       ?grow@?$Array@URTreeNodeNQ@physx@@VNamedAllocator@shdfnd@2@@shdfnd@physx@@IAEXI@Z 10012ff0 f i RTreeCooking.obj
 0001:00012050       ?grow@?$Array@URTreeNodeQ@Gu@physx@@VNamedAllocator@shdfnd@3@@shdfnd@physx@@IAEXI@Z 10013050 f i RTreeCooking.obj
 0001:000120b0       ?grow@?$Array@VPxVec3@physx@@VNamedAllocator@shdfnd@2@@shdfnd@physx@@IAEXI@Z 100130b0 f i RTreeCooking.obj
 0001:00012110       ?grow@?$Stack@VNamedAllocator@shdfnd@physx@@@internal@shdfnd@physx@@QAEXXZ 10013110 f i RTreeCooking.obj
 0001:000121a0       ?growAndPushBack@?$Array@IVNamedAllocator@shdfnd@physx@@@shdfnd@physx@@IAEAAIABI@Z 100131a0 f i RTreeCooking.obj
 0001:000122d0       ?growAndPushBack@?$Array@UInterval@physx@@V?$InlineAllocator@$0CAAA@VNamedAllocator@shdfnd@physx@@@shdfnd@2@@shdfnd@physx@@IAEAAUInterval@3@ABU43@@Z 100132d0 f i RTreeCooking.obj
 0001:00012430       ?growAndPushBack@?$Array@UPxBounds3V@physx@@VNamedAllocator@shdfnd@2@@shdfnd@physx@@IAEAAUPxBounds3V@3@ABU43@@Z 10013430 f i RTreeCooking.obj
 0001:00012560       ?growAndPushBack@?$Array@URTreeNodeNQ@physx@@VNamedAllocator@shdfnd@2@@shdfnd@physx@@IAEAAURTreeNodeNQ@3@ABU43@@Z 10013560 f i RTreeCooking.obj
 0001:00012690       ?growAndPushBack@?$Array@URTreeNodeQ@Gu@physx@@VNamedAllocator@shdfnd@3@@shdfnd@physx@@IAEAAURTreeNodeQ@Gu@3@ABU453@@Z 10013690 f i RTreeCooking.obj
 0001:000127b0       ?include@PxBounds3V@physx@@QAEXABU12@@Z 100137b0 f i RTreeCooking.obj
 0001:00012820       ?isInUserMemory@?$Array@IVNamedAllocator@shdfnd@physx@@@shdfnd@physx@@QBEIXZ 10013820 f i RTreeCooking.obj
 0001:00012840       ?isInUserMemory@?$Array@UInterval@physx@@V?$InlineAllocator@$0CAAA@VNamedAllocator@shdfnd@physx@@@shdfnd@2@@shdfnd@physx@@QBEIXZ 10013840 f i RTreeCooking.obj
 0001:00012860       ?isInUserMemory@?$Array@UPxBounds3V@physx@@VNamedAllocator@shdfnd@2@@shdfnd@physx@@QBEIXZ 10013860 f i RTreeCooking.obj
 0001:00012880       ?isInUserMemory@?$Array@URTreeNodeNQ@physx@@VNamedAllocator@shdfnd@2@@shdfnd@physx@@QBEIXZ 10013880 f i RTreeCooking.obj
 0001:000128a0       ?isInUserMemory@?$Array@URTreeNodeQ@Gu@physx@@VNamedAllocator@shdfnd@3@@shdfnd@physx@@QBEIXZ 100138a0 f i RTreeCooking.obj
 0001:000128c0       ?isInside@PxBounds3@physx@@QBE_NABV12@@Z 100138c0 f i RTreeCooking.obj
 0001:00012980       ?isLeaf@RTreeNodeQ@Gu@physx@@QBEIXZ 10013980 f i RTreeCooking.obj
 0001:000129a0       ?isValidFloatV@aos@shdfnd@physx@@YA_NT__m128@@@Z 100139a0 f i RTreeCooking.obj
 0001:00012b20       ?isValidVec3V@aos@shdfnd@physx@@YA_NT__m128@@@Z 10013b20 f i RTreeCooking.obj
 0001:00012b90       ?pop@?$Stack@VNamedAllocator@shdfnd@physx@@@internal@shdfnd@physx@@QAEXAAH0@Z 10013b90 f i RTreeCooking.obj
 0001:00012c30       ?popBack@?$Array@IVNamedAllocator@shdfnd@physx@@@shdfnd@physx@@QAEIXZ 10013c30 f i RTreeCooking.obj
 0001:00012cb0       ?push@?$Stack@VNamedAllocator@shdfnd@physx@@@internal@shdfnd@physx@@QAEXHH@Z 10013cb0 f i RTreeCooking.obj
 0001:00012d20       ?pushBack@?$Array@IVNamedAllocator@shdfnd@physx@@@shdfnd@physx@@QAEAAIABI@Z 10013d20 f i RTreeCooking.obj
 0001:00012da0       ?pushBack@?$Array@UInterval@physx@@V?$InlineAllocator@$0CAAA@VNamedAllocator@shdfnd@physx@@@shdfnd@2@@shdfnd@physx@@QAEAAUInterval@3@ABU43@@Z 10013da0 f i RTreeCooking.obj
 0001:00012e40       ?pushBack@?$Array@UPxBounds3V@physx@@VNamedAllocator@shdfnd@2@@shdfnd@physx@@QAEAAUPxBounds3V@3@ABU43@@Z 10013e40 f i RTreeCooking.obj
 0001:00012ec0       ?pushBack@?$Array@URTreeNodeNQ@physx@@VNamedAllocator@shdfnd@2@@shdfnd@physx@@QAEAAURTreeNodeNQ@3@ABU43@@Z 10013ec0 f i RTreeCooking.obj
 0001:00012f40       ?pushBack@?$Array@URTreeNodeQ@Gu@physx@@VNamedAllocator@shdfnd@3@@shdfnd@physx@@QAEAAURTreeNodeQ@Gu@3@ABU453@@Z 10013f40 f i RTreeCooking.obj
 0001:00012fc0       ?recreate@?$Array@IVNamedAllocator@shdfnd@physx@@@shdfnd@physx@@IAEXI@Z 10013fc0 f i RTreeCooking.obj
 0001:00013090       ?recreate@?$Array@UPxBounds3V@physx@@VNamedAllocator@shdfnd@2@@shdfnd@physx@@IAEXI@Z 10014090 f i RTreeCooking.obj
 0001:00013160       ?recreate@?$Array@URTreeNodeNQ@physx@@VNamedAllocator@shdfnd@2@@shdfnd@physx@@IAEXI@Z 10014160 f i RTreeCooking.obj
 0001:00013230       ?recreate@?$Array@URTreeNodeQ@Gu@physx@@VNamedAllocator@shdfnd@3@@shdfnd@physx@@IAEXI@Z 10014230 f i RTreeCooking.obj
 0001:00013300       ?recreate@?$Array@VPxVec3@physx@@VNamedAllocator@shdfnd@2@@shdfnd@physx@@IAEXI@Z 10014300 f i RTreeCooking.obj
 0001:000133d0       ?replaceWithLast@?$Array@UInterval@physx@@V?$InlineAllocator@$0CAAA@VNamedAllocator@shdfnd@physx@@@shdfnd@2@@shdfnd@physx@@QAEXI@Z 100143d0 f i RTreeCooking.obj
 0001:00013470       ?reserve@?$Array@IVNamedAllocator@shdfnd@physx@@@shdfnd@physx@@QAEXI@Z 10014470 f i RTreeCooking.obj
 0001:000134a0       ?reserve@?$Array@UPxBounds3V@physx@@VNamedAllocator@shdfnd@2@@shdfnd@physx@@QAEXI@Z 100144a0 f i RTreeCooking.obj
 0001:000134d0       ?reserve@?$Array@URTreeNodeNQ@physx@@VNamedAllocator@shdfnd@2@@shdfnd@physx@@QAEXI@Z 100144d0 f i RTreeCooking.obj
 0001:00013500       ?reserve@?$Array@URTreeNodeQ@Gu@physx@@VNamedAllocator@shdfnd@3@@shdfnd@physx@@QAEXI@Z 10014500 f i RTreeCooking.obj
 0001:00013530       ?reserve@?$Array@VPxVec3@physx@@VNamedAllocator@shdfnd@2@@shdfnd@physx@@QAEXI@Z 10014530 f i RTreeCooking.obj
 0001:00013560       ?resize@?$Array@IVNamedAllocator@shdfnd@physx@@@shdfnd@physx@@QAEXIABI@Z 10014560 f i RTreeCooking.obj
 0001:000135d0       ?resizeUninitialized@?$Array@URTreeNodeNQ@physx@@VNamedAllocator@shdfnd@2@@shdfnd@physx@@QAEXI@Z 100145d0 f i RTreeCooking.obj
 0001:00013600       ?setLeaf@RTreeNodeQ@Gu@physx@@QAEX_N@Z 10014600 f i RTreeCooking.obj
 0001:00013640       ?size@?$Array@IVNamedAllocator@shdfnd@physx@@@shdfnd@physx@@QBEIXZ 10014640 f i RTreeCooking.obj
 0001:00013660       ?size@?$Array@UInterval@physx@@V?$InlineAllocator@$0CAAA@VNamedAllocator@shdfnd@physx@@@shdfnd@2@@shdfnd@physx@@QBEIXZ 10014660 f i RTreeCooking.obj
 0001:00013680       ?size@?$Array@URTreeNodeNQ@physx@@VNamedAllocator@shdfnd@2@@shdfnd@physx@@QBEIXZ 10014680 f i RTreeCooking.obj
 0001:000136a0       ?size@?$Array@URTreeNodeQ@Gu@physx@@VNamedAllocator@shdfnd@3@@shdfnd@physx@@QBEIXZ 100146a0 f i RTreeCooking.obj
 0001:000136c0       ?size@?$Array@VPxVec3@physx@@VNamedAllocator@shdfnd@2@@shdfnd@physx@@QBEIXZ 100146c0 f i RTreeCooking.obj
 0001:000136e0       ?sort4@SubSortQuick@physx@@QAEXPIAIIAAV?$Array@URTreeNodeNQ@physx@@VNamedAllocator@shdfnd@2@@shdfnd@2@AAIAAUPxBounds3V@2@I@Z 100146e0 f i RTreeCooking.obj
 0001:00013da0       ?sort4@SubSortSAH@physx@@QAEXPAIIAAV?$Array@URTreeNodeNQ@physx@@VNamedAllocator@shdfnd@2@@shdfnd@2@AAIIPAURTreeNodeNQ@2@@Z 10014da0 f i RTreeCooking.obj
 0001:00014880       ?split@SubSortSAH@physx@@QAEIPAII@Z 10015880 f i RTreeCooking.obj
 0001:00015270       ?computeLocalBounds@MeshBulider@physx@@IAEXAAVMeshDataBase@Gu@2@@Z 10016270 f   MeshBuilder.obj
 0001:00015370       _powf                      10016370 f i MeshBuilder.obj
 0001:000153a0       ??0TriangleMeshBuilder@physx@@QAE@AAVTriangleMeshData@Gu@1@ABUPxCookingParams@1@@Z 100163a0 f   TriangleMeshBuilder.obj
 0001:000153e0       ??1TriangleMeshBuilder@physx@@UAE@XZ 100163e0 f   TriangleMeshBuilder.obj
 0001:00015400       ?cleanMesh@TriangleMeshBuilder@physx@@QAE_N_NPAW4Enum@PxTriangleMeshCookingResult@2@@Z 10016400 f   TriangleMeshBuilder.obj
 0001:00015990       ?remapTopology@TriangleMeshBuilder@physx@@QAEXPBI@Z 10016990 f   TriangleMeshBuilder.obj
 0001:00015c30       ?createSharedEdgeData@TriangleMeshBuilder@physx@@QAEX_N0@Z 10016c30 f   TriangleMeshBuilder.obj
 0001:00016210       ?recordTriangleIndices@TriangleMeshBuilder@physx@@QAEXXZ 10017210 f   TriangleMeshBuilder.obj
 0001:00016360       ?createGRBMidPhaseAndData@TriangleMeshBuilder@physx@@QAEXI@Z 10017360 f   TriangleMeshBuilder.obj
 0001:000165b0       ?createGRBData@TriangleMeshBuilder@physx@@QAEXXZ 100175b0 f   TriangleMeshBuilder.obj
 0001:000166c0       ?loadFromDesc@TriangleMeshBuilder@physx@@QAE_NABVPxTriangleMeshDesc@2@PAW4Enum@PxTriangleMeshCookingResult@2@_N@Z 100176c0 f   TriangleMeshBuilder.obj
 0001:000168c0       ?save@TriangleMeshBuilder@physx@@QBE_NAAVPxOutputStream@2@_NABUPxCookingParams@2@@Z 100178c0 f   TriangleMeshBuilder.obj
 0001:00016f30       ?checkMeshIndicesSize@TriangleMeshBuilder@physx@@QAEXXZ 10017f30 f   TriangleMeshBuilder.obj
 0001:000170c0       ?importMesh@TriangleMeshBuilder@physx@@IAE_NABVPxTriangleMeshDesc@2@ABUPxCookingParams@2@PAW4Enum@PxTriangleMeshCookingResult@2@_N@Z 100180c0 f   TriangleMeshBuilder.obj
 0001:00017530       ?releaseEdgeList@TriangleMeshBuilder@physx@@IAEXXZ 10018530 f   TriangleMeshBuilder.obj
 0001:00017570       ?createEdgeList@TriangleMeshBuilder@physx@@IAEXXZ 10018570 f   TriangleMeshBuilder.obj
 0001:00017670       ??0RTreeTriangleMeshBuilder@physx@@QAE@ABUPxCookingParams@1@@Z 10018670 f   TriangleMeshBuilder.obj
 0001:000176b0       ??1RTreeTriangleMeshBuilder@physx@@UAE@XZ 100186b0 f   TriangleMeshBuilder.obj
 0001:000176e0       ?createMidPhaseStructure@RTreeTriangleMeshBuilder@physx@@UAEXXZ 100186e0 f   TriangleMeshBuilder.obj
 0001:00017840       ?saveMidPhaseStructure@RTreeTriangleMeshBuilder@physx@@UBEXAAVPxOutputStream@2@_N@Z 10018840 f   TriangleMeshBuilder.obj
 0001:00017aa0       ??0BV4TriangleMeshBuilder@physx@@QAE@ABUPxCookingParams@1@@Z 10018aa0 f   TriangleMeshBuilder.obj
 0001:00017ae0       ??1BV4TriangleMeshBuilder@physx@@UAE@XZ 10018ae0 f   TriangleMeshBuilder.obj
 0001:00017b10       ?createMidPhaseStructure@BV4TriangleMeshBuilder@physx@@UAEXXZ 10018b10 f   TriangleMeshBuilder.obj
 0001:00017e20       ?saveMidPhaseStructure@BV4TriangleMeshBuilder@physx@@UBEXAAVPxOutputStream@2@_N@Z 10018e20 f   TriangleMeshBuilder.obj
 0001:00018070       ?onMeshIndexFormatChange@BV4TriangleMeshBuilder@physx@@UAEXXZ 10019070 f   TriangleMeshBuilder.obj
 0001:000180e0       ?createMidPhaseStructure@BV32TriangleMeshBuilder@physx@@SAXABUPxCookingParams@2@AAVTriangleMeshData@Gu@2@AAVBV32Tree@52@@Z 100190e0 f   TriangleMeshBuilder.obj
 0001:000182e0       ?saveMidPhaseStructure@BV32TriangleMeshBuilder@physx@@SAXPAVBV32Tree@Gu@2@AAVPxOutputStream@2@_N@Z 100192e0 f   TriangleMeshBuilder.obj
 0001:00018a30       ?findSharpVertices@GrbTrimeshCookerHelper@physx@@YAXAAV?$Array@USortedNeighbor@GrbTrimeshCookerHelper@physx@@VNamedAllocator@shdfnd@3@@shdfnd@2@AAV?$Array@USharpEdgeRange@GrbTrimeshCookerHelper@physx@@VNamedAllocator@shdfnd@3@@42@PBUuint3@2@PBUuint4@2@II@Z 10019a30 f   TriangleMeshBuilder.obj
 0001:00018dc0       ?buildVertexConnectionNew_p1@GrbTrimeshCookerHelper@physx@@YAIAAV?$Array@USortedNeighbor@GrbTrimeshCookerHelper@physx@@VNamedAllocator@shdfnd@3@@shdfnd@2@AAV?$Array@USharpEdgeRange@GrbTrimeshCookerHelper@physx@@VNamedAllocator@shdfnd@3@@42@PBUuint3@2@PBUuint4@2@II@Z 10019dc0 f   TriangleMeshBuilder.obj
 0001:00018e30       ?buildVertexConnectionNew_p2@GrbTrimeshCookerHelper@physx@@YAXPAI00AAV?$Array@USortedNeighbor@GrbTrimeshCookerHelper@physx@@VNamedAllocator@shdfnd@3@@shdfnd@2@AAV?$Array@USharpEdgeRange@GrbTrimeshCookerHelper@physx@@VNamedAllocator@shdfnd@3@@42@I@Z 10019e30 f   TriangleMeshBuilder.obj
 0001:00018ed0       ??$?2V?$ReflectionAllocator@VBV32Tree@Gu@physx@@@shdfnd@physx@@@UserAllocated@shdfnd@physx@@SAPAXIV?$ReflectionAllocator@VBV32Tree@Gu@physx@@@12@PBDH@Z 10019ed0 f i TriangleMeshBuilder.obj
 0001:00018ef0       ??$?2V?$ReflectionAllocator@VEdgeListBuilder@Gu@physx@@@shdfnd@physx@@@UserAllocated@shdfnd@physx@@SAPAXIV?$ReflectionAllocator@VEdgeListBuilder@Gu@physx@@@12@PBDH@Z 10019ef0 f i TriangleMeshBuilder.obj
 0001:00018f10       ??$?_UE@@YAPAXIV?$ReflectionAllocator@E@shdfnd@physx@@PBDH@Z 10019f10 f i TriangleMeshBuilder.obj
 0001:00018f30       ??$?_UG@@YAPAXIV?$ReflectionAllocator@G@shdfnd@physx@@PBDH@Z 10019f30 f i TriangleMeshBuilder.obj
 0001:00018f50       ??$PX_UNUSED@U?$TriangleT@I@Gu@physx@@@@YAXABU?$TriangleT@I@Gu@physx@@@Z 10019f50 f i TriangleMeshBuilder.obj
 0001:00018f60       ??$median3@UEdgeTriLookup@physx@@$$CBU?$Less@UEdgeTriLookup@physx@@@shdfnd@2@@internal@shdfnd@physx@@YAXPAUEdgeTriLookup@2@HHABU?$Less@UEdgeTriLookup@physx@@@12@@Z 10019f60 f i TriangleMeshBuilder.obj
 0001:00019040       ??$median3@USortedNeighbor@GrbTrimeshCookerHelper@physx@@$$CBU?$Less@USortedNeighbor@GrbTrimeshCookerHelper@physx@@@shdfnd@3@@internal@shdfnd@physx@@YAXPAUSortedNeighbor@GrbTrimeshCookerHelper@2@HHABU?$Less@USortedNeighbor@GrbTrimeshCookerHelper@physx@@@12@@Z 1001a040 f i TriangleMeshBuilder.obj
 0001:00019120       ??$partition@UEdgeTriLookup@physx@@$$CBU?$Less@UEdgeTriLookup@physx@@@shdfnd@2@@internal@shdfnd@physx@@YAHPAUEdgeTriLookup@2@HHABU?$Less@UEdgeTriLookup@physx@@@12@@Z 1001a120 f i TriangleMeshBuilder.obj
 0001:00019280       ??$partition@USortedNeighbor@GrbTrimeshCookerHelper@physx@@$$CBU?$Less@USortedNeighbor@GrbTrimeshCookerHelper@physx@@@shdfnd@3@@internal@shdfnd@physx@@YAHPAUSortedNeighbor@GrbTrimeshCookerHelper@2@HHABU?$Less@USortedNeighbor@GrbTrimeshCookerHelper@physx@@@12@@Z 1001a280 f i TriangleMeshBuilder.obj
 0001:000193e0       ??$smallSort@UEdgeTriLookup@physx@@$$CBU?$Less@UEdgeTriLookup@physx@@@shdfnd@2@@internal@shdfnd@physx@@YAXPAUEdgeTriLookup@2@HHABU?$Less@UEdgeTriLookup@physx@@@12@@Z 1001a3e0 f i TriangleMeshBuilder.obj
 0001:00019470       ??$smallSort@USortedNeighbor@GrbTrimeshCookerHelper@physx@@$$CBU?$Less@USortedNeighbor@GrbTrimeshCookerHelper@physx@@@shdfnd@3@@internal@shdfnd@physx@@YAXPAUSortedNeighbor@GrbTrimeshCookerHelper@2@HHABU?$Less@USortedNeighbor@GrbTrimeshCookerHelper@physx@@@12@@Z 1001a470 f i TriangleMeshBuilder.obj
 0001:00019500       ??$sort@UEdgeTriLookup@physx@@@shdfnd@physx@@YAXPAUEdgeTriLookup@1@I@Z 1001a500 f i TriangleMeshBuilder.obj
 0001:00019540       ??$sort@UEdgeTriLookup@physx@@U?$Less@UEdgeTriLookup@physx@@@shdfnd@2@VNamedAllocator@42@@shdfnd@physx@@YAXPAUEdgeTriLookup@1@IABU?$Less@UEdgeTriLookup@physx@@@01@ABVNamedAllocator@01@I@Z 1001a540 f i TriangleMeshBuilder.obj
 0001:00019770       ??$sort@USortedNeighbor@GrbTrimeshCookerHelper@physx@@@shdfnd@physx@@YAXPAUSortedNeighbor@GrbTrimeshCookerHelper@1@I@Z 1001a770 f i TriangleMeshBuilder.obj
 0001:000197b0       ??$sort@USortedNeighbor@GrbTrimeshCookerHelper@physx@@U?$Less@USortedNeighbor@GrbTrimeshCookerHelper@physx@@@shdfnd@3@VNamedAllocator@53@@shdfnd@physx@@YAXPAUSortedNeighbor@GrbTrimeshCookerHelper@1@IABU?$Less@USortedNeighbor@GrbTrimeshCookerHelper@physx@@@01@ABVNamedAllocator@01@I@Z 1001a7b0 f i TriangleMeshBuilder.obj
 0001:000199e0       ??$swap@UEdgeTriLookup@physx@@@shdfnd@physx@@YAXAAUEdgeTriLookup@1@0@Z 1001a9e0 f i TriangleMeshBuilder.obj
 0001:00019a30       ??$swap@USortedNeighbor@GrbTrimeshCookerHelper@physx@@@shdfnd@physx@@YAXAAUSortedNeighbor@GrbTrimeshCookerHelper@1@0@Z 1001aa30 f i TriangleMeshBuilder.obj
 0001:00019a80       ??0?$Array@IVNamedAllocator@shdfnd@physx@@@shdfnd@physx@@QAE@ABVNamedAllocator@12@@Z 1001aa80 f i TriangleMeshBuilder.obj
 0001:00019ac0       ??0?$PxFlags@W4Enum@PxMeshFlag@physx@@G@physx@@QAE@W4Enum@PxMeshFlag@1@@Z 1001aac0 f i TriangleMeshBuilder.obj
 0001:00019ae0       ??0?$PxFlags@W4Enum@PxMeshFlag@physx@@G@physx@@QAE@XZ 1001aae0 f i TriangleMeshBuilder.obj
 0001:00019b00       ??0?$ReflectionAllocator@E@shdfnd@physx@@QAE@PBD@Z 1001ab00 f i TriangleMeshBuilder.obj
 0001:00019b10       ??0?$ReflectionAllocator@G@shdfnd@physx@@QAE@PBD@Z 1001ab10 f i TriangleMeshBuilder.obj
 0001:00019b20       ??0?$ReflectionAllocator@VBV32Tree@Gu@physx@@@shdfnd@physx@@QAE@PBD@Z 1001ab20 f i TriangleMeshBuilder.obj
 0001:00019b30       ??0?$ReflectionAllocator@VEdgeListBuilder@Gu@physx@@@shdfnd@physx@@QAE@PBD@Z 1001ab30 f i TriangleMeshBuilder.obj
 0001:00019b40       ??0BV4TriangleData@Gu@physx@@QAE@XZ 1001ab40 f i TriangleMeshBuilder.obj
 0001:00019b80       ??0MeshDataBase@Gu@physx@@QAE@XZ 1001ab80 f i TriangleMeshBuilder.obj
 0001:00019c00       ??0PxPlane@physx@@QAE@ABVPxVec3@1@0@Z 1001ac00 f i TriangleMeshBuilder.obj
 0001:00019c50       ??0PxSimpleTriangleMesh@physx@@QAE@ABV01@@Z 1001ac50 f i TriangleMeshBuilder.obj
 0001:00019cb0       ??0PxTriangleMeshDesc@physx@@QAE@ABV01@@Z 1001acb0 f i TriangleMeshBuilder.obj
 0001:00019ce0       ??0RTree@Gu@physx@@QAE@XZ  1001ace0 f i TriangleMeshBuilder.obj
 0001:00019d50       ??0RTreeCookerRemap@physx@@QAE@I@Z 1001ad50 f i TriangleMeshBuilder.obj
 0001:00019d80       ??0RTreeTriangleData@Gu@physx@@QAE@XZ 1001ad80 f i TriangleMeshBuilder.obj
 0001:00019dc0       ??0RemapCallback@RTreeCooker@physx@@QAE@XZ 1001adc0 f i TriangleMeshBuilder.obj
 0001:00019de0       ??0SharpEdgeRange@GrbTrimeshCookerHelper@physx@@QAE@II@Z 1001ade0 f i TriangleMeshBuilder.obj
 0001:00019e10       ??0SharpEdgeRange@GrbTrimeshCookerHelper@physx@@QAE@XZ 1001ae10 f i TriangleMeshBuilder.obj
 0001:00019e40       ??0SortedNeighbor@GrbTrimeshCookerHelper@physx@@QAE@II_N@Z 1001ae40 f i TriangleMeshBuilder.obj
 0001:00019e70       ??0TriangleMeshData@Gu@physx@@QAE@XZ 1001ae70 f i TriangleMeshBuilder.obj
 0001:00019ed0       ??1BV4TriangleData@Gu@physx@@UAE@XZ 1001aed0 f i TriangleMeshBuilder.obj
 0001:00019f10       ??1MeshDataBase@Gu@physx@@UAE@XZ 1001af10 f i TriangleMeshBuilder.obj
 0001:0001a020       ??1RTree@Gu@physx@@QAE@XZ  1001b020 f i TriangleMeshBuilder.obj
 0001:0001a040       ??1RTreeCookerRemap@physx@@UAE@XZ 1001b040 f i TriangleMeshBuilder.obj
 0001:0001a060       ??1RTreeTriangleData@Gu@physx@@UAE@XZ 1001b060 f i TriangleMeshBuilder.obj
 0001:0001a090       ??1RemapCallback@RTreeCooker@physx@@UAE@XZ 1001b090 f i TriangleMeshBuilder.obj
 0001:0001a0b0       ??1TriangleMeshData@Gu@physx@@UAE@XZ 1001b0b0 f i TriangleMeshBuilder.obj
 0001:0001a190       ??A?$Array@USharpEdgeRange@GrbTrimeshCookerHelper@physx@@VNamedAllocator@shdfnd@3@@shdfnd@physx@@QAEAAUSharpEdgeRange@GrbTrimeshCookerHelper@2@I@Z 1001b190 f i TriangleMeshBuilder.obj
 0001:0001a1f0       ??A?$Array@USortedNeighbor@GrbTrimeshCookerHelper@physx@@VNamedAllocator@shdfnd@3@@shdfnd@physx@@QAEAAUSortedNeighbor@GrbTrimeshCookerHelper@2@I@Z 1001b1f0 f i TriangleMeshBuilder.obj
 0001:0001a250       ??MEdgeTriLookup@physx@@QBE_NABU01@@Z 1001b250 f i TriangleMeshBuilder.obj
 0001:0001a2a0       ??MSortedNeighbor@GrbTrimeshCookerHelper@physx@@QBE_NABU012@@Z 1001b2a0 f i TriangleMeshBuilder.obj
 0001:0001a320       ??NEdgeTriLookup@physx@@QBE_NABU01@@Z 1001b320 f i TriangleMeshBuilder.obj
 0001:0001a370       ??R?$Less@UEdgeTriLookup@physx@@@shdfnd@physx@@QBE_NABUEdgeTriLookup@2@0@Z 1001b370 f i TriangleMeshBuilder.obj
 0001:0001a390       ??R?$Less@USortedNeighbor@GrbTrimeshCookerHelper@physx@@@shdfnd@physx@@QBE_NABUSortedNeighbor@GrbTrimeshCookerHelper@2@0@Z 1001b390 f i TriangleMeshBuilder.obj
 0001:0001a3b0       ??S?$PxFlags@W4Enum@PxMeshFlag@physx@@G@physx@@QBE?AV01@XZ 1001b3b0 f i TriangleMeshBuilder.obj
 0001:0001a3f0       ??Sphysx@@YA?AV?$PxFlags@W4Enum@PxMeshFlag@physx@@G@0@W4Enum@PxMeshFlag@0@@Z 1001b3f0 f i TriangleMeshBuilder.obj
 0001:0001a420       ??_4?$PxFlags@W4Enum@PxMeshFlag@physx@@G@physx@@QAEAAV01@ABV01@@Z 1001b420 f i TriangleMeshBuilder.obj
 0001:0001a450       ??_GBV32Tree@Gu@physx@@QAEPAXI@Z 1001b450 f i TriangleMeshBuilder.obj
 0001:0001a4a0       ??_GBV4TriangleData@Gu@physx@@UAEPAXI@Z 1001b4a0 f i TriangleMeshBuilder.obj
 0001:0001a4a0       ??_EBV4TriangleData@Gu@physx@@UAEPAXI@Z 1001b4a0 f i TriangleMeshBuilder.obj
 0001:0001a4f0       ??_EBV4TriangleMeshBuilder@physx@@UAEPAXI@Z 1001b4f0 f i TriangleMeshBuilder.obj
 0001:0001a4f0       ??_GBV4TriangleMeshBuilder@physx@@UAEPAXI@Z 1001b4f0 f i TriangleMeshBuilder.obj
 0001:0001a530       ??_GEdgeListBuilder@Gu@physx@@QAEPAXI@Z 1001b530 f i TriangleMeshBuilder.obj
 0001:0001a580       ??_GMeshDataBase@Gu@physx@@UAEPAXI@Z 1001b580 f i TriangleMeshBuilder.obj
 0001:0001a580       ??_EMeshDataBase@Gu@physx@@UAEPAXI@Z 1001b580 f i TriangleMeshBuilder.obj
 0001:0001a5d0       ??_GRTreeCookerRemap@physx@@UAEPAXI@Z 1001b5d0 f i TriangleMeshBuilder.obj
 0001:0001a5d0       ??_ERTreeCookerRemap@physx@@UAEPAXI@Z 1001b5d0 f i TriangleMeshBuilder.obj
 0001:0001a600       ??_GRTreeTriangleData@Gu@physx@@UAEPAXI@Z 1001b600 f i TriangleMeshBuilder.obj
 0001:0001a600       ??_ERTreeTriangleData@Gu@physx@@UAEPAXI@Z 1001b600 f i TriangleMeshBuilder.obj
 0001:0001a650       ??_ERTreeTriangleMeshBuilder@physx@@UAEPAXI@Z 1001b650 f i TriangleMeshBuilder.obj
 0001:0001a650       ??_GRTreeTriangleMeshBuilder@physx@@UAEPAXI@Z 1001b650 f i TriangleMeshBuilder.obj
 0001:0001a690       ??_GRemapCallback@RTreeCooker@physx@@UAEPAXI@Z 1001b690 f i TriangleMeshBuilder.obj
 0001:0001a690       ??_ERemapCallback@RTreeCooker@physx@@UAEPAXI@Z 1001b690 f i TriangleMeshBuilder.obj
 0001:0001a6c0       ??_GTriangleMeshBuilder@physx@@UAEPAXI@Z 1001b6c0 f i TriangleMeshBuilder.obj
 0001:0001a6c0       ??_ETriangleMeshBuilder@physx@@UAEPAXI@Z 1001b6c0 f i TriangleMeshBuilder.obj
 0001:0001a6f0       ??_ETriangleMeshData@Gu@physx@@UAEPAXI@Z 1001b6f0 f i TriangleMeshBuilder.obj
 0001:0001a6f0       ??_GTriangleMeshData@Gu@physx@@UAEPAXI@Z 1001b6f0 f i TriangleMeshBuilder.obj
 0001:0001a740       ?LeafSetData@Gu@physx@@YAIII@Z 1001b740 f i TriangleMeshBuilder.obj
 0001:0001a7e0       ?SetData@LeafTriangles@Gu@physx@@QAEXII@Z 1001b7e0 f i TriangleMeshBuilder.obj
 0001:0001a810       ?WriteDwordBuffer@physx@@YAXPBII_NAAVPxOutputStream@1@@Z 1001b810 f i TriangleMeshBuilder.obj
 0001:0001a830       ?allocate@?$Array@USharpEdgeRange@GrbTrimeshCookerHelper@physx@@VNamedAllocator@shdfnd@3@@shdfnd@physx@@IAEPAUSharpEdgeRange@GrbTrimeshCookerHelper@3@I@Z 1001b830 f i TriangleMeshBuilder.obj
 0001:0001a8a0       ?allocate@?$Array@USortedNeighbor@GrbTrimeshCookerHelper@physx@@VNamedAllocator@shdfnd@3@@shdfnd@physx@@IAEPAUSortedNeighbor@GrbTrimeshCookerHelper@3@I@Z 1001b8a0 f i TriangleMeshBuilder.obj
 0001:0001a910       ?allocate@?$ReflectionAllocator@E@shdfnd@physx@@QAEPAXIPBDH@Z 1001b910 f i TriangleMeshBuilder.obj
 0001:0001a960       ?allocate@?$ReflectionAllocator@G@shdfnd@physx@@QAEPAXIPBDH@Z 1001b960 f i TriangleMeshBuilder.obj
 0001:0001a9b0       ?allocate@?$ReflectionAllocator@VBV32Tree@Gu@physx@@@shdfnd@physx@@QAEPAXIPBDH@Z 1001b9b0 f i TriangleMeshBuilder.obj
 0001:0001aa00       ?allocate@?$ReflectionAllocator@VEdgeListBuilder@Gu@physx@@@shdfnd@physx@@QAEPAXIPBDH@Z 1001ba00 f i TriangleMeshBuilder.obj
 0001:0001aa50       ?allocateMaterials@TriangleMeshData@Gu@physx@@QAEPAGXZ 1001ba50 f i TriangleMeshBuilder.obj
 0001:0001ab30       ?allocateTriangles@TriangleMeshData@Gu@physx@@QAEPAXI_NI@Z 1001bb30 f i TriangleMeshBuilder.obj
 0001:0001acb0       ?allocateVertices@MeshDataBase@Gu@physx@@QAEPAVPxVec3@3@I@Z 1001bcb0 f i TriangleMeshBuilder.obj
 0001:0001ad50       ?begin@?$Array@USortedNeighbor@GrbTrimeshCookerHelper@physx@@VNamedAllocator@shdfnd@3@@shdfnd@physx@@QAEPAUSortedNeighbor@GrbTrimeshCookerHelper@3@XZ 1001bd50 f i TriangleMeshBuilder.obj
 0001:0001ad60       ?capacity@?$Array@USharpEdgeRange@GrbTrimeshCookerHelper@physx@@VNamedAllocator@shdfnd@3@@shdfnd@physx@@QBEIXZ 1001bd60 f i TriangleMeshBuilder.obj
 0001:0001ad80       ?capacity@?$Array@USortedNeighbor@GrbTrimeshCookerHelper@physx@@VNamedAllocator@shdfnd@3@@shdfnd@physx@@QBEIXZ 1001bd80 f i TriangleMeshBuilder.obj
 0001:0001ada0       ?capacityIncrement@?$Array@USortedNeighbor@GrbTrimeshCookerHelper@physx@@VNamedAllocator@shdfnd@3@@shdfnd@physx@@IBEIXZ 1001bda0 f i TriangleMeshBuilder.obj
 0001:0001ade0       ?copy@?$Array@USharpEdgeRange@GrbTrimeshCookerHelper@physx@@VNamedAllocator@shdfnd@3@@shdfnd@physx@@KAXPAUSharpEdgeRange@GrbTrimeshCookerHelper@3@0PBU453@@Z 1001bde0 f i TriangleMeshBuilder.obj
 0001:0001ae40       ?copy@?$Array@USortedNeighbor@GrbTrimeshCookerHelper@physx@@VNamedAllocator@shdfnd@3@@shdfnd@physx@@KAXPAUSortedNeighbor@GrbTrimeshCookerHelper@3@0PBU453@@Z 1001be40 f i TriangleMeshBuilder.obj
 0001:0001aea0       ?create@?$Array@USharpEdgeRange@GrbTrimeshCookerHelper@physx@@VNamedAllocator@shdfnd@3@@shdfnd@physx@@KAXPAUSharpEdgeRange@GrbTrimeshCookerHelper@3@0ABU453@@Z 1001bea0 f i TriangleMeshBuilder.obj
 0001:0001aee0       ?deallocate@?$AlignedAllocator@$0IA@VNonTrackingAllocator@shdfnd@physx@@@shdfnd@physx@@QAEXPAX@Z 1001bee0 f i TriangleMeshBuilder.obj
 0001:0001af20       ?deallocate@?$Array@USharpEdgeRange@GrbTrimeshCookerHelper@physx@@VNamedAllocator@shdfnd@3@@shdfnd@physx@@IAEXPAX@Z 1001bf20 f i TriangleMeshBuilder.obj
 0001:0001af40       ?deallocate@?$Array@USortedNeighbor@GrbTrimeshCookerHelper@physx@@VNamedAllocator@shdfnd@3@@shdfnd@physx@@IAEXPAX@Z 1001bf40 f i TriangleMeshBuilder.obj
 0001:0001af60       ?destroy@?$Array@USharpEdgeRange@GrbTrimeshCookerHelper@physx@@VNamedAllocator@shdfnd@3@@shdfnd@physx@@KAXPAUSharpEdgeRange@GrbTrimeshCookerHelper@3@0@Z 1001bf60 f i TriangleMeshBuilder.obj
 0001:0001af80       ?destroy@?$Array@USortedNeighbor@GrbTrimeshCookerHelper@physx@@VNamedAllocator@shdfnd@3@@shdfnd@physx@@KAXPAUSortedNeighbor@GrbTrimeshCookerHelper@3@0@Z 1001bf80 f i TriangleMeshBuilder.obj
 0001:0001afa0       ?findEdgeCCW@?$TriangleT@I@Gu@physx@@QBEEII@Z 1001bfa0 f i TriangleMeshBuilder.obj
 0001:0001b0c0       ?getMidphaseID@BV4TriangleMeshBuilder@physx@@UBE?AW4Enum@PxMeshMidPhase@2@XZ 1001c0c0 f i TriangleMeshBuilder.obj
 0001:0001b0d0       ?getMidphaseID@RTreeTriangleMeshBuilder@physx@@UBE?AW4Enum@PxMeshMidPhase@2@XZ 1001c0d0 f i TriangleMeshBuilder.obj
 0001:0001b0e0       ?getName@?$ReflectionAllocator@E@shdfnd@physx@@CAPBDXZ 1001c0e0 f i TriangleMeshBuilder.obj
 0001:0001b120       ?getName@?$ReflectionAllocator@G@shdfnd@physx@@CAPBDXZ 1001c120 f i TriangleMeshBuilder.obj
 0001:0001b160       ?getName@?$ReflectionAllocator@VBV32Tree@Gu@physx@@@shdfnd@physx@@CAPBDXZ 1001c160 f i TriangleMeshBuilder.obj
 0001:0001b1a0       ?getName@?$ReflectionAllocator@VEdgeListBuilder@Gu@physx@@@shdfnd@physx@@CAPBDXZ 1001c1a0 f i TriangleMeshBuilder.obj
 0001:0001b1e0       ?getNbFaces@EdgeList@Gu@physx@@QBEIXZ 1001c1e0 f i TriangleMeshBuilder.obj
 0001:0001b200       ?getRemap@SourceMeshBase@Gu@physx@@QBEPBIXZ 1001c200 f i TriangleMeshBuilder.obj
 0001:0001b220       ?grow@?$Array@USharpEdgeRange@GrbTrimeshCookerHelper@physx@@VNamedAllocator@shdfnd@3@@shdfnd@physx@@IAEXI@Z 1001c220 f i TriangleMeshBuilder.obj
 0001:0001b280       ?grow@?$Array@USortedNeighbor@GrbTrimeshCookerHelper@physx@@VNamedAllocator@shdfnd@3@@shdfnd@physx@@IAEXI@Z 1001c280 f i TriangleMeshBuilder.obj
 0001:0001b2e0       ?growAndPushBack@?$Array@USortedNeighbor@GrbTrimeshCookerHelper@physx@@VNamedAllocator@shdfnd@3@@shdfnd@physx@@IAEAAUSortedNeighbor@GrbTrimeshCookerHelper@3@ABU453@@Z 1001c2e0 f i TriangleMeshBuilder.obj
 0001:0001b410       ?has16BitIndices@MeshDataBase@Gu@physx@@QBE_NXZ 1001c410 f i TriangleMeshBuilder.obj
 0001:0001b440       ?initRemap@SourceMeshBase@Gu@physx@@QAEXXZ 1001c440 f i TriangleMeshBuilder.obj
 0001:0001b460       ?isInUserMemory@?$Array@USharpEdgeRange@GrbTrimeshCookerHelper@physx@@VNamedAllocator@shdfnd@3@@shdfnd@physx@@QBEIXZ 1001c460 f i TriangleMeshBuilder.obj
 0001:0001b480       ?isInUserMemory@?$Array@USortedNeighbor@GrbTrimeshCookerHelper@physx@@VNamedAllocator@shdfnd@3@@shdfnd@physx@@QBEIXZ 1001c480 f i TriangleMeshBuilder.obj
 0001:0001b4a0       ?isValid@PxBVH33MidphaseDesc@physx@@QBE_NXZ 1001c4a0 f i TriangleMeshBuilder.obj
 0001:0001b4d0       ?isValid@PxBVH34MidphaseDesc@physx@@QBE_NXZ 1001c4d0 f i TriangleMeshBuilder.obj
 0001:0001b500       ?isValid@PxMidphaseDesc@physx@@QBE_NXZ 1001c500 f i TriangleMeshBuilder.obj
 0001:0001b540       ?onMeshIndexFormatChange@TriangleMeshBuilder@physx@@UAEXXZ 1001c540 f i TriangleMeshBuilder.obj
 0001:0001b550       ?pushBack@?$Array@USortedNeighbor@GrbTrimeshCookerHelper@physx@@VNamedAllocator@shdfnd@3@@shdfnd@physx@@QAEAAUSortedNeighbor@GrbTrimeshCookerHelper@3@ABU453@@Z 1001c550 f i TriangleMeshBuilder.obj
 0001:0001b5d0       ?recreate@?$Array@USharpEdgeRange@GrbTrimeshCookerHelper@physx@@VNamedAllocator@shdfnd@3@@shdfnd@physx@@IAEXI@Z 1001c5d0 f i TriangleMeshBuilder.obj
 0001:0001b6a0       ?recreate@?$Array@USortedNeighbor@GrbTrimeshCookerHelper@physx@@VNamedAllocator@shdfnd@3@@shdfnd@physx@@IAEXI@Z 1001c6a0 f i TriangleMeshBuilder.obj
 0001:0001b770       ?release@RTree@Gu@physx@@QAEXXZ 1001c770 f i TriangleMeshBuilder.obj
 0001:0001b7c0       ?releaseRemap@SourceMeshBase@Gu@physx@@QAEXXZ 1001c7c0 f i TriangleMeshBuilder.obj
 0001:0001b7f0       ?remap@RTreeCookerRemap@physx@@UAEXPAIII@Z 1001c7f0 f i TriangleMeshBuilder.obj
 0001:0001b950       ?reserve@?$Array@USharpEdgeRange@GrbTrimeshCookerHelper@physx@@VNamedAllocator@shdfnd@3@@shdfnd@physx@@QAEXI@Z 1001c950 f i TriangleMeshBuilder.obj
 0001:0001b980       ?reserve@?$Array@USortedNeighbor@GrbTrimeshCookerHelper@physx@@VNamedAllocator@shdfnd@3@@shdfnd@physx@@QAEXI@Z 1001c980 f i TriangleMeshBuilder.obj
 0001:0001b9b0       ?resize@?$Array@USharpEdgeRange@GrbTrimeshCookerHelper@physx@@VNamedAllocator@shdfnd@3@@shdfnd@physx@@QAEXIABUSharpEdgeRange@GrbTrimeshCookerHelper@3@@Z 1001c9b0 f i TriangleMeshBuilder.obj
 0001:0001ba20       ?resizeUninitialized@?$Array@USortedNeighbor@GrbTrimeshCookerHelper@physx@@VNamedAllocator@shdfnd@3@@shdfnd@physx@@QAEXI@Z 1001ca20 f i TriangleMeshBuilder.obj
 0001:0001ba50       ?setNbTriangles@SourceMesh@Gu@physx@@QAEXI@Z 1001ca50 f i TriangleMeshBuilder.obj
 0001:0001ba70       ?setNbVertices@SourceMeshBase@Gu@physx@@QAEXI@Z 1001ca70 f i TriangleMeshBuilder.obj
 0001:0001ba90       ?setPointers@SourceMesh@Gu@physx@@QAEXPAVIndTri32@23@PAVIndTri16@23@PBVPxVec3@3@@Z 1001ca90 f i TriangleMeshBuilder.obj
 0001:0001bac0       ?setTriangleAdjacency@TriangleMeshData@Gu@physx@@QAEXIII@Z 1001cac0 f i TriangleMeshBuilder.obj
 0001:0001bb20       ?size@?$Array@USortedNeighbor@GrbTrimeshCookerHelper@physx@@VNamedAllocator@shdfnd@3@@shdfnd@physx@@QBEIXZ 1001cb20 f i TriangleMeshBuilder.obj
 0001:0001bb40       ?to16@shdfnd@physx@@YAGI@Z 1001cb40 f i TriangleMeshBuilder.obj
 0001:0001bb90       ?writeChunk@physx@@YAXCCCCAAVPxOutputStream@1@@Z 1001cb90 f i TriangleMeshBuilder.obj
 0001:0001bbe0       ?writeIntBuffer@physx@@YAXPBII_NAAVPxOutputStream@1@@Z 1001cbe0 f i TriangleMeshBuilder.obj
 0001:0001bc00       ??0BigConvexDataBuilder@physx@@QAE@PBUConvexHullData@Gu@1@PAVBigConvexData@1@PBVPxVec3@1@@Z 1001cc00 f   BigConvexDataBuilder.obj
 0001:0001bc30       ??1BigConvexDataBuilder@physx@@QAE@XZ 1001cc30 f   BigConvexDataBuilder.obj
 0001:0001bc40       ?precompute@BigConvexDataBuilder@physx@@QAE_NI@Z 1001cc40 f   BigConvexDataBuilder.obj
 0001:0001c210       ?initialize@BigConvexDataBuilder@physx@@QAE_NXZ 1001d210 f   BigConvexDataBuilder.obj
 0001:0001c260       ?save@BigConvexDataBuilder@physx@@QBE_NAAVPxOutputStream@2@_N@Z 1001d260 f   BigConvexDataBuilder.obj
 0001:0001c340       ?computeValencies@BigConvexDataBuilder@physx@@QAE_NABVConvexHullBuilder@2@@Z 1001d340 f   BigConvexDataBuilder.obj
 0001:0001c8d0       ?saveValencies@BigConvexDataBuilder@physx@@QBE_NAAVPxOutputStream@2@_N@Z 1001d8d0 f   BigConvexDataBuilder.obj
 0001:0001ca60       ??0BigConvexData@physx@@QAE@W4PxEMPTY@1@@Z 1001da60 f i BigConvexDataBuilder.obj
 0001:0001ca70       ??4BigConvexData@physx@@QAEAAV01@ABV01@@Z 1001da70 f i BigConvexDataBuilder.obj
 0001:0001caa0       ?GetAdjacentVerts@BigConvexData@physx@@QBEPBEXZ 1001daa0 f i BigConvexDataBuilder.obj
 0001:0001cac0       ?GetNbNeighbors@BigConvexData@physx@@QBEGI@Z 1001dac0 f i BigConvexDataBuilder.obj
 0001:0001cae0       ?GetNbSamples@BigConvexData@physx@@QBEIXZ 1001dae0 f i BigConvexDataBuilder.obj
 0001:0001cb00       ?GetNbVerts@BigConvexData@physx@@QBEIXZ 1001db00 f i BigConvexDataBuilder.obj
 0001:0001cb20       ?GetNeighbors@BigConvexData@physx@@QBEPBEI@Z 1001db20 f i BigConvexDataBuilder.obj
 0001:0001cb50       ?GetOffset@BigConvexData@physx@@QBEGI@Z 1001db50 f i BigConvexDataBuilder.obj
 0001:0001cb70       ?GetSubdiv@BigConvexData@physx@@QBEIXZ 1001db70 f i BigConvexDataBuilder.obj
 0001:0001cb90       ?GetValencies@BigConvexData@physx@@QBEPBUValency@Gu@2@XZ 1001db90 f i BigConvexDataBuilder.obj
 0001:0001cbb0       ?GetValency@BigConvexData@physx@@QBEGI@Z 1001dbb0 f i BigConvexDataBuilder.obj
 0001:0001cbd0       ?precomputeSample@BigConvexDataBuilder@physx@@IAEXABVPxVec3@2@AAEM@Z 1001dbd0 f i BigConvexDataBuilder.obj
 0001:0001ce30       ??0ConvexHullBuilder@physx@@QAE@PAUConvexHullData@Gu@1@_N@Z 1001de30 f   ConvexHullBuilder.obj
 0001:0001cea0       ??1ConvexHullBuilder@physx@@QAE@XZ 1001dea0 f   ConvexHullBuilder.obj
 0001:0001cfa0       ?init@ConvexHullBuilder@physx@@QAE_NIPBVPxVec3@2@PBIIIPBUPxHullPolygon@2@_NPAVConvexHullLib@2@@Z 1001dfa0 f   ConvexHullBuilder.obj
 0001:0001d550       ?save@ConvexHullBuilder@physx@@QBE_NAAVPxOutputStream@2@_N@Z 1001e550 f   ConvexHullBuilder.obj
 0001:0001d7e0       ?copy@ConvexHullBuilder@physx@@QAE_NAAUConvexHullData@Gu@2@AAI@Z 1001e7e0 f   ConvexHullBuilder.obj
 0001:0001dcc0       ?createEdgeList@ConvexHullBuilder@physx@@QAE_N_NI@Z 1001ecc0 f   ConvexHullBuilder.obj
 0001:0001e6a0       ?checkHullPolygons@ConvexHullBuilder@physx@@QBE_NXZ 1001f6a0 f   ConvexHullBuilder.obj
 0001:0001ee50       ?calculateVertexMapTable@ConvexHullBuilder@physx@@QAE_NI_N@Z 1001fe50 f   ConvexHullBuilder.obj
 0001:0001f060       ?computeGeomCenter@ConvexHullBuilder@physx@@IBE_NAAVPxVec3@2@IPAUHullTriangleData@2@@Z 10020060 f   ConvexHullBuilder.obj
 0001:0001f190       ??$?_UUEdgeDescData@Gu@physx@@@@YAPAXIV?$ReflectionAllocator@UEdgeDescData@Gu@physx@@@shdfnd@physx@@PBDH@Z 10020190 f i ConvexHullBuilder.obj
 0001:0001f1b0       ??$?_U_N@@YAPAXIV?$ReflectionAllocator@_N@shdfnd@physx@@PBDH@Z 100201b0 f i ConvexHullBuilder.obj
 0001:0001f1d0       ??0?$PxBitAndDataT@G$0IAAA@@physx@@QAE@G_N@Z 100201d0 f i ConvexHullBuilder.obj
 0001:0001f210       ??0?$ReflectionAllocator@UEdgeDescData@Gu@physx@@@shdfnd@physx@@QAE@PBD@Z 10020210 f i ConvexHullBuilder.obj
 0001:0001f220       ??0?$ReflectionAllocator@_N@shdfnd@physx@@QAE@PBD@Z 10020220 f i ConvexHullBuilder.obj
 0001:0001f230       ??0?$TriangleT@I@Gu@physx@@QAE@III@Z 10020230 f i ConvexHullBuilder.obj
 0001:0001f280       ??0HullPolygonData@Gu@physx@@QAE@ABU012@@Z 10020280 f i ConvexHullBuilder.obj
 0001:0001f2d0       ??0PxPlane@physx@@QAE@ABV01@@Z 100202d0 f i ConvexHullBuilder.obj
 0001:0001f300       ??0PxPlane@physx@@QAE@MMMM@Z 10020300 f i ConvexHullBuilder.obj
 0001:0001f350       ??4PxPlane@physx@@QAEAAV01@$$QAV01@@Z 10020350 f i ConvexHullBuilder.obj
 0001:0001f380       ?PxMemSet@physx@@YAPAXPAXHI@Z 10020380 f i ConvexHullBuilder.obj
 0001:0001f3a0       ?allocate@?$ReflectionAllocator@UEdgeDescData@Gu@physx@@@shdfnd@physx@@QAEPAXIPBDH@Z 100203a0 f i ConvexHullBuilder.obj
 0001:0001f3f0       ?allocate@?$ReflectionAllocator@_N@shdfnd@physx@@QAEPAXIPBDH@Z 100203f0 f i ConvexHullBuilder.obj
 0001:0001f440       ?area@?$TriangleT@I@Gu@physx@@QBEMPBVPxVec3@3@@Z 10020440 f i ConvexHullBuilder.obj
 0001:0001f4e0       ?center@?$TriangleT@I@Gu@physx@@QBEXPBVPxVec3@3@AAV43@@Z 100204e0 f i ConvexHullBuilder.obj
 0001:0001f570       ?computeBufferSize@Gu@physx@@YAIABUConvexHullData@12@I@Z 10020570 f i ConvexHullBuilder.obj
 0001:0001f630       ?computeNbPolygons@ConvexHullBuilder@physx@@QBEIXZ 10020630 f i ConvexHullBuilder.obj
 0001:0001f690       ?flip@physx@@YAXAAG@Z      10020690 f i ConvexHullBuilder.obj
 0001:0001f6e0       ?flip@physx@@YAXAAM@Z      100206e0 f i ConvexHullBuilder.obj
 0001:0001f770       ?flipData@Gu@physx@@YAXAAUHullPolygonData@12@@Z 10020770 f i ConvexHullBuilder.obj
 0001:0001f7c0       ?getName@?$ReflectionAllocator@UEdgeDescData@Gu@physx@@@shdfnd@physx@@CAPBDXZ 100207c0 f i ConvexHullBuilder.obj
 0001:0001f800       ?getName@?$ReflectionAllocator@_N@shdfnd@physx@@CAPBDXZ 10020800 f i ConvexHullBuilder.obj
 0001:0001f840       ?memSet@intrinsics@physx@@YAPAXPAXHI@Z 10020840 f i ConvexHullBuilder.obj
 0001:0001f860       ?to8@shdfnd@physx@@YAEI@Z  10020860 f i ConvexHullBuilder.obj
 0001:0001f8b0       ??1ConvexHullLib@physx@@UAE@XZ 100208b0 f   ConvexHullLib.obj
 0001:0001f910       ?cleanupVertices@ConvexHullLib@physx@@IAE_NIPBVPxVec3@2@IAAIPAV32@AAV32@3@Z 10020910 f   ConvexHullLib.obj
 0001:0001fd90       ?shiftAndcleanupVertices@ConvexHullLib@physx@@IAE_NIPBVPxVec3@2@IAAIPAV32@AAV32@3@Z 10020d90 f   ConvexHullLib.obj
 0001:0001feb0       ?swapLargestFace@ConvexHullLib@physx@@IAEXAAVPxConvexMeshDesc@2@@Z 10020eb0 f   ConvexHullLib.obj
 0001:00020180       ?shiftConvexMeshDesc@ConvexHullLib@physx@@IAEXAAVPxConvexMeshDesc@2@@Z 10021180 f   ConvexHullLib.obj
 0001:00020740       ??_EConvexHullLib@physx@@UAEPAXI@Z 10021740 f i ConvexHullLib.obj
 0001:00020740       ??_GConvexHullLib@physx@@UAEPAXI@Z 10021740 f i ConvexHullLib.obj
 0001:00020770       ??0ConvexHull@physx@@QAE@ABVPxVec3@1@0ABV?$Array@VPxPlane@physx@@VNamedAllocator@shdfnd@2@@shdfnd@1@@Z 10021770 f   ConvexHullUtils.obj
 0001:00020e30       ??0ConvexHull@physx@@QAE@ABVPxVec3@1@ABVPxTransform@1@ABV?$Array@VPxPlane@physx@@VNamedAllocator@shdfnd@2@@shdfnd@1@@Z 10021e30 f   ConvexHullUtils.obj
 0001:00021650       ?findCandidatePlane@ConvexHull@physx@@QBEHMM@Z 10022650 f   ConvexHullUtils.obj
 0001:00021970       ?assertIntact@ConvexHull@physx@@QBE_NM@Z 10022970 f   ConvexHullUtils.obj
 0001:00021ef0       ?maxNumVertsPerFace@ConvexHull@physx@@QBEIXZ 10022ef0 f   ConvexHullUtils.obj
 0001:00021f90       ?convexHullCrop@physx@@YAPAVConvexHull@1@ABV21@ABVPxPlane@1@M@Z 10022f90 f   ConvexHullUtils.obj
 0001:00023060       ?computeOBBFromConvex@physx@@YA_NABVPxConvexMeshDesc@1@AAVPxVec3@1@AAVPxTransform@1@@Z 10024060 f   ConvexHullUtils.obj
 0001:00023760       ?computeOBBSIMD@local@@YAXIPBT__m128@@AAT2@ABT2@1@Z 10024760 f   ConvexHullUtils.obj
 0001:00023ae0       ??$?2V?$ReflectionAllocator@VConvexHull@physx@@@shdfnd@physx@@@UserAllocated@shdfnd@physx@@SAPAXIV?$ReflectionAllocator@VConvexHull@physx@@@12@PBDH@Z 10024ae0 f i ConvexHullUtils.obj
 0001:00023b00       ??0?$Array@VHalfEdge@ConvexHull@physx@@VNamedAllocator@shdfnd@3@@shdfnd@physx@@QAE@ABVNamedAllocator@12@@Z 10024b00 f i ConvexHullUtils.obj
 0001:00023b40       ??0?$Array@VPxPlane@physx@@VNamedAllocator@shdfnd@2@@shdfnd@physx@@QAE@ABVNamedAllocator@12@@Z 10024b40 f i ConvexHullUtils.obj
 0001:00023b80       ??0?$ReflectionAllocator@VConvexHull@physx@@@shdfnd@physx@@QAE@PBD@Z 10024b80 f i ConvexHullUtils.obj
 0001:00023b90       ??0Box@Gu@physx@@QAE@ABV012@@Z 10024b90 f i ConvexHullUtils.obj
 0001:00023bd0       ??0Box@Gu@physx@@QAE@ABVPxVec3@2@0ABVPxMat33@2@@Z 10024bd0 f i ConvexHullUtils.obj
 0001:00023c10       ??0Box@Gu@physx@@QAE@XZ    10024c10 f i ConvexHullUtils.obj
 0001:00023c40       ??0ConvexHull@physx@@QAE@ABV01@@Z 10024c40 f i ConvexHullUtils.obj
 0001:00023cd0       ??0ConvexHull@physx@@QAE@ABV?$Array@VPxPlane@physx@@VNamedAllocator@shdfnd@2@@shdfnd@1@@Z 10024cd0 f i ConvexHullUtils.obj
 0001:00023d50       ??0HalfEdge@ConvexHull@physx@@QAE@FEE@Z 10024d50 f i ConvexHullUtils.obj
 0001:00023d80       ??0HalfEdge@ConvexHull@physx@@QAE@XZ 10024d80 f i ConvexHullUtils.obj
 0001:00023d90       ??0Mat33V@aos@shdfnd@physx@@QAE@XZ 10024d90 f i ConvexHullUtils.obj
 0001:00023da0       ??0PxBoundedData@physx@@QAE@XZ 10024da0 f i ConvexHullUtils.obj
 0001:00023dc0       ??0PxConvexMeshDesc@physx@@QAE@XZ 10024dc0 f i ConvexHullUtils.obj
 0001:00023e10       ??0PxIntegrals@physx@@QAE@XZ 10024e10 f i ConvexHullUtils.obj
 0001:00023e30       ??0PxMat33@physx@@QAE@ABV01@@Z 10024e30 f i ConvexHullUtils.obj
 0001:00023e70       ??0PxMat33@physx@@QAE@ABVPxQuat@1@@Z 10024e70 f i ConvexHullUtils.obj
 0001:00024070       ??0PxMat33@physx@@QAE@ABVPxVec3@1@00@Z 10025070 f i ConvexHullUtils.obj
 0001:000240b0       ??0PxMat33@physx@@QAE@W4PxIDENTITY@1@@Z 100250b0 f i ConvexHullUtils.obj
 0001:00024150       ??0PxPlane@physx@@QAE@ABVPxVec3@1@M@Z 10025150 f i ConvexHullUtils.obj
 0001:00024180       ??0PxPlane@physx@@QAE@XZ   10025180 f i ConvexHullUtils.obj
 0001:000241a0       ??0PxQuat@physx@@QAE@ABV01@@Z 100251a0 f i ConvexHullUtils.obj
 0001:000241e0       ??0PxQuat@physx@@QAE@ABVPxMat33@1@@Z 100251e0 f i ConvexHullUtils.obj
 0001:00024530       ??0PxQuat@physx@@QAE@MABVPxVec3@1@@Z 10025530 f i ConvexHullUtils.obj
 0001:00024610       ??0PxQuat@physx@@QAE@MMMM@Z 10025610 f i ConvexHullUtils.obj
 0001:00024660       ??0PxQuat@physx@@QAE@XZ    10025660 f i ConvexHullUtils.obj
 0001:00024670       ??0PxStridedData@physx@@QAE@XZ 10025670 f i ConvexHullUtils.obj
 0001:000246a0       ??0PxTransform@physx@@QAE@ABVPxVec3@1@ABVPxQuat@1@@Z 100256a0 f i ConvexHullUtils.obj
 0001:000246f0       ??1Box@Gu@physx@@QAE@XZ    100256f0 f i ConvexHullUtils.obj
 0001:00024700       ??4Box@Gu@physx@@QAEABV012@ABV012@@Z 10025700 f i ConvexHullUtils.obj
 0001:00024740       ??4PxMat33@physx@@QAEAAV01@ABV01@@Z 10025740 f i ConvexHullUtils.obj
 0001:00024780       ??4PxPlane@physx@@QAEAAV01@ABV01@@Z 10025780 f i ConvexHullUtils.obj
 0001:000247b0       ??4PxQuat@physx@@QAEAAV01@ABV01@@Z 100257b0 f i ConvexHullUtils.obj
 0001:000247f0       ??8PxPlane@physx@@QBE_NABV01@@Z 100257f0 f i ConvexHullUtils.obj
 0001:00024840       ??8PxVec3@physx@@QBE_NABV01@@Z 10025840 f i ConvexHullUtils.obj
 0001:000248a0       ??A?$Array@VHalfEdge@ConvexHull@physx@@VNamedAllocator@shdfnd@3@@shdfnd@physx@@QAEAAVHalfEdge@ConvexHull@2@I@Z 100258a0 f i ConvexHullUtils.obj
 0001:00024900       ??A?$Array@VHalfEdge@ConvexHull@physx@@VNamedAllocator@shdfnd@3@@shdfnd@physx@@QBEABVHalfEdge@ConvexHull@2@I@Z 10025900 f i ConvexHullUtils.obj
 0001:00024960       ??A?$Array@VPxPlane@physx@@VNamedAllocator@shdfnd@2@@shdfnd@physx@@QBEABVPxPlane@2@I@Z 10025960 f i ConvexHullUtils.obj
 0001:000249c0       ??A?$Array@VPxVec3@physx@@VNamedAllocator@shdfnd@2@@shdfnd@physx@@QBEABVPxVec3@2@I@Z 100259c0 f i ConvexHullUtils.obj
 0001:00024a20       ??APxMat33@physx@@QAEAAVPxVec3@1@I@Z 10025a20 f i ConvexHullUtils.obj
 0001:00024a40       ??APxMat33@physx@@QBEABVPxVec3@1@I@Z 10025a40 f i ConvexHullUtils.obj
 0001:00024a60       ??DPxMat33@physx@@QBE?BVPxVec3@1@ABV21@@Z 10025a60 f i ConvexHullUtils.obj
 0001:00024a80       ??DPxQuat@physx@@QBE?AV01@M@Z 10025a80 f i ConvexHullUtils.obj
 0001:00024af0       ??GPxVec3@physx@@QBE?AV01@XZ 10025af0 f i ConvexHullUtils.obj
 0001:00024b50       ??RPxMat33@physx@@QAEAAMII@Z 10025b50 f i ConvexHullUtils.obj
 0001:00024b80       ?FAdd@aos@shdfnd@physx@@YA?AT__m128@@T4@0@Z 10025b80 f i ConvexHullUtils.obj
 0001:00024c40       ?FMul@aos@shdfnd@physx@@YA?AT__m128@@T4@0@Z 10025c40 f i ConvexHullUtils.obj
 0001:00024d00       ?FScaleAdd@aos@shdfnd@physx@@YA?AT__m128@@T4@00@Z 10025d00 f i ConvexHullUtils.obj
 0001:00024e20       ?PxCos@physx@@YAMM@Z       10025e20 f i ConvexHullUtils.obj
 0001:00024e40       ?PxSin@physx@@YAMM@Z       10025e40 f i ConvexHullUtils.obj
 0001:00024e60       ?QuatGetMat33V@aos@shdfnd@physx@@YAXABT__m128@@AAT4@11@Z 10025e60 f i ConvexHullUtils.obj
 0001:00025060       ?QuatRotateInv@aos@shdfnd@physx@@YA?AT__m128@@T4@0@Z 10026060 f i ConvexHullUtils.obj
 0001:000251e0       ?QuatVLoadU@aos@shdfnd@physx@@YA?AT__m128@@PBM@Z 100261e0 f i ConvexHullUtils.obj
 0001:00025220       ?V3Cross@aos@shdfnd@physx@@YA?AT__m128@@T4@0@Z 10026220 f i ConvexHullUtils.obj
 0001:00025380       ?V3NegScaleSub@aos@shdfnd@physx@@YA?AT__m128@@T4@00@Z 10026380 f i ConvexHullUtils.obj
 0001:000254a0       ?V3Scale@aos@shdfnd@physx@@YA?AT__m128@@T4@0@Z 100264a0 f i ConvexHullUtils.obj
 0001:00025560       ?V3ScaleAdd@aos@shdfnd@physx@@YA?AT__m128@@T4@00@Z 10026560 f i ConvexHullUtils.obj
 0001:00025680       ?V4GetW@aos@shdfnd@physx@@YA?AT__m128@@T4@@Z 10026680 f i ConvexHullUtils.obj
 0001:000256c0       ?V4GetX@aos@shdfnd@physx@@YA?AT__m128@@T4@@Z 100266c0 f i ConvexHullUtils.obj
 0001:00025700       ?V4GetY@aos@shdfnd@physx@@YA?AT__m128@@T4@@Z 10026700 f i ConvexHullUtils.obj
 0001:00025740       ?V4GetZ@aos@shdfnd@physx@@YA?AT__m128@@T4@@Z 10026740 f i ConvexHullUtils.obj
 0001:00025780       ?V4Max@aos@shdfnd@physx@@YA?AT__m128@@T4@0@Z 10026780 f i ConvexHullUtils.obj
 0001:000257c0       ?V4Min@aos@shdfnd@physx@@YA?AT__m128@@T4@0@Z 100267c0 f i ConvexHullUtils.obj
 0001:00025800       ?V4Mul@aos@shdfnd@physx@@YA?AT__m128@@T4@0@Z 10026800 f i ConvexHullUtils.obj
 0001:00025840       ?V4MulAdd@aos@shdfnd@physx@@YA?AT__m128@@T4@00@Z 10026840 f i ConvexHullUtils.obj
 0001:000258a0       ?V4Neg@aos@shdfnd@physx@@YA?AT__m128@@T4@@Z 100268a0 f i ConvexHullUtils.obj
 0001:000258e0       ?Vec4V_From_Vec3V@aos@shdfnd@physx@@YA?AT__m128@@T4@@Z 100268e0 f i ConvexHullUtils.obj
 0001:00025910       ?allocate@?$Array@VHalfEdge@ConvexHull@physx@@VNamedAllocator@shdfnd@3@@shdfnd@physx@@IAEPAVHalfEdge@ConvexHull@3@I@Z 10026910 f i ConvexHullUtils.obj
 0001:00025980       ?allocate@?$Array@VPxPlane@physx@@VNamedAllocator@shdfnd@2@@shdfnd@physx@@IAEPAVPxPlane@3@I@Z 10026980 f i ConvexHullUtils.obj
 0001:000259f0       ?allocate@?$ReflectionAllocator@VConvexHull@physx@@@shdfnd@physx@@QAEPAXIPBDH@Z 100269f0 f i ConvexHullUtils.obj
 0001:00025a40       ?begin@?$Array@VHalfEdge@ConvexHull@physx@@VNamedAllocator@shdfnd@3@@shdfnd@physx@@QAEPAVHalfEdge@ConvexHull@3@XZ 10026a40 f i ConvexHullUtils.obj
 0001:00025a50       ?begin@?$Array@VHalfEdge@ConvexHull@physx@@VNamedAllocator@shdfnd@3@@shdfnd@physx@@QBEPBVHalfEdge@ConvexHull@3@XZ 10026a50 f i ConvexHullUtils.obj
 0001:00025a60       ?begin@?$Array@VPxPlane@physx@@VNamedAllocator@shdfnd@2@@shdfnd@physx@@QAEPAVPxPlane@3@XZ 10026a60 f i ConvexHullUtils.obj
 0001:00025a70       ?begin@?$Array@VPxPlane@physx@@VNamedAllocator@shdfnd@2@@shdfnd@physx@@QBEPBVPxPlane@3@XZ 10026a70 f i ConvexHullUtils.obj
 0001:00025a80       ?begin@?$Array@VPxVec3@physx@@VNamedAllocator@shdfnd@2@@shdfnd@physx@@QBEPBVPxVec3@3@XZ 10026a80 f i ConvexHullUtils.obj
 0001:00025a90       ?capacity@?$Array@VHalfEdge@ConvexHull@physx@@VNamedAllocator@shdfnd@3@@shdfnd@physx@@QBEIXZ 10026a90 f i ConvexHullUtils.obj
 0001:00025ab0       ?capacity@?$Array@VPxPlane@physx@@VNamedAllocator@shdfnd@2@@shdfnd@physx@@QBEIXZ 10026ab0 f i ConvexHullUtils.obj
 0001:00025ad0       ?capacityIncrement@?$Array@VHalfEdge@ConvexHull@physx@@VNamedAllocator@shdfnd@3@@shdfnd@physx@@IBEIXZ 10026ad0 f i ConvexHullUtils.obj
 0001:00025b10       ?capacityIncrement@?$Array@VPxPlane@physx@@VNamedAllocator@shdfnd@2@@shdfnd@physx@@IBEIXZ 10026b10 f i ConvexHullUtils.obj
 0001:00025b50       ?computeAABBExtent@Box@Gu@physx@@QBE?AVPxVec3@3@XZ 10026b50 f i ConvexHullUtils.obj
 0001:00025d80       ?computeBoxPoints@Box@Gu@physx@@QBEXPIAVPxVec3@3@@Z 10026d80 f i ConvexHullUtils.obj
 0001:00025dc0       ?copy@?$Array@VHalfEdge@ConvexHull@physx@@VNamedAllocator@shdfnd@3@@shdfnd@physx@@KAXPAVHalfEdge@ConvexHull@3@0PBV453@@Z 10026dc0 f i ConvexHullUtils.obj
 0001:00025e10       ?copy@?$Array@VPxPlane@physx@@VNamedAllocator@shdfnd@2@@shdfnd@physx@@KAXPAVPxPlane@3@0PBV43@@Z 10026e10 f i ConvexHullUtils.obj
 0001:00025e60       ?copyHull@ConvexHull@physx@@QAEXABV12@@Z 10026e60 f i ConvexHullUtils.obj
 0001:00025f80       ?cos@intrinsics@physx@@YAMM@Z 10026f80 f i ConvexHullUtils.obj
 0001:00025fa0       ?create@?$Array@VHalfEdge@ConvexHull@physx@@VNamedAllocator@shdfnd@3@@shdfnd@physx@@KAXPAVHalfEdge@ConvexHull@3@0ABV453@@Z 10026fa0 f i ConvexHullUtils.obj
 0001:00025fe0       ?create@?$Array@VPxPlane@physx@@VNamedAllocator@shdfnd@2@@shdfnd@physx@@KAXPAVPxPlane@3@0ABV43@@Z 10026fe0 f i ConvexHullUtils.obj
 0001:00026020       ?create@?$Array@VPxVec3@physx@@VNamedAllocator@shdfnd@2@@shdfnd@physx@@KAXPAVPxVec3@3@0ABV43@@Z 10027020 f i ConvexHullUtils.obj
 0001:00026060       ?deallocate@?$Array@VHalfEdge@ConvexHull@physx@@VNamedAllocator@shdfnd@3@@shdfnd@physx@@IAEXPAX@Z 10027060 f i ConvexHullUtils.obj
 0001:00026080       ?deallocate@?$Array@VPxPlane@physx@@VNamedAllocator@shdfnd@2@@shdfnd@physx@@IAEXPAX@Z 10027080 f i ConvexHullUtils.obj
 0001:000260a0       ?degToRad@shdfnd@physx@@YAMM@Z 100270a0 f i ConvexHullUtils.obj
 0001:000260c0       ?destroy@?$Array@VHalfEdge@ConvexHull@physx@@VNamedAllocator@shdfnd@3@@shdfnd@physx@@KAXPAVHalfEdge@ConvexHull@3@0@Z 100270c0 f i ConvexHullUtils.obj
 0001:000260e0       ?destroy@?$Array@VPxPlane@physx@@VNamedAllocator@shdfnd@2@@shdfnd@physx@@KAXPAVPxPlane@3@0@Z 100270e0 f i ConvexHullUtils.obj
 0001:00026100       ?getDeterminant@PxMat33@physx@@QBEMXZ 10027100 f i ConvexHullUtils.obj
 0001:00026130       ?getEdges@ConvexHull@physx@@QAEAAV?$Array@VHalfEdge@ConvexHull@physx@@VNamedAllocator@shdfnd@3@@shdfnd@2@XZ 10027130 f i ConvexHullUtils.obj
 0001:00026150       ?getEdges@ConvexHull@physx@@QBEABV?$Array@VHalfEdge@ConvexHull@physx@@VNamedAllocator@shdfnd@3@@shdfnd@2@XZ 10027150 f i ConvexHullUtils.obj
 0001:00026170       ?getFacets@ConvexHull@physx@@QAEAAV?$Array@VPxPlane@physx@@VNamedAllocator@shdfnd@2@@shdfnd@2@XZ 10027170 f i ConvexHullUtils.obj
 0001:00026190       ?getFacets@ConvexHull@physx@@QBEABV?$Array@VPxPlane@physx@@VNamedAllocator@shdfnd@2@@shdfnd@2@XZ 10027190 f i ConvexHullUtils.obj
 0001:000261b0       ?getInputPlanes@ConvexHull@physx@@QBEABV?$Array@VPxPlane@physx@@VNamedAllocator@shdfnd@2@@shdfnd@2@XZ 100271b0 f i ConvexHullUtils.obj
 0001:000261d0       ?getInverse@PxMat33@physx@@QBE?BV12@XZ 100271d0 f i ConvexHullUtils.obj
 0001:000263f0       ?getName@?$ReflectionAllocator@VConvexHull@physx@@@shdfnd@physx@@CAPBDXZ 100273f0 f i ConvexHullUtils.obj
 0001:00026430       ?getOriginInertia@PxIntegrals@physx@@QAEXAAVPxMat33@2@@Z 10027430 f i ConvexHullUtils.obj
 0001:000264b0       ?getTransform@Box@Gu@physx@@QBE?AVPxTransform@3@XZ 100274b0 f i ConvexHullUtils.obj
 0001:000264e0       ?getTranspose@PxMat33@physx@@QBE?BV12@XZ 100274e0 f i ConvexHullUtils.obj
 0001:000265a0       ?getVertices@ConvexHull@physx@@QAEAAV?$Array@VPxVec3@physx@@VNamedAllocator@shdfnd@2@@shdfnd@2@XZ 100275a0 f i ConvexHullUtils.obj
 0001:000265b0       ?getVertices@ConvexHull@physx@@QBEABV?$Array@VPxVec3@physx@@VNamedAllocator@shdfnd@2@@shdfnd@2@XZ 100275b0 f i ConvexHullUtils.obj
 0001:000265c0       ?grow@?$Array@VHalfEdge@ConvexHull@physx@@VNamedAllocator@shdfnd@3@@shdfnd@physx@@IAEXI@Z 100275c0 f i ConvexHullUtils.obj
 0001:00026620       ?grow@?$Array@VPxPlane@physx@@VNamedAllocator@shdfnd@2@@shdfnd@physx@@IAEXI@Z 10027620 f i ConvexHullUtils.obj
 0001:00026680       ?growAndPushBack@?$Array@VHalfEdge@ConvexHull@physx@@VNamedAllocator@shdfnd@3@@shdfnd@physx@@IAEAAVHalfEdge@ConvexHull@3@ABV453@@Z 10027680 f i ConvexHullUtils.obj
 0001:000267b0       ?growAndPushBack@?$Array@VPxPlane@physx@@VNamedAllocator@shdfnd@2@@shdfnd@physx@@IAEAAVPxPlane@3@ABV43@@Z 100277b0 f i ConvexHullUtils.obj
 0001:000268e0       ?isFinite@PxQuat@physx@@QBE_NXZ 100278e0 f i ConvexHullUtils.obj
 0001:00026980       ?isInUserMemory@?$Array@VHalfEdge@ConvexHull@physx@@VNamedAllocator@shdfnd@3@@shdfnd@physx@@QBEIXZ 10027980 f i ConvexHullUtils.obj
 0001:000269a0       ?isInUserMemory@?$Array@VPxPlane@physx@@VNamedAllocator@shdfnd@2@@shdfnd@physx@@QBEIXZ 100279a0 f i ConvexHullUtils.obj
 0001:000269c0       ?isSane@PxQuat@physx@@QBE_NXZ 100279c0 f i ConvexHullUtils.obj
 0001:00026a40       ?isValid@Box@Gu@physx@@QBE_NXZ 10027a40 f i ConvexHullUtils.obj
 0001:00026a80       ?magnitude@PxQuat@physx@@QBEMXZ 10027a80 f i ConvexHullUtils.obj
 0001:00026aa0       ?magnitudeSquared@PxQuat@physx@@QBEMXZ 10027aa0 f i ConvexHullUtils.obj
 0001:00026b00       ?pushBack@?$Array@VHalfEdge@ConvexHull@physx@@VNamedAllocator@shdfnd@3@@shdfnd@physx@@QAEAAVHalfEdge@ConvexHull@3@ABV453@@Z 10027b00 f i ConvexHullUtils.obj
 0001:00026b80       ?pushBack@?$Array@VPxPlane@physx@@VNamedAllocator@shdfnd@2@@shdfnd@physx@@QAEAAVPxPlane@3@ABV43@@Z 10027b80 f i ConvexHullUtils.obj
 0001:00026c00       ?recreate@?$Array@VHalfEdge@ConvexHull@physx@@VNamedAllocator@shdfnd@3@@shdfnd@physx@@IAEXI@Z 10027c00 f i ConvexHullUtils.obj
 0001:00026cd0       ?recreate@?$Array@VPxPlane@physx@@VNamedAllocator@shdfnd@2@@shdfnd@physx@@IAEXI@Z 10027cd0 f i ConvexHullUtils.obj
 0001:00026da0       ?reserve@?$Array@VHalfEdge@ConvexHull@physx@@VNamedAllocator@shdfnd@3@@shdfnd@physx@@QAEXI@Z 10027da0 f i ConvexHullUtils.obj
 0001:00026dd0       ?reserve@?$Array@VPxPlane@physx@@VNamedAllocator@shdfnd@2@@shdfnd@physx@@QAEXI@Z 10027dd0 f i ConvexHullUtils.obj
 0001:00026e00       ?resize@?$Array@VHalfEdge@ConvexHull@physx@@VNamedAllocator@shdfnd@3@@shdfnd@physx@@QAEXIABVHalfEdge@ConvexHull@3@@Z 10027e00 f i ConvexHullUtils.obj
 0001:00026e70       ?resize@?$Array@VPxPlane@physx@@VNamedAllocator@shdfnd@2@@shdfnd@physx@@QAEXIABVPxPlane@3@@Z 10027e70 f i ConvexHullUtils.obj
 0001:00026ee0       ?resize@?$Array@VPxVec3@physx@@VNamedAllocator@shdfnd@2@@shdfnd@physx@@QAEXIABVPxVec3@3@@Z 10027ee0 f i ConvexHullUtils.obj
 0001:00026f50       ?rotate@Box@Gu@physx@@QBE?AVPxVec3@3@ABV43@@Z 10027f50 f i ConvexHullUtils.obj
 0001:00026f70       ?rotateInv@Box@Gu@physx@@QBE?AVPxVec3@3@ABV43@@Z 10027f70 f i ConvexHullUtils.obj
 0001:00026f90       ?setAxes@Box@Gu@physx@@QAEXABVPxVec3@3@00@Z 10027f90 f i ConvexHullUtils.obj
 0001:00026fd0       ?setEmpty@Box@Gu@physx@@QAEXXZ 10027fd0 f i ConvexHullUtils.obj
 0001:00027050       ?sin@intrinsics@physx@@YAMM@Z 10028050 f i ConvexHullUtils.obj
 0001:00027070       ?size@?$Array@VHalfEdge@ConvexHull@physx@@VNamedAllocator@shdfnd@3@@shdfnd@physx@@QBEIXZ 10028070 f i ConvexHullUtils.obj
 0001:00027090       ?size@?$Array@VPxPlane@physx@@VNamedAllocator@shdfnd@2@@shdfnd@physx@@QBEIXZ 10028090 f i ConvexHullUtils.obj
 0001:000270b0       ?threePlaneIntersection@physx@@YA?AVPxVec3@1@ABVPxPlane@1@00@Z 100280b0 f i ConvexHullUtils.obj
 0001:00027140       ?to8@shdfnd@physx@@YAEG@Z  10028140 f i ConvexHullUtils.obj
 0001:00027190       ?transform@Box@Gu@physx@@QBE?AVPxVec3@3@ABV43@@Z 10028190 f i ConvexHullUtils.obj
 0001:000271d0       ?transform@PxMat33@physx@@QBE?BVPxVec3@2@ABV32@@Z 100281d0 f i ConvexHullUtils.obj
 0001:00027250       ?transformTranspose@PxMat33@physx@@QBE?BVPxVec3@2@ABV32@@Z 10028250 f i ConvexHullUtils.obj
 0001:000272a0       _cosf                      100282a0 f i ConvexHullUtils.obj
 0001:000272d0       _sinf                      100282d0 f i ConvexHullUtils.obj
 0001:00027390       ??0ConvexMeshBuilder@physx@@QAE@_N@Z 10028390 f   ConvexMeshBuilder.obj
 0001:000273f0       ??1ConvexMeshBuilder@physx@@QAE@XZ 100283f0 f   ConvexMeshBuilder.obj
 0001:00027440       ?build@ConvexMeshBuilder@physx@@QAE_NABVPxConvexMeshDesc@2@I_NPAVConvexHullLib@2@@Z 10028440 f   ConvexMeshBuilder.obj
 0001:00027520       ?save@ConvexMeshBuilder@physx@@QBE_NAAVPxOutputStream@2@_N@Z 10028520 f   ConvexMeshBuilder.obj
 0001:000277f0       ?copy@ConvexMeshBuilder@physx@@QAE_NAAUConvexHullInitData@Gu@2@@Z 100287f0 f   ConvexMeshBuilder.obj
 0001:00027910       ?loadConvexHull@ConvexMeshBuilder@physx@@QAE_NABVPxConvexMeshDesc@2@PAVConvexHullLib@2@@Z 10028910 f   ConvexMeshBuilder.obj
 0001:00027bf0       ?computeHullPolygons@ConvexMeshBuilder@physx@@QAE_NABIPBVPxVec3@2@0PBIAAVPxAllocatorCallback@2@AAIAAPAV32@4AAPAI4AAPAUPxHullPolygon@2@@Z 10028bf0 f   ConvexMeshBuilder.obj
 0001:00027ea0       ?computeGaussMaps@ConvexMeshBuilder@physx@@QAE_NXZ 10028ea0 f   ConvexMeshBuilder.obj
 0001:00027f80       ?computeMassInfo@ConvexMeshBuilder@physx@@QAEX_N@Z 10028f80 f   ConvexMeshBuilder.obj
 0001:00028200       ?computeInternalObjects@ConvexMeshBuilder@physx@@QAEXXZ 10029200 f   ConvexMeshBuilder.obj
 0001:00028910       ??0?$ReflectionAllocator@VBigConvexData@physx@@@shdfnd@physx@@QAE@PBD@Z 10029910 f i ConvexMeshBuilder.obj
 0001:00028920       ??0CenterExtents@Gu@physx@@QAE@ABVPxBounds3@2@@Z 10029920 f i ConvexMeshBuilder.obj
 0001:00028980       ??GPxMat33@physx@@QBE?BV01@XZ 10029980 f i ConvexMeshBuilder.obj
 0001:000289d0       ??_GBigConvexData@physx@@QAEPAXI@Z 100299d0 f i ConvexMeshBuilder.obj
 0001:00028a20       ?allocate@?$ReflectionAllocator@VBigConvexData@physx@@@shdfnd@physx@@QAEPAXIPBDH@Z 10029a20 f i ConvexMeshBuilder.obj
 0001:00028a70       ?getExtents@PxBounds3@physx@@QBE?AVPxVec3@2@XZ 10029a70 f i ConvexMeshBuilder.obj
 0001:00028ad0       ?getMax@CenterExtents@Gu@physx@@QBE?AVPxVec3@3@XZ 10029ad0 f i ConvexMeshBuilder.obj
 0001:00028b00       ?getMin@CenterExtents@Gu@physx@@QBE?AVPxVec3@3@XZ 10029b00 f i ConvexMeshBuilder.obj
 0001:00028b30       ?getName@?$ReflectionAllocator@VBigConvexData@physx@@@shdfnd@physx@@CAPBDXZ 10029b30 f i ConvexMeshBuilder.obj
 0001:00028b70       ?getNextIndex3@shdfnd@physx@@YAII@Z 10029b70 f i ConvexMeshBuilder.obj
 0001:00028b90       ?largestAxis@shdfnd@physx@@YAIABVPxVec3@2@@Z 10029b90 f i ConvexMeshBuilder.obj
 0001:00028bf0       ??0ConvexPolygonsBuilder@physx@@QAE@PAUConvexHullData@Gu@1@_N@Z 10029bf0 f   ConvexPolygonsBuilder.obj
 0001:00028c30       ??1ConvexPolygonsBuilder@physx@@QAE@XZ 10029c30 f   ConvexPolygonsBuilder.obj
 0001:00028c70       ?computeHullPolygons@ConvexPolygonsBuilder@physx@@QAE_NABIPBVPxVec3@2@0PBI@Z 10029c70 f   ConvexPolygonsBuilder.obj
 0001:00029010       ?createPolygonData@ConvexPolygonsBuilder@physx@@AAE_NXZ 1002a010 f   ConvexPolygonsBuilder.obj
 0001:00029ad0       ?createTrianglesFromPolygons@ConvexPolygonsBuilder@physx@@AAE_NXZ 1002aad0 f   ConvexPolygonsBuilder.obj
 0001:0002b7d0       ??$?4VNamedAllocator@shdfnd@physx@@@?$Array@IVNamedAllocator@shdfnd@physx@@@shdfnd@physx@@QAEAAV012@ABV012@@Z 1002c7d0 f i ConvexPolygonsBuilder.obj
 0001:0002b840       ??$?_UUHullTriangleData@physx@@@@YAPAXIV?$ReflectionAllocator@UHullTriangleData@physx@@@shdfnd@physx@@PBDH@Z 1002c840 f i ConvexPolygonsBuilder.obj
 0001:0002b860       ??$PlaneEquation@U?$TriangleT@I@Gu@physx@@@@YA?AVPxPlane@physx@@ABU?$TriangleT@I@Gu@1@PBVPxVec3@1@@Z 1002c860 f i ConvexPolygonsBuilder.obj
 0001:0002b8c0       ??$copy@VNamedAllocator@shdfnd@physx@@@?$Array@VPair@@VNamedAllocator@shdfnd@physx@@@shdfnd@physx@@IAEXABV012@@Z 1002c8c0 f i ConvexPolygonsBuilder.obj
 0001:0002b960       ??$swap@E@shdfnd@physx@@YAXAAE0@Z 1002c960 f i ConvexPolygonsBuilder.obj
 0001:0002b990       ??0?$Array@VPair@@VNamedAllocator@shdfnd@physx@@@shdfnd@physx@@QAE@ABV012@ABVNamedAllocator@12@@Z 1002c990 f i ConvexPolygonsBuilder.obj
 0001:0002b9c0       ??0?$Array@VPair@@VNamedAllocator@shdfnd@physx@@@shdfnd@physx@@QAE@ABVNamedAllocator@12@@Z 1002c9c0 f i ConvexPolygonsBuilder.obj
 0001:0002ba00       ??0?$ReflectionAllocator@UHullTriangleData@physx@@@shdfnd@physx@@QAE@PBD@Z 1002ca00 f i ConvexPolygonsBuilder.obj
 0001:0002ba10       ??0ADJACENCIESCREATE@physx@@QAE@XZ 1002ca10 f i ConvexPolygonsBuilder.obj
 0001:0002ba60       ??0Pair@@QAE@II@Z          1002ca60 f i ConvexPolygonsBuilder.obj
 0001:0002ba90       ??1?$Array@VPair@@VNamedAllocator@shdfnd@physx@@@shdfnd@physx@@QAE@XZ 1002ca90 f i ConvexPolygonsBuilder.obj
 0001:0002baf0       ??1Pair@@QAE@XZ            1002caf0 f i ConvexPolygonsBuilder.obj
 0001:0002bb00       ??4?$Array@IVNamedAllocator@shdfnd@physx@@@shdfnd@physx@@QAEAAV012@ABV012@@Z 1002cb00 f i ConvexPolygonsBuilder.obj
 0001:0002bb20       ??A?$Array@VPair@@VNamedAllocator@shdfnd@physx@@@shdfnd@physx@@QAEAAVPair@@I@Z 1002cb20 f i ConvexPolygonsBuilder.obj
 0001:0002bb80       ??_GPair@@QAEPAXI@Z        1002cb80 f i ConvexPolygonsBuilder.obj
 0001:0002c080       ?GetAdjTri@AdjTriangle@physx@@QBEIW4SharedEdgeIndex@2@@Z 1002d080 f i ConvexPolygonsBuilder.obj
 0001:0002c330       ?HasActiveEdge@AdjTriangle@physx@@QBEHI@Z 1002d330 f i ConvexPolygonsBuilder.obj
 0001:0002c350       ?allocate@?$Array@VPair@@VNamedAllocator@shdfnd@physx@@@shdfnd@physx@@IAEPAVPair@@I@Z 1002d350 f i ConvexPolygonsBuilder.obj
 0001:0002c3c0       ?allocate@?$ReflectionAllocator@UHullTriangleData@physx@@@shdfnd@physx@@QAEPAXIPBDH@Z 1002d3c0 f i ConvexPolygonsBuilder.obj
 0001:0002c410       ?begin@?$Array@VPair@@VNamedAllocator@shdfnd@physx@@@shdfnd@physx@@QAEPAVPair@@XZ 1002d410 f i ConvexPolygonsBuilder.obj
 0001:0002c420       ?begin@?$Array@VPair@@VNamedAllocator@shdfnd@physx@@@shdfnd@physx@@QBEPBVPair@@XZ 1002d420 f i ConvexPolygonsBuilder.obj
 0001:0002c430       ?capacity@?$Array@VPair@@VNamedAllocator@shdfnd@physx@@@shdfnd@physx@@QBEIXZ 1002d430 f i ConvexPolygonsBuilder.obj
 0001:0002c450       ?capacityIncrement@?$Array@VPair@@VNamedAllocator@shdfnd@physx@@@shdfnd@physx@@IBEIXZ 1002d450 f i ConvexPolygonsBuilder.obj
 0001:0002c490       ?clear@?$Array@IVNamedAllocator@shdfnd@physx@@@shdfnd@physx@@QAEXXZ 1002d490 f i ConvexPolygonsBuilder.obj
 0001:0002c4d0       ?copy@?$Array@VPair@@VNamedAllocator@shdfnd@physx@@@shdfnd@physx@@KAXPAVPair@@0PBV4@@Z 1002d4d0 f i ConvexPolygonsBuilder.obj
 0001:0002c530       ?deallocate@?$Array@VPair@@VNamedAllocator@shdfnd@physx@@@shdfnd@physx@@IAEXPAX@Z 1002d530 f i ConvexPolygonsBuilder.obj
 0001:0002c550       ?destroy@?$Array@VPair@@VNamedAllocator@shdfnd@physx@@@shdfnd@physx@@KAXPAVPair@@0@Z 1002d550 f i ConvexPolygonsBuilder.obj
 0001:0002c580       ?empty@?$Array@VPair@@VNamedAllocator@shdfnd@physx@@@shdfnd@physx@@QBE_NXZ 1002d580 f i ConvexPolygonsBuilder.obj
 0001:0002c5b0       ?end@?$Array@IVNamedAllocator@shdfnd@physx@@@shdfnd@physx@@QAEPAIXZ 1002d5b0 f i ConvexPolygonsBuilder.obj
 0001:0002c5d0       ?find@?$Array@IVNamedAllocator@shdfnd@physx@@@shdfnd@physx@@QAEPAIABI@Z 1002d5d0 f i ConvexPolygonsBuilder.obj
 0001:0002c620       ?flip@?$TriangleT@I@Gu@physx@@QAEXXZ 1002d620 f i ConvexPolygonsBuilder.obj
 0001:0002c650       ?forceSize_Unsafe@?$Array@IVNamedAllocator@shdfnd@physx@@@shdfnd@physx@@QAEXI@Z 1002d650 f i ConvexPolygonsBuilder.obj
 0001:0002c6b0       ?getFaces@ConvexPolygonsBuilder@physx@@QBEPBUHullTriangleData@2@XZ 1002d6b0 f i ConvexPolygonsBuilder.obj
 0001:0002c6d0       ?getName@?$ReflectionAllocator@UHullTriangleData@physx@@@shdfnd@physx@@CAPBDXZ 1002d6d0 f i ConvexPolygonsBuilder.obj
 0001:0002c710       ?getNbFaces@ConvexPolygonsBuilder@physx@@QBEIXZ 1002d710 f i ConvexPolygonsBuilder.obj
 0001:0002c730       ?growAndPushBack@?$Array@VPair@@VNamedAllocator@shdfnd@physx@@@shdfnd@physx@@IAEAAVPair@@ABV4@@Z 1002d730 f i ConvexPolygonsBuilder.obj
 0001:0002c870       ?isInUserMemory@?$Array@VPair@@VNamedAllocator@shdfnd@physx@@@shdfnd@physx@@QBEIXZ 1002d870 f i ConvexPolygonsBuilder.obj
 0001:0002c890       ?pushBack@?$Array@VPair@@VNamedAllocator@shdfnd@physx@@@shdfnd@physx@@QAEAAVPair@@ABV4@@Z 1002d890 f i ConvexPolygonsBuilder.obj
 0001:0002c930       ?remove@?$Array@IVNamedAllocator@shdfnd@physx@@@shdfnd@physx@@QAEXI@Z 1002d930 f i ConvexPolygonsBuilder.obj
 0001:0002c9e0       ?remove@?$Array@VPair@@VNamedAllocator@shdfnd@physx@@@shdfnd@physx@@QAEXI@Z 1002d9e0 f i ConvexPolygonsBuilder.obj
 0001:0002cac0       ?size@?$Array@VPair@@VNamedAllocator@shdfnd@physx@@@shdfnd@physx@@QBEIXZ 1002dac0 f i ConvexPolygonsBuilder.obj
 0001:0002cb30       ??0QuickHullConvexHullLib@physx@@QAE@ABVPxConvexMeshDesc@1@ABUPxCookingParams@1@@Z 1002db30 f   QuickHullConvexHullLib.obj
 0001:0002cbf0       ??1QuickHullConvexHullLib@physx@@UAE@XZ 1002dbf0 f   QuickHullConvexHullLib.obj
 0001:0002cc90       ?createConvexHull@QuickHullConvexHullLib@physx@@UAE?AW4Enum@PxConvexMeshCookingResult@2@XZ 1002dc90 f   QuickHullConvexHullLib.obj
 0001:0002d060       ?fillConvexMeshDesc@QuickHullConvexHullLib@physx@@UAEXAAVPxConvexMeshDesc@2@@Z 1002e060 f   QuickHullConvexHullLib.obj
 0001:0002d0d0       ?createEdgeList@QuickHullConvexHullLib@physx@@UAE_NIPBEPAPAEPAPAG2@Z 1002e0d0 f   QuickHullConvexHullLib.obj
 0001:0002d450       ?expandHullOBB@QuickHullConvexHullLib@physx@@IAE?AW4Enum@PxConvexMeshCookingResult@2@XZ 1002e450 f   QuickHullConvexHullLib.obj
 0001:0002d8a0       ?expandHull@QuickHullConvexHullLib@physx@@IAE?AW4Enum@PxConvexMeshCookingResult@2@XZ 1002e8a0 f   QuickHullConvexHullLib.obj
 0001:0002de70       ?cleanupForSimplex@QuickHullConvexHullLib@physx@@IAE_NPAVPxVec3@2@IPAUQuickHullVertex@local@@1AAM2@Z 1002ee70 f   QuickHullConvexHullLib.obj
 0001:0002e5f0       ?fillConvexMeshDescFromQuickHull@QuickHullConvexHullLib@physx@@IAEXAAVPxConvexMeshDesc@2@@Z 1002f5f0 f   QuickHullConvexHullLib.obj
 0001:0002eb10       ?fillConvexMeshDescFromCroppedHull@QuickHullConvexHullLib@physx@@IAEXAAVPxConvexMeshDesc@2@@Z 1002fb10 f   QuickHullConvexHullLib.obj
 0001:0002eec0       ?getOppositeFaceDistance@QuickHullHalfEdge@local@@QBEMXZ 1002fec0 f   QuickHullConvexHullLib.obj
 0001:0002ef70       ?mergeAdjacentFace@QuickHullFace@local@@QAE_NPAUQuickHullHalfEdge@2@AAV?$Array@PAUQuickHullFace@local@@VNamedAllocator@shdfnd@physx@@@shdfnd@physx@@@Z 1002ff70 f   QuickHullConvexHullLib.obj
 0001:0002f110       ?checkFaceConsistency@QuickHullFace@local@@QAE_NXZ 10030110 f   QuickHullConvexHullLib.obj
 0001:0002f300       ?connectHalfEdges@QuickHullFace@local@@AAEPAU12@PAUQuickHullHalfEdge@2@0@Z 10030300 f   QuickHullConvexHullLib.obj
 0001:0002f410       ??0QuickHull@local@@QAE@ABUPxCookingParams@physx@@ABVPxConvexMeshDesc@3@@Z 10030410 f   QuickHullConvexHullLib.obj
 0001:0002f5a0       ??1QuickHull@local@@QAE@XZ 100305a0 f   QuickHullConvexHullLib.obj
 0001:0002f620       ?preallocate@QuickHull@local@@QAEXI@Z 10030620 f   QuickHullConvexHullLib.obj
 0001:0002f760       ?parseInputVertices@QuickHull@local@@QAEXPBVPxVec3@physx@@I@Z 10030760 f   QuickHullConvexHullLib.obj
 0001:0002f840       ?releaseHull@QuickHull@local@@QAEXXZ 10030840 f   QuickHullConvexHullLib.obj
 0001:0002f890       ?setPrecomputedMinMax@QuickHull@local@@QAEXPBUQuickHullVertex@2@0MM@Z 10030890 f   QuickHullConvexHullLib.obj
 0001:0002f920       ?buildHull@QuickHull@local@@QAE?AW4Enum@QuickHullResult@2@XZ 10030920 f   QuickHullConvexHullLib.obj
 0001:0002fb90       ?maxNumVertsPerFace@QuickHull@local@@QBEIXZ 10030b90 f   QuickHullConvexHullLib.obj
 0001:0002fc10       ?computeMinMaxVerts@QuickHull@local@@IAEXXZ 10030c10 f   QuickHullConvexHullLib.obj
 0001:0002fec0       ?findSimplex@QuickHull@local@@IAE_NXZ 10030ec0 f   QuickHullConvexHullLib.obj
 0001:000302f0       ?addSimplex@QuickHull@local@@IAEXPAUQuickHullVertex@2@_N@Z 100312f0 f   QuickHullConvexHullLib.obj
 0001:000307e0       ?nextPointToAdd@QuickHull@local@@IAEPAUQuickHullVertex@2@AAPAUQuickHullFace@2@@Z 100317e0 f   QuickHullConvexHullLib.obj
 0001:000308d0       ?addPointToHull@QuickHull@local@@IAE_NPBUQuickHullVertex@2@AAUQuickHullFace@2@AA_N@Z 100318d0 f   QuickHullConvexHullLib.obj
 0001:00030b40       ?createTriangle@QuickHull@local@@IAEPAUQuickHullFace@2@ABUQuickHullVertex@2@00@Z 10031b40 f   QuickHullConvexHullLib.obj
 0001:00030c10       ?addPointToFace@QuickHull@local@@IAEXAAUQuickHullFace@2@PAUQuickHullVertex@2@M@Z 10031c10 f   QuickHullConvexHullLib.obj
 0001:00030ce0       ?removeEyePointFromFace@QuickHull@local@@IAEXAAUQuickHullFace@2@PBUQuickHullVertex@2@@Z 10031ce0 f   QuickHullConvexHullLib.obj
 0001:00030d50       ?calculateHorizon@QuickHull@local@@IAEXABVPxVec3@physx@@PAUQuickHullHalfEdge@2@AAUQuickHullFace@2@AAV?$Array@PAUQuickHullHalfEdge@local@@VNamedAllocator@shdfnd@physx@@@shdfnd@4@AAV?$Array@PAUQuickHullFace@local@@VNamedAllocator@shdfnd@physx@@@84@@Z 10031d50 f   QuickHullConvexHullLib.obj
 0001:00030e40       ?addNewFacesFromHorizon@QuickHull@local@@IAEXPBUQuickHullVertex@2@ABV?$Array@PAUQuickHullHalfEdge@local@@VNamedAllocator@shdfnd@physx@@@shdfnd@physx@@AAV?$Array@PAUQuickHullFace@local@@VNamedAllocator@shdfnd@physx@@@56@@Z 10031e40 f   QuickHullConvexHullLib.obj
 0001:00030f40       ?doAdjacentMerge@QuickHull@local@@IAE_NAAUQuickHullFace@2@_NAA_N@Z 10031f40 f   QuickHullConvexHullLib.obj
 0001:000311c0       ?doPostAdjacentMerge@QuickHull@local@@IAE_NAAUQuickHullFace@2@M@Z 100321c0 f   QuickHullConvexHullLib.obj
 0001:00031330       ?deleteFacePoints@QuickHull@local@@IAEXAAUQuickHullFace@2@PAU32@@Z 10032330 f   QuickHullConvexHullLib.obj
 0001:00031410       ?resolveUnclaimedPoints@QuickHull@local@@IAEXABV?$Array@PAUQuickHullFace@local@@VNamedAllocator@shdfnd@physx@@@shdfnd@physx@@@Z 10032410 f   QuickHullConvexHullLib.obj
 0001:00031530       ?postMergeHull@QuickHull@local@@IAEXXZ 10032530 f   QuickHullConvexHullLib.obj
 0001:000315f0       ?canMergeFaces@QuickHull@local@@IAE_NABUQuickHullHalfEdge@2@@Z 100325f0 f   QuickHullConvexHullLib.obj
 0001:00031c30       ?getExpandPoint@local@@YAXABUQuickHullHalfEdge@1@AAUExpandPoint@1@PBV?$Array@IVNamedAllocator@shdfnd@physx@@@shdfnd@physx@@@Z 10032c30 f   QuickHullConvexHullLib.obj
 0001:00031e00       ?addExpandPoint@local@@YAXABUExpandPoint@1@AAV?$Array@UExpandPoint@local@@VNamedAllocator@shdfnd@physx@@@shdfnd@physx@@@Z 10032e00 f   QuickHullConvexHullLib.obj
 0001:00031ef0       ??$?2V?$ReflectionAllocator@VQuickHull@local@@@shdfnd@physx@@@UserAllocated@shdfnd@physx@@SAPAXIV?$ReflectionAllocator@VQuickHull@local@@@12@PBDH@Z 10032ef0 f i QuickHullConvexHullLib.obj
 0001:00031f10       ??$PX_UNUSED@PAUQuickHullFace@local@@@@YAXABQAUQuickHullFace@local@@@Z 10032f10 f i QuickHullConvexHullLib.obj
 0001:00031f20       ??$PX_UNUSED@PBUQuickHullVertex@local@@@@YAXABQBUQuickHullVertex@local@@@Z 10032f20 f i QuickHullConvexHullLib.obj
 0001:00031f30       ??0?$Array@PAUQuickHullFace@local@@VNamedAllocator@shdfnd@physx@@@shdfnd@physx@@QAE@ABVNamedAllocator@12@@Z 10032f30 f i QuickHullConvexHullLib.obj
 0001:00031f70       ??0?$Array@PAUQuickHullHalfEdge@local@@VNamedAllocator@shdfnd@physx@@@shdfnd@physx@@QAE@ABVNamedAllocator@12@@Z 10032f70 f i QuickHullConvexHullLib.obj
 0001:00031fb0       ??0?$Array@PAUQuickHullVertex@local@@VNamedAllocator@shdfnd@physx@@@shdfnd@physx@@QAE@ABVNamedAllocator@12@@Z 10032fb0 f i QuickHullConvexHullLib.obj
 0001:00031ff0       ??0?$Array@UExpandPoint@local@@VNamedAllocator@shdfnd@physx@@@shdfnd@physx@@QAE@ABVNamedAllocator@12@@Z 10032ff0 f i QuickHullConvexHullLib.obj
 0001:00032030       ??0?$MemBlock@UQuickHullFace@local@@$00@local@@QAE@XZ 10033030 f i QuickHullConvexHullLib.obj
 0001:00032080       ??0?$MemBlock@UQuickHullHalfEdge@local@@$0A@@local@@QAE@XZ 10033080 f i QuickHullConvexHullLib.obj
 0001:000320d0       ??0?$ReflectionAllocator@VQuickHull@local@@@shdfnd@physx@@QAE@PBD@Z 100330d0 f i QuickHullConvexHullLib.obj
 0001:000320e0       ??0?$ScopedPointer@UQuickHullHalfEdge@local@@VTempAllocator@shdfnd@physx@@@shdfnd@physx@@QAE@XZ 100330e0 f i QuickHullConvexHullLib.obj
 0001:00032100       ??0?$ScopedPointer@VPxVec3@physx@@VTempAllocator@shdfnd@2@@shdfnd@physx@@QAE@XZ 10033100 f i QuickHullConvexHullLib.obj
 0001:00032120       ??0ConvexHullLib@physx@@QAE@ABVPxConvexMeshDesc@1@ABUPxCookingParams@1@@Z 10033120 f i QuickHullConvexHullLib.obj
 0001:00032170       ??0ExpandPoint@local@@QAE@ABU01@@Z 10033170 f i QuickHullConvexHullLib.obj
 0001:000321c0       ??0ExpandPoint@local@@QAE@XZ 100331c0 f i QuickHullConvexHullLib.obj
 0001:000321e0       ??0PxTransform@physx@@QAE@XZ 100331e0 f i QuickHullConvexHullLib.obj
 0001:00032210       ??0QuickHullFace@local@@QAE@I@Z 10033210 f i QuickHullConvexHullLib.obj
 0001:000322a0       ??0QuickHullFace@local@@QAE@XZ 100332a0 f i QuickHullConvexHullLib.obj
 0001:00032330       ??0QuickHullHalfEdge@local@@QAE@I@Z 10033330 f i QuickHullConvexHullLib.obj
 0001:00032380       ??0QuickHullVertex@local@@QAE@XZ 10033380 f i QuickHullConvexHullLib.obj
 0001:000323a0       ??1?$Array@PAUQuickHullFace@local@@VNamedAllocator@shdfnd@physx@@@shdfnd@physx@@QAE@XZ 100333a0 f i QuickHullConvexHullLib.obj
 0001:00032400       ??1?$Array@PAUQuickHullHalfEdge@local@@VNamedAllocator@shdfnd@physx@@@shdfnd@physx@@QAE@XZ 10033400 f i QuickHullConvexHullLib.obj
 0001:00032460       ??1?$Array@PAUQuickHullVertex@local@@VNamedAllocator@shdfnd@physx@@@shdfnd@physx@@QAE@XZ 10033460 f i QuickHullConvexHullLib.obj
 0001:000324c0       ??1?$Array@UExpandPoint@local@@VNamedAllocator@shdfnd@physx@@@shdfnd@physx@@QAE@XZ 100334c0 f i QuickHullConvexHullLib.obj
 0001:00032520       ??1?$Array@VHalfEdge@ConvexHull@physx@@VNamedAllocator@shdfnd@3@@shdfnd@physx@@QAE@XZ 10033520 f i QuickHullConvexHullLib.obj
 0001:00032580       ??1?$Array@VPxPlane@physx@@VNamedAllocator@shdfnd@2@@shdfnd@physx@@QAE@XZ 10033580 f i QuickHullConvexHullLib.obj
 0001:000325e0       ??1?$MemBlock@UQuickHullFace@local@@$00@local@@QAE@XZ 100335e0 f i QuickHullConvexHullLib.obj
 0001:00032650       ??1?$MemBlock@UQuickHullHalfEdge@local@@$0A@@local@@QAE@XZ 10033650 f i QuickHullConvexHullLib.obj
 0001:000326c0       ??1?$ScopedPointer@UQuickHullHalfEdge@local@@VTempAllocator@shdfnd@physx@@@shdfnd@physx@@QAE@XZ 100336c0 f i QuickHullConvexHullLib.obj
 0001:000326f0       ??1?$ScopedPointer@VPxVec3@physx@@VTempAllocator@shdfnd@2@@shdfnd@physx@@QAE@XZ 100336f0 f i QuickHullConvexHullLib.obj
 0001:00032720       ??1ConvexHull@physx@@QAE@XZ 10033720 f i QuickHullConvexHullLib.obj
 0001:00032750       ??1QuickHullFace@local@@QAE@XZ 10033750 f i QuickHullConvexHullLib.obj
 0001:00032760       ??4?$PxFlags@W4Enum@PxConvexFlag@physx@@G@physx@@QAEAAV01@ABV01@@Z 10033760 f i QuickHullConvexHullLib.obj
 0001:00032780       ??4QuickHullVertex@local@@QAEAAU01@ABU01@@Z 10033780 f i QuickHullConvexHullLib.obj
 0001:000327c0       ??8ExpandPoint@local@@QBE_NABU01@@Z 100337c0 f i QuickHullConvexHullLib.obj
 0001:00032840       ??8QuickHullVertex@local@@QBE_NABU01@@Z 10033840 f i QuickHullConvexHullLib.obj
 0001:00032870       ??A?$Array@IVNamedAllocator@shdfnd@physx@@@shdfnd@physx@@QBEABII@Z 10033870 f i QuickHullConvexHullLib.obj
 0001:000328d0       ??A?$Array@PAUQuickHullFace@local@@VNamedAllocator@shdfnd@physx@@@shdfnd@physx@@QAEAAPAUQuickHullFace@local@@I@Z 100338d0 f i QuickHullConvexHullLib.obj
 0001:00032930       ??A?$Array@PAUQuickHullFace@local@@VNamedAllocator@shdfnd@physx@@@shdfnd@physx@@QBEABQAUQuickHullFace@local@@I@Z 10033930 f i QuickHullConvexHullLib.obj
 0001:00032990       ??A?$Array@PAUQuickHullHalfEdge@local@@VNamedAllocator@shdfnd@physx@@@shdfnd@physx@@QAEAAPAUQuickHullHalfEdge@local@@I@Z 10033990 f i QuickHullConvexHullLib.obj
 0001:000329f0       ??A?$Array@PAUQuickHullHalfEdge@local@@VNamedAllocator@shdfnd@physx@@@shdfnd@physx@@QBEABQAUQuickHullHalfEdge@local@@I@Z 100339f0 f i QuickHullConvexHullLib.obj
 0001:00032a50       ??A?$Array@PAUQuickHullVertex@local@@VNamedAllocator@shdfnd@physx@@@shdfnd@physx@@QAEAAPAUQuickHullVertex@local@@I@Z 10033a50 f i QuickHullConvexHullLib.obj
 0001:00032ab0       ??A?$Array@UExpandPoint@local@@VNamedAllocator@shdfnd@physx@@@shdfnd@physx@@QAEAAUExpandPoint@local@@I@Z 10033ab0 f i QuickHullConvexHullLib.obj
 0001:00032b10       ??A?$Array@VPxPlane@physx@@VNamedAllocator@shdfnd@2@@shdfnd@physx@@QAEAAVPxPlane@2@I@Z 10033b10 f i QuickHullConvexHullLib.obj
 0001:00032b70       ??B?$ScopedPointer@UQuickHullHalfEdge@local@@VTempAllocator@shdfnd@physx@@@shdfnd@physx@@QBEPAUQuickHullHalfEdge@local@@XZ 10033b70 f i QuickHullConvexHullLib.obj
 0001:00032b80       ??B?$ScopedPointer@VPxVec3@physx@@VTempAllocator@shdfnd@2@@shdfnd@physx@@QBEPAVPxVec3@2@XZ 10033b80 f i QuickHullConvexHullLib.obj
 0001:00032b90       ??KPxVec3@physx@@QBE?AV01@M@Z 10033b90 f i QuickHullConvexHullLib.obj
 0001:00032c00       ??_GConvexHull@physx@@QAEPAXI@Z 10033c00 f i QuickHullConvexHullLib.obj
 0001:00032c50       ??_GQuickHull@local@@QAEPAXI@Z 10033c50 f i QuickHullConvexHullLib.obj
 0001:00032ca0       ??_GQuickHullConvexHullLib@physx@@UAEPAXI@Z 10033ca0 f i QuickHullConvexHullLib.obj
 0001:00032ca0       ??_EQuickHullConvexHullLib@physx@@UAEPAXI@Z 10033ca0 f i QuickHullConvexHullLib.obj
 0001:00032cf0       ??__G@YGXPAX0IIP6EPAX00@Z@Z 10033cf0 f i QuickHullConvexHullLib.obj
 0001:00032d50       ?allocate@?$Array@PAUQuickHullFace@local@@VNamedAllocator@shdfnd@physx@@@shdfnd@physx@@IAEPAPAUQuickHullFace@local@@I@Z 10033d50 f i QuickHullConvexHullLib.obj
 0001:00032dc0       ?allocate@?$Array@PAUQuickHullHalfEdge@local@@VNamedAllocator@shdfnd@physx@@@shdfnd@physx@@IAEPAPAUQuickHullHalfEdge@local@@I@Z 10033dc0 f i QuickHullConvexHullLib.obj
 0001:00032e30       ?allocate@?$Array@PAUQuickHullVertex@local@@VNamedAllocator@shdfnd@physx@@@shdfnd@physx@@IAEPAPAUQuickHullVertex@local@@I@Z 10033e30 f i QuickHullConvexHullLib.obj
 0001:00032ea0       ?allocate@?$Array@UExpandPoint@local@@VNamedAllocator@shdfnd@physx@@@shdfnd@physx@@IAEPAUExpandPoint@local@@I@Z 10033ea0 f i QuickHullConvexHullLib.obj
 0001:00032f10       ?allocate@?$ReflectionAllocator@VQuickHull@local@@@shdfnd@physx@@QAEPAXIPBDH@Z 10033f10 f i QuickHullConvexHullLib.obj
 0001:00032f60       ?capacity@?$Array@PAUQuickHullFace@local@@VNamedAllocator@shdfnd@physx@@@shdfnd@physx@@QBEIXZ 10033f60 f i QuickHullConvexHullLib.obj
 0001:00032f80       ?capacity@?$Array@PAUQuickHullHalfEdge@local@@VNamedAllocator@shdfnd@physx@@@shdfnd@physx@@QBEIXZ 10033f80 f i QuickHullConvexHullLib.obj
 0001:00032fa0       ?capacity@?$Array@PAUQuickHullVertex@local@@VNamedAllocator@shdfnd@physx@@@shdfnd@physx@@QBEIXZ 10033fa0 f i QuickHullConvexHullLib.obj
 0001:00032fc0       ?capacity@?$Array@UExpandPoint@local@@VNamedAllocator@shdfnd@physx@@@shdfnd@physx@@QBEIXZ 10033fc0 f i QuickHullConvexHullLib.obj
 0001:00032fe0       ?capacityIncrement@?$Array@PAUQuickHullFace@local@@VNamedAllocator@shdfnd@physx@@@shdfnd@physx@@IBEIXZ 10033fe0 f i QuickHullConvexHullLib.obj
 0001:00033020       ?capacityIncrement@?$Array@PAUQuickHullHalfEdge@local@@VNamedAllocator@shdfnd@physx@@@shdfnd@physx@@IBEIXZ 10034020 f i QuickHullConvexHullLib.obj
 0001:00033060       ?capacityIncrement@?$Array@PAUQuickHullVertex@local@@VNamedAllocator@shdfnd@physx@@@shdfnd@physx@@IBEIXZ 10034060 f i QuickHullConvexHullLib.obj
 0001:000330a0       ?capacityIncrement@?$Array@UExpandPoint@local@@VNamedAllocator@shdfnd@physx@@@shdfnd@physx@@IBEIXZ 100340a0 f i QuickHullConvexHullLib.obj
 0001:000330e0       ?clear@?$Array@PAUQuickHullFace@local@@VNamedAllocator@shdfnd@physx@@@shdfnd@physx@@QAEXXZ 100340e0 f i QuickHullConvexHullLib.obj
 0001:00033120       ?clear@?$Array@PAUQuickHullHalfEdge@local@@VNamedAllocator@shdfnd@physx@@@shdfnd@physx@@QAEXXZ 10034120 f i QuickHullConvexHullLib.obj
 0001:00033160       ?clear@?$Array@PAUQuickHullVertex@local@@VNamedAllocator@shdfnd@physx@@@shdfnd@physx@@QAEXXZ 10034160 f i QuickHullConvexHullLib.obj
 0001:000331a0       ?computeNormalAndCentroid@QuickHullFace@local@@QAEXXZ 100341a0 f i QuickHullConvexHullLib.obj
 0001:000333a0       ?copy@?$Array@PAUQuickHullFace@local@@VNamedAllocator@shdfnd@physx@@@shdfnd@physx@@KAXPAPAUQuickHullFace@local@@0PBQAU45@@Z 100343a0 f i QuickHullConvexHullLib.obj
 0001:000333f0       ?copy@?$Array@PAUQuickHullHalfEdge@local@@VNamedAllocator@shdfnd@physx@@@shdfnd@physx@@KAXPAPAUQuickHullHalfEdge@local@@0PBQAU45@@Z 100343f0 f i QuickHullConvexHullLib.obj
 0001:00033440       ?copy@?$Array@PAUQuickHullVertex@local@@VNamedAllocator@shdfnd@physx@@@shdfnd@physx@@KAXPAPAUQuickHullVertex@local@@0PBQAU45@@Z 10034440 f i QuickHullConvexHullLib.obj
 0001:00033490       ?copy@?$Array@UExpandPoint@local@@VNamedAllocator@shdfnd@physx@@@shdfnd@physx@@KAXPAUExpandPoint@local@@0PBU45@@Z 10034490 f i QuickHullConvexHullLib.obj
 0001:000334e0       ?deallocate@?$Array@PAUQuickHullFace@local@@VNamedAllocator@shdfnd@physx@@@shdfnd@physx@@IAEXPAX@Z 100344e0 f i QuickHullConvexHullLib.obj
 0001:00033500       ?deallocate@?$Array@PAUQuickHullHalfEdge@local@@VNamedAllocator@shdfnd@physx@@@shdfnd@physx@@IAEXPAX@Z 10034500 f i QuickHullConvexHullLib.obj
 0001:00033520       ?deallocate@?$Array@PAUQuickHullVertex@local@@VNamedAllocator@shdfnd@physx@@@shdfnd@physx@@IAEXPAX@Z 10034520 f i QuickHullConvexHullLib.obj
 0001:00033540       ?deallocate@?$Array@UExpandPoint@local@@VNamedAllocator@shdfnd@physx@@@shdfnd@physx@@IAEXPAX@Z 10034540 f i QuickHullConvexHullLib.obj
 0001:00033560       ?destroy@?$Array@PAUQuickHullFace@local@@VNamedAllocator@shdfnd@physx@@@shdfnd@physx@@KAXPAPAUQuickHullFace@local@@0@Z 10034560 f i QuickHullConvexHullLib.obj
 0001:00033580       ?destroy@?$Array@PAUQuickHullHalfEdge@local@@VNamedAllocator@shdfnd@physx@@@shdfnd@physx@@KAXPAPAUQuickHullHalfEdge@local@@0@Z 10034580 f i QuickHullConvexHullLib.obj
 0001:000335a0       ?destroy@?$Array@PAUQuickHullVertex@local@@VNamedAllocator@shdfnd@physx@@@shdfnd@physx@@KAXPAPAUQuickHullVertex@local@@0@Z 100345a0 f i QuickHullConvexHullLib.obj
 0001:000335c0       ?destroy@?$Array@UExpandPoint@local@@VNamedAllocator@shdfnd@physx@@@shdfnd@physx@@KAXPAUExpandPoint@local@@0@Z 100345c0 f i QuickHullConvexHullLib.obj
 0001:000335e0       ?distanceToPlane@QuickHullFace@local@@QBEMVPxVec3@physx@@@Z 100345e0 f i QuickHullConvexHullLib.obj
 0001:00033620       ?getEdge@QuickHullFace@local@@QBEPAUQuickHullHalfEdge@2@I@Z 10034620 f i QuickHullConvexHullLib.obj
 0001:00033660       ?getFreeHullFace@QuickHull@local@@IAEPAUQuickHullFace@2@XZ 10034660 f i QuickHullConvexHullLib.obj
 0001:00033680       ?getFreeHullHalfEdge@QuickHull@local@@IAEPAUQuickHullHalfEdge@2@XZ 10034680 f i QuickHullConvexHullLib.obj
 0001:000336a0       ?getFreeItem@?$MemBlock@UQuickHullFace@local@@$00@local@@QAEPAUQuickHullFace@2@XZ 100346a0 f i QuickHullConvexHullLib.obj
 0001:00033820       ?getFreeItem@?$MemBlock@UQuickHullHalfEdge@local@@$0A@@local@@QAEPAUQuickHullHalfEdge@2@XZ 10034820 f i QuickHullConvexHullLib.obj
 0001:00033990       ?getHead@QuickHullHalfEdge@local@@QBEABUQuickHullVertex@2@XZ 10034990 f i QuickHullConvexHullLib.obj
 0001:000339e0       ?getItem@?$MemBlock@UQuickHullFace@local@@$00@local@@QAEPAUQuickHullFace@2@I@Z 100349e0 f i QuickHullConvexHullLib.obj
 0001:00033aa0       ?getName@?$ReflectionAllocator@VQuickHull@local@@@shdfnd@physx@@CAPBDXZ 10034aa0 f i QuickHullConvexHullLib.obj
 0001:00033ae0       ?getNbHullVerts@QuickHull@local@@IAEIXZ 10034ae0 f i QuickHullConvexHullLib.obj
 0001:00033b00       ?getOppositeFace@QuickHullHalfEdge@local@@QBEPAUQuickHullFace@2@XZ 10034b00 f i QuickHullConvexHullLib.obj
 0001:00033b20       ?getTail@QuickHullHalfEdge@local@@QBEABUQuickHullVertex@2@XZ 10034b20 f i QuickHullConvexHullLib.obj
 0001:00033b30       ?grow@?$Array@PAUQuickHullFace@local@@VNamedAllocator@shdfnd@physx@@@shdfnd@physx@@IAEXI@Z 10034b30 f i QuickHullConvexHullLib.obj
 0001:00033b90       ?grow@?$Array@PAUQuickHullHalfEdge@local@@VNamedAllocator@shdfnd@physx@@@shdfnd@physx@@IAEXI@Z 10034b90 f i QuickHullConvexHullLib.obj
 0001:00033bf0       ?grow@?$Array@PAUQuickHullVertex@local@@VNamedAllocator@shdfnd@physx@@@shdfnd@physx@@IAEXI@Z 10034bf0 f i QuickHullConvexHullLib.obj
 0001:00033c50       ?grow@?$Array@UExpandPoint@local@@VNamedAllocator@shdfnd@physx@@@shdfnd@physx@@IAEXI@Z 10034c50 f i QuickHullConvexHullLib.obj
 0001:00033cb0       ?growAndPushBack@?$Array@PAUQuickHullFace@local@@VNamedAllocator@shdfnd@physx@@@shdfnd@physx@@IAEAAPAUQuickHullFace@local@@ABQAU45@@Z 10034cb0 f i QuickHullConvexHullLib.obj
 0001:00033de0       ?growAndPushBack@?$Array@PAUQuickHullHalfEdge@local@@VNamedAllocator@shdfnd@physx@@@shdfnd@physx@@IAEAAPAUQuickHullHalfEdge@local@@ABQAU45@@Z 10034de0 f i QuickHullConvexHullLib.obj
 0001:00033f10       ?growAndPushBack@?$Array@PAUQuickHullVertex@local@@VNamedAllocator@shdfnd@physx@@@shdfnd@physx@@IAEAAPAUQuickHullVertex@local@@ABQAU45@@Z 10034f10 f i QuickHullConvexHullLib.obj
 0001:00034040       ?growAndPushBack@?$Array@UExpandPoint@local@@VNamedAllocator@shdfnd@physx@@@shdfnd@physx@@IAEAAUExpandPoint@local@@ABU45@@Z 10035040 f i QuickHullConvexHullLib.obj
 0001:00034160       ?init@?$MemBlock@UQuickHullFace@local@@$00@local@@QAEXI@Z 10035160 f i QuickHullConvexHullLib.obj
 0001:00034240       ?init@?$MemBlock@UQuickHullHalfEdge@local@@$0A@@local@@QAEXI@Z 10035240 f i QuickHullConvexHullLib.obj
 0001:00034310       ?isInUserMemory@?$Array@PAUQuickHullFace@local@@VNamedAllocator@shdfnd@physx@@@shdfnd@physx@@QBEIXZ 10035310 f i QuickHullConvexHullLib.obj
 0001:00034330       ?isInUserMemory@?$Array@PAUQuickHullHalfEdge@local@@VNamedAllocator@shdfnd@physx@@@shdfnd@physx@@QBEIXZ 10035330 f i QuickHullConvexHullLib.obj
 0001:00034350       ?isInUserMemory@?$Array@PAUQuickHullVertex@local@@VNamedAllocator@shdfnd@physx@@@shdfnd@physx@@QBEIXZ 10035350 f i QuickHullConvexHullLib.obj
 0001:00034370       ?isInUserMemory@?$Array@UExpandPoint@local@@VNamedAllocator@shdfnd@physx@@@shdfnd@physx@@QBEIXZ 10035370 f i QuickHullConvexHullLib.obj
 0001:00034390       ?isTriangle@QuickHullFace@local@@ABE_NXZ 10035390 f i QuickHullConvexHullLib.obj
 0001:000343c0       ?pushBack@?$Array@PAUQuickHullFace@local@@VNamedAllocator@shdfnd@physx@@@shdfnd@physx@@QAEAAPAUQuickHullFace@local@@ABQAU45@@Z 100353c0 f i QuickHullConvexHullLib.obj
 0001:00034440       ?pushBack@?$Array@PAUQuickHullHalfEdge@local@@VNamedAllocator@shdfnd@physx@@@shdfnd@physx@@QAEAAPAUQuickHullHalfEdge@local@@ABQAU45@@Z 10035440 f i QuickHullConvexHullLib.obj
 0001:000344c0       ?pushBack@?$Array@PAUQuickHullVertex@local@@VNamedAllocator@shdfnd@physx@@@shdfnd@physx@@QAEAAPAUQuickHullVertex@local@@ABQAU45@@Z 100354c0 f i QuickHullConvexHullLib.obj
 0001:00034540       ?pushBack@?$Array@UExpandPoint@local@@VNamedAllocator@shdfnd@physx@@@shdfnd@physx@@QAEAAUExpandPoint@local@@ABU45@@Z 10035540 f i QuickHullConvexHullLib.obj
 0001:000345c0       ?recreate@?$Array@PAUQuickHullFace@local@@VNamedAllocator@shdfnd@physx@@@shdfnd@physx@@IAEXI@Z 100355c0 f i QuickHullConvexHullLib.obj
 0001:00034690       ?recreate@?$Array@PAUQuickHullHalfEdge@local@@VNamedAllocator@shdfnd@physx@@@shdfnd@physx@@IAEXI@Z 10035690 f i QuickHullConvexHullLib.obj
 0001:00034760       ?recreate@?$Array@PAUQuickHullVertex@local@@VNamedAllocator@shdfnd@physx@@@shdfnd@physx@@IAEXI@Z 10035760 f i QuickHullConvexHullLib.obj
 0001:00034830       ?recreate@?$Array@UExpandPoint@local@@VNamedAllocator@shdfnd@physx@@@shdfnd@physx@@IAEXI@Z 10035830 f i QuickHullConvexHullLib.obj
 0001:00034900       ?reserve@?$Array@PAUQuickHullFace@local@@VNamedAllocator@shdfnd@physx@@@shdfnd@physx@@QAEXI@Z 10035900 f i QuickHullConvexHullLib.obj
 0001:00034930       ?reserve@?$Array@PAUQuickHullHalfEdge@local@@VNamedAllocator@shdfnd@physx@@@shdfnd@physx@@QAEXI@Z 10035930 f i QuickHullConvexHullLib.obj
 0001:00034960       ?reserve@?$Array@PAUQuickHullVertex@local@@VNamedAllocator@shdfnd@physx@@@shdfnd@physx@@QAEXI@Z 10035960 f i QuickHullConvexHullLib.obj
 0001:00034990       ?reserve@?$Array@UExpandPoint@local@@VNamedAllocator@shdfnd@physx@@@shdfnd@physx@@QAEXI@Z 10035990 f i QuickHullConvexHullLib.obj
 0001:000349c0       ?reset@?$MemBlock@UQuickHullFace@local@@$00@local@@QAEXXZ 100359c0 f i QuickHullConvexHullLib.obj
 0001:00034a50       ?reset@?$MemBlock@UQuickHullHalfEdge@local@@$0A@@local@@QAEXXZ 10035a50 f i QuickHullConvexHullLib.obj
 0001:00034ae0       ?setTwin@QuickHullHalfEdge@local@@QAEXPAU12@@Z 10035ae0 f i QuickHullConvexHullLib.obj
 0001:00034b00       ?size@?$Array@PAUQuickHullFace@local@@VNamedAllocator@shdfnd@physx@@@shdfnd@physx@@QBEIXZ 10035b00 f i QuickHullConvexHullLib.obj
 0001:00034b20       ?size@?$Array@PAUQuickHullHalfEdge@local@@VNamedAllocator@shdfnd@physx@@@shdfnd@physx@@QBEIXZ 10035b20 f i QuickHullConvexHullLib.obj
 0001:00034b40       ?size@?$Array@PAUQuickHullVertex@local@@VNamedAllocator@shdfnd@physx@@@shdfnd@physx@@QBEIXZ 10035b40 f i QuickHullConvexHullLib.obj
 0001:00034b60       ?size@?$Array@UExpandPoint@local@@VNamedAllocator@shdfnd@physx@@@shdfnd@physx@@QBEIXZ 10035b60 f i QuickHullConvexHullLib.obj
 0001:00034bd0       ?computeVolumeIntegrals@physx@@YA_NABVPxSimpleTriangleMesh@1@MAAUPxIntegrals@1@@Z 10035bd0 f   VolumeIntegration.obj
 0001:00034c30       ?computeVolumeIntegralsEberly@physx@@YA_NABVPxConvexMeshDesc@1@MAAUPxIntegrals@1@ABVPxVec3@1@@Z 10035c30 f   VolumeIntegration.obj
 0001:00034c80       ?computeVolumeIntegralsEberlySIMD@physx@@YA_NABVPxConvexMeshDesc@1@MAAUPxIntegrals@1@ABVPxVec3@1@@Z 10035c80 f   VolumeIntegration.obj
 0001:000387f0       ??$swap@VPxVec3@physx@@@shdfnd@physx@@YAXAAVPxVec3@1@0@Z 100397f0 f i VolumeIntegration.obj
 0001:00038820       ??0PxSimpleTriangleMesh@physx@@QAE@XZ 10039820 f i VolumeIntegration.obj
 0001:00038850       ??4?$PxFlags@W4Enum@PxMeshFlag@physx@@G@physx@@QAEAAV01@ABV01@@Z 10039850 f i VolumeIntegration.obj
 0001:00038870       ??4PxSimpleTriangleMesh@physx@@QAEAAV01@ABV01@@Z 10039870 f i VolumeIntegration.obj
 0001:000388d0       ?FAllGrtr@aos@shdfnd@physx@@YAIT__m128@@0@Z 100398d0 f i VolumeIntegration.obj
 0001:00038990       ?V4Cross@aos@shdfnd@physx@@YA?AT__m128@@T4@0@Z 10039990 f i VolumeIntegration.obj
 0001:00038a60       ?V4Dot3@aos@shdfnd@physx@@YA?AT__m128@@T4@0@Z 10039a60 f i VolumeIntegration.obj
 0001:00038b20       ?V4PermYZXW@aos@shdfnd@physx@@YA?AT__m128@@T4@@Z 10039b20 f i VolumeIntegration.obj
 0001:00038b60       ?V4ScaleInv@aos@shdfnd@physx@@YA?AT__m128@@T4@0@Z 10039b60 f i VolumeIntegration.obj
 0001:00038be0       ?Vec4V_From_PxVec3_WUndefined@aos@shdfnd@physx@@YA?AT__m128@@ABVPxVec3@3@@Z 10039be0 f i VolumeIntegration.obj
 0001:00038c30       ?isZero@PxVec3@physx@@QBE_NXZ 10039c30 f i VolumeIntegration.obj
 0001:00038fa0       _PxSetPhysXCookingDelayLoadHook 10039fa0 f   WindowsCookingDelayLoadHook.obj
 0001:00038fb0       ?cookingDelayHook@@YGP6GHXZIPAUDelayLoadInfo@@@Z 10039fb0 f   WindowsCookingDelayLoadHook.obj
 0001:00039010       ?loadLibrary@Cm@physx@@YGPAUHINSTANCE__@@PBD@Z 1003a010 f i WindowsCookingDelayLoadHook.obj
 0001:00039030       ?physXCommonDliNotePreLoadLibrary@Cm@physx@@YGP6GHXZPBDPBVPxDelayLoadHook@2@@Z 1003a030 f i WindowsCookingDelayLoadHook.obj
 0001:000390a0       __imp_load_??0RadixSortBuffered@Cm@physx@@QAE@XZ 1003a0a0 f   PhysXCommon_32:PhysXCommon_32.dll
 0001:000390aa       ??0RadixSortBuffered@Cm@physx@@QAE@XZ 1003a0aa f   PhysXCommon_32:PhysXCommon_32.dll
 0001:000390b0       __tailMerge_physxcommon_32_dll 1003a0b0     PhysXCommon_32:PhysXCommon_32.dll
 0001:000390c1       __imp_load_??1RadixSortBuffered@Cm@physx@@UAE@XZ 1003a0c1 f   PhysXCommon_32:PhysXCommon_32.dll
 0001:000390cb       ??1RadixSortBuffered@Cm@physx@@UAE@XZ 1003a0cb f   PhysXCommon_32:PhysXCommon_32.dll
 0001:000390d1       __imp_load_?Sort@RadixSortBuffered@Cm@physx@@QAEAAV123@PBIIW4RadixHint@23@@Z 1003a0d1 f   PhysXCommon_32:PhysXCommon_32.dll
 0001:000390db       ?Sort@RadixSortBuffered@Cm@physx@@QAEAAV123@PBIIW4RadixHint@23@@Z 1003a0db f   PhysXCommon_32:PhysXCommon_32.dll
 0001:000390e1       __imp_load_?readDword@physx@@YAI_NAAVPxInputStream@1@@Z 1003a0e1 f   PhysXCommon_32:PhysXCommon_32.dll
 0001:000390eb       ?readDword@physx@@YAI_NAAVPxInputStream@1@@Z 1003a0eb f   PhysXCommon_32:PhysXCommon_32.dll
 0001:000390f1       __imp_load_?ReadHeader@Gu@physx@@YA_NEEEEAAIAA_NAAVPxInputStream@2@@Z 1003a0f1 f   PhysXCommon_32:PhysXCommon_32.dll
 0001:000390fb       ?ReadHeader@Gu@physx@@YA_NEEEEAAIAA_NAAVPxInputStream@2@@Z 1003a0fb f   PhysXCommon_32:PhysXCommon_32.dll
 0001:00039101       __imp_load_??0HeightField@Gu@physx@@QAE@PAVGuMeshFactory@2@@Z 1003a101 f   PhysXCommon_32:PhysXCommon_32.dll
 0001:0003910b       ??0HeightField@Gu@physx@@QAE@PAVGuMeshFactory@2@@Z 1003a10b f   PhysXCommon_32:PhysXCommon_32.dll
 0001:00039111       __imp_load_?loadFromDesc@HeightField@Gu@physx@@QAE_NABVPxHeightFieldDesc@3@@Z 1003a111 f   PhysXCommon_32:PhysXCommon_32.dll
 0001:0003911b       ?loadFromDesc@HeightField@Gu@physx@@QAE_NABVPxHeightFieldDesc@3@@Z 1003a11b f   PhysXCommon_32:PhysXCommon_32.dll
 0001:00039121       __imp_load_?computeCellCoordinates@HeightField@Gu@physx@@QBEIMMAAM0@Z 1003a121 f   PhysXCommon_32:PhysXCommon_32.dll
 0001:0003912b       ?computeCellCoordinates@HeightField@Gu@physx@@QBEIMMAAM0@Z 1003a12b f   PhysXCommon_32:PhysXCommon_32.dll
 0001:00039131       __imp_load_?releaseMemory@HeightField@Gu@physx@@QAEXXZ 1003a131 f   PhysXCommon_32:PhysXCommon_32.dll
 0001:0003913b       ?releaseMemory@HeightField@Gu@physx@@QAEXXZ 1003a13b f   PhysXCommon_32:PhysXCommon_32.dll
 0001:00039141       __imp_load_??1HeightField@Gu@physx@@UAE@XZ 1003a141 f   PhysXCommon_32:PhysXCommon_32.dll
 0001:0003914b       ??1HeightField@Gu@physx@@UAE@XZ 1003a14b f   PhysXCommon_32:PhysXCommon_32.dll
 0001:00039151       __imp_load_??0NodeAllocator@Gu@physx@@QAE@XZ 1003a151 f   PhysXCommon_32:PhysXCommon_32.dll
 0001:0003915b       ??0NodeAllocator@Gu@physx@@QAE@XZ 1003a15b f   PhysXCommon_32:PhysXCommon_32.dll
 0001:00039161       __imp_load_??1NodeAllocator@Gu@physx@@QAE@XZ 1003a161 f   PhysXCommon_32:PhysXCommon_32.dll
 0001:0003916b       ??1NodeAllocator@Gu@physx@@QAE@XZ 1003a16b f   PhysXCommon_32:PhysXCommon_32.dll
 0001:00039171       __imp_load_?release@NodeAllocator@Gu@physx@@QAEXXZ 1003a171 f   PhysXCommon_32:PhysXCommon_32.dll
 0001:0003917b       ?release@NodeAllocator@Gu@physx@@QAEXXZ 1003a17b f   PhysXCommon_32:PhysXCommon_32.dll
 0001:00039181       __imp_load_?buildAABBTree@Gu@physx@@YA_NAAVAABBTreeBuildParams@12@AAVNodeAllocator@12@AAUBuildStats@12@AAPAI@Z 1003a181 f   PhysXCommon_32:PhysXCommon_32.dll
 0001:0003918b       ?buildAABBTree@Gu@physx@@YA_NAAVAABBTreeBuildParams@12@AAVNodeAllocator@12@AAUBuildStats@12@AAPAI@Z 1003a18b f   PhysXCommon_32:PhysXCommon_32.dll
 0001:00039191       __imp_load_?writeDword@physx@@YAXI_NAAVPxOutputStream@1@@Z 1003a191 f   PhysXCommon_32:PhysXCommon_32.dll
 0001:0003919b       ?writeDword@physx@@YAXI_NAAVPxOutputStream@1@@Z 1003a19b f   PhysXCommon_32:PhysXCommon_32.dll
 0001:000391a1       __imp_load_?writeFloatBuffer@physx@@YAXPBMI_NAAVPxOutputStream@1@@Z 1003a1a1 f   PhysXCommon_32:PhysXCommon_32.dll
 0001:000391ab       ?writeFloatBuffer@physx@@YAXPBMI_NAAVPxOutputStream@1@@Z 1003a1ab f   PhysXCommon_32:PhysXCommon_32.dll
 0001:000391b1       __imp_load_?writeHeader@physx@@YA_NCCCCI_NAAVPxOutputStream@1@@Z 1003a1b1 f   PhysXCommon_32:PhysXCommon_32.dll
 0001:000391bb       ?writeHeader@physx@@YA_NCCCCI_NAAVPxOutputStream@1@@Z 1003a1bb f   PhysXCommon_32:PhysXCommon_32.dll
 0001:000391c1       __imp_load_?writeWord@physx@@YAXG_NAAVPxOutputStream@1@@Z 1003a1c1 f   PhysXCommon_32:PhysXCommon_32.dll
 0001:000391cb       ?writeWord@physx@@YAXG_NAAVPxOutputStream@1@@Z 1003a1cb f   PhysXCommon_32:PhysXCommon_32.dll
 0001:000391d1       __imp_load_?writeFloat@physx@@YAXM_NAAVPxOutputStream@1@@Z 1003a1d1 f   PhysXCommon_32:PhysXCommon_32.dll
 0001:000391db       ?writeFloat@physx@@YAXM_NAAVPxOutputStream@1@@Z 1003a1db f   PhysXCommon_32:PhysXCommon_32.dll
 0001:000391e1       __imp_load_?validate@RTree@Gu@physx@@QAEXPAUCallbackRefit@123@@Z 1003a1e1 f   PhysXCommon_32:PhysXCommon_32.dll
 0001:000391eb       ?validate@RTree@Gu@physx@@QAEXPAUCallbackRefit@123@@Z 1003a1eb f   PhysXCommon_32:PhysXCommon_32.dll
 0001:000391f1       __imp_load_?computeBoundsAroundVertices@Gu@physx@@YAXAAVPxBounds3@2@IPIBVPxVec3@2@@Z 1003a1f1 f   PhysXCommon_32:PhysXCommon_32.dll
 0001:000391fb       ?computeBoundsAroundVertices@Gu@physx@@YAXAAVPxBounds3@2@IPIBVPxVec3@2@@Z 1003a1fb f   PhysXCommon_32:PhysXCommon_32.dll
 0001:00039201       __imp_load_??0SourceMesh@Gu@physx@@QAE@XZ 1003a201 f   PhysXCommon_32:PhysXCommon_32.dll
 0001:0003920b       ??0SourceMesh@Gu@physx@@QAE@XZ 1003a20b f   PhysXCommon_32:PhysXCommon_32.dll
 0001:00039211       __imp_load_??1SourceMesh@Gu@physx@@QAE@XZ 1003a211 f   PhysXCommon_32:PhysXCommon_32.dll
 0001:0003921b       ??1SourceMesh@Gu@physx@@QAE@XZ 1003a21b f   PhysXCommon_32:PhysXCommon_32.dll
 0001:00039221       __imp_load_??0BV4Tree@Gu@physx@@QAE@XZ 1003a221 f   PhysXCommon_32:PhysXCommon_32.dll
 0001:0003922b       ??0BV4Tree@Gu@physx@@QAE@XZ 1003a22b f   PhysXCommon_32:PhysXCommon_32.dll
 0001:00039231       __imp_load_??1BV4Tree@Gu@physx@@QAE@XZ 1003a231 f   PhysXCommon_32:PhysXCommon_32.dll
 0001:0003923b       ??1BV4Tree@Gu@physx@@QAE@XZ 1003a23b f   PhysXCommon_32:PhysXCommon_32.dll
 0001:00039241       __imp_load_??0BV32Tree@Gu@physx@@QAE@XZ 1003a241 f   PhysXCommon_32:PhysXCommon_32.dll
 0001:0003924b       ??0BV32Tree@Gu@physx@@QAE@XZ 1003a24b f   PhysXCommon_32:PhysXCommon_32.dll
 0001:00039251       __imp_load_??1BV32Tree@Gu@physx@@QAE@XZ 1003a251 f   PhysXCommon_32:PhysXCommon_32.dll
 0001:0003925b       ??1BV32Tree@Gu@physx@@QAE@XZ 1003a25b f   PhysXCommon_32:PhysXCommon_32.dll
 0001:00039261       __imp_load_?writeWordBuffer@physx@@YAXPBGI_NAAVPxOutputStream@1@@Z 1003a261 f   PhysXCommon_32:PhysXCommon_32.dll
 0001:0003926b       ?writeWordBuffer@physx@@YAXPBGI_NAAVPxOutputStream@1@@Z 1003a26b f   PhysXCommon_32:PhysXCommon_32.dll
 0001:00039271       __imp_load_?computeMaxIndex@physx@@YAIPBII@Z 1003a271 f   PhysXCommon_32:PhysXCommon_32.dll
 0001:0003927b       ?computeMaxIndex@physx@@YAIPBII@Z 1003a27b f   PhysXCommon_32:PhysXCommon_32.dll
 0001:00039281       __imp_load_?storeIndices@physx@@YAXIIPBIAAVPxOutputStream@1@_N@Z 1003a281 f   PhysXCommon_32:PhysXCommon_32.dll
 0001:0003928b       ?storeIndices@physx@@YAXIIPBIAAVPxOutputStream@1@_N@Z 1003a28b f   PhysXCommon_32:PhysXCommon_32.dll
 0001:00039291       __imp_load_?BuildBV4Ex@Gu@physx@@YA_NAAVBV4Tree@12@AAVSourceMesh@12@MI@Z 1003a291 f   PhysXCommon_32:PhysXCommon_32.dll
 0001:0003929b       ?BuildBV4Ex@Gu@physx@@YA_NAAVBV4Tree@12@AAVSourceMesh@12@MI@Z 1003a29b f   PhysXCommon_32:PhysXCommon_32.dll
 0001:000392a1       __imp_load_?BuildBV32Ex@Gu@physx@@YA_NAAVBV32Tree@12@AAVSourceMesh@12@MI@Z 1003a2a1 f   PhysXCommon_32:PhysXCommon_32.dll
 0001:000392ab       ?BuildBV32Ex@Gu@physx@@YA_NAAVBV32Tree@12@AAVSourceMesh@12@MI@Z 1003a2ab f   PhysXCommon_32:PhysXCommon_32.dll
 0001:000392b1       __imp_load_?computeMaxIndex@physx@@YAGPBGI@Z 1003a2b1 f   PhysXCommon_32:PhysXCommon_32.dll
 0001:000392bb       ?computeMaxIndex@physx@@YAGPBGI@Z 1003a2bb f   PhysXCommon_32:PhysXCommon_32.dll
 0001:000392c1       __imp_load_?WriteHeader@Gu@physx@@YA_NEEEEI_NAAVPxOutputStream@2@@Z 1003a2c1 f   PhysXCommon_32:PhysXCommon_32.dll
 0001:000392cb       ?WriteHeader@Gu@physx@@YA_NEEEEI_NAAVPxOutputStream@2@@Z 1003a2cb f   PhysXCommon_32:PhysXCommon_32.dll
 0001:000392d1       __imp_load_?StoreIndices@Gu@physx@@YAXGIPBGAAVPxOutputStream@2@_N@Z 1003a2d1 f   PhysXCommon_32:PhysXCommon_32.dll
 0001:000392db       ?StoreIndices@Gu@physx@@YAXGIPBGAAVPxOutputStream@2@_N@Z 1003a2db f   PhysXCommon_32:PhysXCommon_32.dll
 0001:000392e1       __imp_load_?CreateOffsets@BigConvexData@physx@@IAEXXZ 1003a2e1 f   PhysXCommon_32:PhysXCommon_32.dll
 0001:000392eb       ?CreateOffsets@BigConvexData@physx@@IAEXXZ 1003a2eb f   PhysXCommon_32:PhysXCommon_32.dll
 0001:000392f1       __imp_load_?computeOBBPoints@Gu@physx@@YAXPIAVPxVec3@2@ABV32@1111@Z 1003a2f1 f   PhysXCommon_32:PhysXCommon_32.dll
 0001:000392fb       ?computeOBBPoints@Gu@physx@@YAXPIAVPxVec3@2@ABV32@1111@Z 1003a2fb f   PhysXCommon_32:PhysXCommon_32.dll
 0001:00039301       __imp_load_??0BigConvexData@physx@@QAE@XZ 1003a301 f   PhysXCommon_32:PhysXCommon_32.dll
 0001:0003930b       ??0BigConvexData@physx@@QAE@XZ 1003a30b f   PhysXCommon_32:PhysXCommon_32.dll
 0001:00039311       __imp_load_??1BigConvexData@physx@@QAE@XZ 1003a311 f   PhysXCommon_32:PhysXCommon_32.dll
 0001:0003931b       ??1BigConvexData@physx@@QAE@XZ 1003a31b f   PhysXCommon_32:PhysXCommon_32.dll
 0001:00039321       __imp_load_?PxGetAssertHandler@physx@@YAAAVPxAssertHandler@1@XZ 1003a321 f   PhysXFoundation_32:PhysXFoundation_32.dll
 0001:0003932b       ?PxGetAssertHandler@physx@@YAAAVPxAssertHandler@1@XZ 1003a32b f   PhysXFoundation_32:PhysXFoundation_32.dll
 0001:00039331       __tailMerge_physxfoundation_32_dll 1003a331     PhysXFoundation_32:PhysXFoundation_32.dll
 0001:00039342       __imp_load__PxGetFoundation 1003a342 f   PhysXFoundation_32:PhysXFoundation_32.dll
 0001:0003934c       _PxGetFoundation           1003a34c f   PhysXFoundation_32:PhysXFoundation_32.dll
 0001:00039352       __imp_load_?getAllocator@shdfnd@physx@@YAAAVPxAllocatorCallback@2@XZ 1003a352 f   PhysXFoundation_32:PhysXFoundation_32.dll
 0001:0003935c       ?getAllocator@shdfnd@physx@@YAAAVPxAllocatorCallback@2@XZ 1003a35c f   PhysXFoundation_32:PhysXFoundation_32.dll
 0001:00039362       __imp_load_??0NamedAllocator@shdfnd@physx@@QAE@PBD@Z 1003a362 f   PhysXFoundation_32:PhysXFoundation_32.dll
 0001:0003936c       ??0NamedAllocator@shdfnd@physx@@QAE@PBD@Z 1003a36c f   PhysXFoundation_32:PhysXFoundation_32.dll
 0001:00039372       __imp_load_?getInstance@Foundation@shdfnd@physx@@SAAAV123@XZ 1003a372 f   PhysXFoundation_32:PhysXFoundation_32.dll
 0001:0003937c       ?getInstance@Foundation@shdfnd@physx@@SAAAV123@XZ 1003a37c f   PhysXFoundation_32:PhysXFoundation_32.dll
 0001:00039382       __imp_load_?error@Foundation@shdfnd@physx@@QAAXW4Enum@PxErrorCode@3@PBDH1ZZ 1003a382 f   PhysXFoundation_32:PhysXFoundation_32.dll
 0001:0003938c       ?error@Foundation@shdfnd@physx@@QAAXW4Enum@PxErrorCode@3@PBDH1ZZ 1003a38c f   PhysXFoundation_32:PhysXFoundation_32.dll
 0001:00039392       __imp_load_?allocate@NamedAllocator@shdfnd@physx@@QAEPAXIPBDH@Z 1003a392 f   PhysXFoundation_32:PhysXFoundation_32.dll
 0001:0003939c       ?allocate@NamedAllocator@shdfnd@physx@@QAEPAXIPBDH@Z 1003a39c f   PhysXFoundation_32:PhysXFoundation_32.dll
 0001:000393a2       __imp_load_?deallocate@NamedAllocator@shdfnd@physx@@QAEXPAX@Z 1003a3a2 f   PhysXFoundation_32:PhysXFoundation_32.dll
 0001:000393ac       ?deallocate@NamedAllocator@shdfnd@physx@@QAEXPAX@Z 1003a3ac f   PhysXFoundation_32:PhysXFoundation_32.dll
 0001:000393b2       __imp_load_?incRefCount@Foundation@shdfnd@physx@@SAXXZ 1003a3b2 f   PhysXFoundation_32:PhysXFoundation_32.dll
 0001:000393bc       ?incRefCount@Foundation@shdfnd@physx@@SAXXZ 1003a3bc f   PhysXFoundation_32:PhysXFoundation_32.dll
 0001:000393c2       __imp_load_?decRefCount@Foundation@shdfnd@physx@@SAXXZ 1003a3c2 f   PhysXFoundation_32:PhysXFoundation_32.dll
 0001:000393cc       ?decRefCount@Foundation@shdfnd@physx@@SAXXZ 1003a3cc f   PhysXFoundation_32:PhysXFoundation_32.dll
 0001:000393d2       __imp_load_??0FPUGuard@shdfnd@physx@@QAE@XZ 1003a3d2 f   PhysXFoundation_32:PhysXFoundation_32.dll
 0001:000393dc       ??0FPUGuard@shdfnd@physx@@QAE@XZ 1003a3dc f   PhysXFoundation_32:PhysXFoundation_32.dll
 0001:000393e2       __imp_load_??1FPUGuard@shdfnd@physx@@QAE@XZ 1003a3e2 f   PhysXFoundation_32:PhysXFoundation_32.dll
 0001:000393ec       ??1FPUGuard@shdfnd@physx@@QAE@XZ 1003a3ec f   PhysXFoundation_32:PhysXFoundation_32.dll
 0001:000393f2       __imp_load_??1NamedAllocator@shdfnd@physx@@QAE@XZ 1003a3f2 f   PhysXFoundation_32:PhysXFoundation_32.dll
 0001:000393fc       ??1NamedAllocator@shdfnd@physx@@QAE@XZ 1003a3fc f   PhysXFoundation_32:PhysXFoundation_32.dll
 0001:00039402       __imp_load_??0NamedAllocator@shdfnd@physx@@QAE@ABV012@@Z 1003a402 f   PhysXFoundation_32:PhysXFoundation_32.dll
 0001:0003940c       ??0NamedAllocator@shdfnd@physx@@QAE@ABV012@@Z 1003a40c f   PhysXFoundation_32:PhysXFoundation_32.dll
 0001:00039412       __imp_load_?allocate@TempAllocator@shdfnd@physx@@QAEPAXIPBDH@Z 1003a412 f   PhysXFoundation_32:PhysXFoundation_32.dll
 0001:0003941c       ?allocate@TempAllocator@shdfnd@physx@@QAEPAXIPBDH@Z 1003a41c f   PhysXFoundation_32:PhysXFoundation_32.dll
 0001:00039422       __imp_load_?deallocate@TempAllocator@shdfnd@physx@@QAEXPAX@Z 1003a422 f   PhysXFoundation_32:PhysXFoundation_32.dll
 0001:0003942c       ?deallocate@TempAllocator@shdfnd@physx@@QAEXPAX@Z 1003a42c f   PhysXFoundation_32:PhysXFoundation_32.dll
 0001:00039432       __imp_load_?PxDiagonalize@physx@@YA?AVPxVec3@1@ABVPxMat33@1@AAVPxQuat@1@@Z 1003a432 f   PhysXFoundation_32:PhysXFoundation_32.dll
 0001:0003943c       ?PxDiagonalize@physx@@YA?AVPxVec3@1@ABVPxMat33@1@AAVPxQuat@1@@Z 1003a43c f   PhysXFoundation_32:PhysXFoundation_32.dll
 0001:00039442       _LoadLibraryA@4            1003a442 f   kernel32:KERNEL32.dll
 0001:00039448       ??$PFromRva@PAP6GHXZ@@YGPAP6GHXZK@Z 1003a448 f i Delayimp:delayhlp.obj
 0001:0003945a       ??$PFromRva@PAPAUHINSTANCE__@@@@YGPAPAUHINSTANCE__@@K@Z 1003a45a f i Delayimp:delayhlp.obj
 0001:0003946c       ??$PFromRva@PAU_IMAGE_IMPORT_BY_NAME@@@@YGPAU_IMAGE_IMPORT_BY_NAME@@K@Z 1003a46c f i Delayimp:delayhlp.obj
 0001:0003947e       ??$PFromRva@PAU_IMAGE_THUNK_DATA32@@@@YGPAU_IMAGE_THUNK_DATA32@@K@Z 1003a47e f i Delayimp:delayhlp.obj
 0001:00039490       ??$PFromRva@PBD@@YGPBDK@Z  1003a490 f i Delayimp:delayhlp.obj
 0001:000394a2       ??$PFromRva@PBUImgDelayDescr@@@@YGPBUImgDelayDescr@@K@Z 1003a4a2 f i Delayimp:delayhlp.obj
 0001:000394b4       ??$PFromRva@PBU_IMAGE_THUNK_DATA32@@@@YGPBU_IMAGE_THUNK_DATA32@@K@Z 1003a4b4 f i Delayimp:delayhlp.obj
 0001:000394c6       ?CountOfImports@@YGIPBU_IMAGE_THUNK_DATA32@@@Z 1003a4c6 f i Delayimp:delayhlp.obj
 0001:000394e1       ?DloadAcquireSectionWriteAccess@@YGXXZ 1003a4e1 f i Delayimp:delayhlp.obj
 0001:00039514       ?DloadGetSRWLockFunctionPointers@@YGEXZ 1003a514 f i Delayimp:delayhlp.obj
 0001:00039587       ?DloadLock@@YGXXZ          1003a587 f i Delayimp:delayhlp.obj
 0001:000395c6       ?DloadMakePermanentImageCommit@@YGXPAXK@Z 1003a5c6 f i Delayimp:delayhlp.obj
 0001:00039635       ?DloadObtainSection@@YGPAXPAK0@Z 1003a635 f i Delayimp:delayhlp.obj
 0001:000396b0       ?DloadProtectSection@@YGXKPAK@Z 1003a6b0 f i Delayimp:delayhlp.obj
 0001:0003971e       ?DloadReleaseSectionWriteAccess@@YGXXZ 1003a71e f i Delayimp:delayhlp.obj
 0001:00039754       ?DloadUnlock@@YGXXZ        1003a754 f i Delayimp:delayhlp.obj
 0001:00039795       ?IndexFromPImgThunkData@@YGIPBU_IMAGE_THUNK_DATA32@@0@Z 1003a795 f i Delayimp:delayhlp.obj
 0001:000398f5       _HRESULT_FROM_WIN32@4      1003a8f5 f i Delayimp:delayhlp.obj
 0001:0003990d       _ReadAcquire@4             1003a90d f i Delayimp:delayhlp.obj
 0001:0003991b       _ReadPointerAcquire@4      1003a91b f i Delayimp:delayhlp.obj
 0001:00039929       _WritePointerRelease@8     1003a929 f i Delayimp:delayhlp.obj
 0001:0003993a       _WriteRelease@8            1003a93a f i Delayimp:delayhlp.obj
 0001:0003994b       __InlineInterlockedCompareExchangePointer@12 1003a94b f i Delayimp:delayhlp.obj
 0001:00039961       ___FUnloadDelayLoadedDLL2@4 1003a961 f   Delayimp:delayhlp.obj
 0001:000399e5       ___HrLoadAllImportsForDll@4 1003a9e5 f   Delayimp:delayhlp.obj
 0001:00039a46       ___delayLoadHelper2@8      1003aa46 f   Delayimp:delayhlp.obj
 0001:00039cc0       ??3@YAXPAXI@Z              1003acc0 f   LIBCMTD:delete_scalar_size.obj
 0001:00039ce0       ??_V@YAXPAXI@Z             1003ace0 f   LIBCMTD:delete_array_size.obj
 0001:00039d00       __CRT_RTC_INIT             1003ad00 f   LIBCMTD:init.obj
 0001:00039d10       __CRT_RTC_INITW            1003ad10 f   LIBCMTD:init.obj
 0001:00039d20       __RTC_InitBase             1003ad20 f   LIBCMTD:init.obj
 0001:00039d50       __RTC_Shutdown             1003ad50 f   LIBCMTD:init.obj
 0001:00039d70       ??1type_info@@UAE@XZ       1003ad70 f   LIBCMTD:std_type_info_static.obj
 0001:00039d90       ??_Gtype_info@@UAEPAXI@Z   1003ad90 f i LIBCMTD:std_type_info_static.obj
 0001:00039d90       ??_Etype_info@@UAEPAXI@Z   1003ad90 f i LIBCMTD:std_type_info_static.obj
 0001:00039dc0       ?__scrt_initialize_type_info@@YAXXZ 1003adc0 f   LIBCMTD:tncleanup.obj
 0001:00039dd0       ?__scrt_uninitialize_type_info@@YAXXZ 1003add0 f   LIBCMTD:tncleanup.obj
 0001:00039df0       __alloca_probe_16          1003adf0 f   LIBCMTD:alloca16.obj
 0001:00039e06       __alloca_probe_8           1003ae06     LIBCMTD:alloca16.obj
 0001:00039e20       ??3@YAXPAX@Z               1003ae20 f   LIBCMTD:delete_scalar.obj
 0001:00039e40       ??_V@YAXPAX@Z              1003ae40 f   LIBCMTD:delete_array.obj
 0001:00039e60       __alloca_probe             1003ae60 f   LIBCMTD:chkstk.obj
 0001:00039e60       __chkstk                   1003ae60 f   LIBCMTD:chkstk.obj
 0001:00039e90       __ftoui3                   1003ae90 f   LIBCMTD:ftol3.obj
 0001:00039ed6       __ftoul3                   1003aed6 f   LIBCMTD:ftol3.obj
 0001:00039f48       __ftol3                    1003af48 f   LIBCMTD:ftol3.obj
 0001:00039fb5       __dtoui3                   1003afb5 f   LIBCMTD:ftol3.obj
 0001:0003a029       __dtoul3                   1003b029 f   LIBCMTD:ftol3.obj
 0001:0003a0cb       __dtol3                    1003b0cb f   LIBCMTD:ftol3.obj
 0001:0003a180       __ultod3                   1003b180 f   LIBCMTD:ftol3.obj
 0001:0003a1e0       __ltod3                    1003b1e0 f   LIBCMTD:ftol3.obj
 0001:0003a700       __CRT_INIT@12              1003b700 f   LIBCMTD:dll_dllmain.obj
 0001:0003a720       __DllMainCRTStartup@12     1003b720 f   LIBCMTD:dll_dllmain.obj
 0001:0003a750       @_guard_check_icall_nop@4  1003b750 f i LIBCMTD:guard_support.obj
 0001:0003a760       _ReadNoFence               1003b760 f i LIBCMTD:guard_support.obj
 0001:0003a780       _ReadPointerNoFence        1003b780 f i LIBCMTD:guard_support.obj
 0001:0003a7a0       __guard_icall_checks_enforced 1003b7a0 f i LIBCMTD:guard_support.obj
 0001:0003a7d0       ?_RTC_GetErrorFunc@@YAP6AHHPBDH00ZZPBX@Z 1003b7d0 f   LIBCMTD:userapi.obj
 0001:0003a7e0       ?_RTC_GetErrorFuncW@@YAP6AHHPB_WH00ZZPBX@Z 1003b7e0 f   LIBCMTD:userapi.obj
 0001:0003a7f0       __RTC_GetErrDesc           1003b7f0 f   LIBCMTD:userapi.obj
 0001:0003a810       __RTC_NumErrors            1003b810 f   LIBCMTD:userapi.obj
 0001:0003a820       __RTC_SetErrorFunc         1003b820 f   LIBCMTD:userapi.obj
 0001:0003a840       __RTC_SetErrorFuncW        1003b840 f   LIBCMTD:userapi.obj
 0001:0003a860       __RTC_SetErrorType         1003b860 f   LIBCMTD:userapi.obj
 0001:0003a890       ___isa_available_init      1003b890 f   LIBCMTD:cpu_disp.obj
 0001:0003ac40       ___security_init_cookie    1003bc40 f   LIBCMTD:gs_support.obj
 0001:0003acc0       _DllMain@12                1003bcc0 f   LIBCMTD:dll_dllmain_stub.obj
 0001:0003acd0       ___local_stdio_printf_options 1003bcd0 f i LIBCMTD:default_local_stdio_options.obj
 0001:0003ace0       ___local_stdio_scanf_options 1003bce0 f i LIBCMTD:default_local_stdio_options.obj
 0001:0003acf0       ___scrt_initialize_default_local_stdio_options 1003bcf0 f   LIBCMTD:default_local_stdio_options.obj
 0001:0003ad30       ?configure_argv@__scrt_narrow_argv_policy@@SAHXZ 1003bd30 f i LIBCMTD:utility.obj
 0001:0003ade0       ?initialize_environment@__scrt_narrow_environment_policy@@SAHXZ 1003bde0 f i LIBCMTD:utility.obj
 0001:0003ae60       _NtCurrentTeb              1003be60 f i LIBCMTD:utility.obj
 0001:0003ae70       ___scrt_acquire_startup_lock 1003be70 f   LIBCMTD:utility.obj
 0001:0003aec0       ___scrt_dllmain_after_initialize_c 1003bec0 f   LIBCMTD:utility.obj
 0001:0003aef0       ___scrt_dllmain_before_initialize_c 1003bef0 f   LIBCMTD:utility.obj
 0001:0003af10       ___scrt_dllmain_crt_thread_attach 1003bf10 f   LIBCMTD:utility.obj
 0001:0003af40       ___scrt_dllmain_crt_thread_detach 1003bf40 f   LIBCMTD:utility.obj
 0001:0003af60       ___scrt_dllmain_exception_filter 1003bf60 f   LIBCMTD:utility.obj
 0001:0003afb0       ___scrt_dllmain_uninitialize_c 1003bfb0 f   LIBCMTD:utility.obj
 0001:0003afe0       ___scrt_dllmain_uninitialize_critical 1003bfe0 f   LIBCMTD:utility.obj
 0001:0003b000       ___scrt_initialize_crt     1003c000 f   LIBCMTD:utility.obj
 0001:0003b050       ___scrt_initialize_onexit_tables 1003c050 f   LIBCMTD:utility.obj
 0001:0003b130       ___scrt_is_nonwritable_in_current_image 1003c130 f   LIBCMTD:utility.obj
 0001:0003b260       ___scrt_release_startup_lock 1003c260 f   LIBCMTD:utility.obj
 0001:0003b290       ___scrt_uninitialize_crt   1003c290 f   LIBCMTD:utility.obj
 0001:0003b2d0       __onexit                   1003c2d0 f   LIBCMTD:utility.obj
 0001:0003b340       _at_quick_exit             1003c340 f   LIBCMTD:utility.obj
 0001:0003b380       _atexit                    1003c380 f   LIBCMTD:utility.obj
 0001:0003b3b0       ___scrt_get_dyn_tls_init_callback 1003c3b0 f   LIBCMTD:dyn_tls_init.obj
 0001:0003b3c0       ___scrt_fastfail           1003c3c0 f   LIBCMTD:utility_desktop.obj
 0001:0003b500       ___scrt_get_show_window_mode 1003c500 f   LIBCMTD:utility_desktop.obj
 0001:0003b540       ___scrt_initialize_mta     1003c540 f   LIBCMTD:utility_desktop.obj
 0001:0003b550       ___scrt_initialize_winrt   1003c550 f   LIBCMTD:utility_desktop.obj
 0001:0003b560       ___scrt_is_managed_app     1003c560 f   LIBCMTD:utility_desktop.obj
 0001:0003b5f0       ___scrt_set_unhandled_exception_filter 1003c5f0 f   LIBCMTD:utility_desktop.obj
 0001:0003b600       ___scrt_stub_for_initialize_mta 1003c600 f   LIBCMTD:utility_desktop.obj
 0001:0003b600       ___scrt_exe_initialize_mta 1003c600 f   LIBCMTD:utility_desktop.obj
 0001:0003b610       ___scrt_unhandled_exception_filter@4 1003c610 f   LIBCMTD:utility_desktop.obj
 0001:0003b690       __crt_debugger_hook        1003c690 f   LIBCMTD:utility_desktop.obj
 0001:0003b6a0       __RTC_Initialize           1003c6a0 f   LIBCMTD:initsect.obj
 0001:0003b6d0       __RTC_Terminate            1003c6d0 f   LIBCMTD:initsect.obj
 0001:0003b790       ?_RTC_AllocaFailure@@YAXPAXPAU_RTC_ALLOCA_NODE@@H@Z 1003c790 f   LIBCMTD:error.obj
 0001:0003b880       ?_RTC_Failure@@YAXPAXH@Z   1003c880 f   LIBCMTD:error.obj
 0001:0003b8d0       ?_RTC_StackFailure@@YAXPAXPBD@Z 1003c8d0 f   LIBCMTD:error.obj
 0001:0003bc90       __RTC_UninitUse            1003cc90 f   LIBCMTD:error.obj
 0001:0003bd40       __vsprintf_s_l             1003cd40 f i LIBCMTD:error.obj
 0001:0003bd70       _sprintf_s                 1003cd70 f i LIBCMTD:error.obj
 0001:0003bd90       @__security_check_cookie@4 1003cd90 f   LIBCMTD:secchk.obj
 0001:0003bdb0       __get_startup_argv_mode    1003cdb0 f   LIBCMTD:argv_mode.obj
 0001:0003bdc0       ___scrt_is_ucrt_dll_in_use 1003cdc0 f   LIBCMTD:ucrt_detection.obj
 0001:0003c270       ?_RTC_GetSrcLine@@YAHPAEPA_WKPAH1K@Z 1003d270 f   LIBCMTD:pdblkup.obj
 0001:0003c5f0       __except_handler4_noexcept 1003d5f0 f   LIBCMTD:chandler4_noexcept.obj
 0001:0003c650       ___raise_securityfailure   1003d650 f   LIBCMTD:gs_report.obj
 0001:0003c680       ___report_gsfailure        1003d680 f   LIBCMTD:gs_report.obj
 0001:0003c790       ___report_rangecheckfailure 1003d790 f   LIBCMTD:gs_report.obj
 0001:0003c7a0       ___report_securityfailure  1003d7a0 f   LIBCMTD:gs_report.obj
 0001:0003c880       ___report_securityfailureEx 1003d880 f   LIBCMTD:gs_report.obj
 0001:0003c9b0       ??$__crt_interlocked_exchange_pointer@$$A6AXXZP6AXXZ@@YAP6AXXZPDS6AXXZQ6AXXZ@Z 1003d9b0 f i libvcruntimed:purevirt.obj
 0001:0003c9c0       ??$__crt_interlocked_read_pointer@$$A6AXXZ@@YAP6AXXZPDS6AXXZ@Z 1003d9c0 f i libvcruntimed:purevirt.obj
 0001:0003c9e0       ?__crt_interlocked_read_32@@YAHPDH@Z 1003d9e0 f i libvcruntimed:purevirt.obj
 0001:0003ca00       __get_purecall_handler     1003da00 f   libvcruntimed:purevirt.obj
 0001:0003ca20       __purecall                 1003da20 f   libvcruntimed:purevirt.obj
 0001:0003ca50       __set_purecall_handler     1003da50 f   libvcruntimed:purevirt.obj
 0001:0003ca70       _memset                    1003da70 f   libvcruntimed:memset.obj
 0001:0003cbf0       ??$?RD@__crt_internal_free_policy@@QBEXQBD@Z 1003dbf0 f i libvcruntimed:std_type_info.obj
 0001:0003cc10       ??$?RX@__crt_internal_free_policy@@QBEXQBX@Z 1003dc10 f i libvcruntimed:std_type_info.obj
 0001:0003cc30       ??$__crt_interlocked_compare_exchange_pointer@$$CBDPAD$$T@@YAPBDPDSBDQAD$$T@Z 1003dc30 f i libvcruntimed:std_type_info.obj
 0001:0003cc50       ??$__crt_interlocked_read_pointer@$$CBD@@YAPBDPDSBD@Z 1003dc50 f i libvcruntimed:std_type_info.obj
 0001:0003cc70       ??0?$__crt_unique_heap_ptr@DU__crt_internal_free_policy@@@@QAE@QAD@Z 1003dc70 f i libvcruntimed:std_type_info.obj
 0001:0003cc90       ??0?$__crt_unique_heap_ptr@XU__crt_internal_free_policy@@@@QAE@QAX@Z 1003dc90 f i libvcruntimed:std_type_info.obj
 0001:0003ccb0       ??1?$__crt_unique_heap_ptr@DU__crt_internal_free_policy@@@@QAE@XZ 1003dcb0 f i libvcruntimed:std_type_info.obj
 0001:0003ccd0       ??1?$__crt_unique_heap_ptr@XU__crt_internal_free_policy@@@@QAE@XZ 1003dcd0 f i libvcruntimed:std_type_info.obj
 0001:0003ccf0       ??B?$__crt_unique_heap_ptr@DU__crt_internal_free_policy@@@@QBE_NXZ 1003dcf0 f i libvcruntimed:std_type_info.obj
 0001:0003cd10       ??B?$__crt_unique_heap_ptr@XU__crt_internal_free_policy@@@@QBE_NXZ 1003dd10 f i libvcruntimed:std_type_info.obj
 0001:0003cda0       ?detach@?$__crt_unique_heap_ptr@XU__crt_internal_free_policy@@@@QAEPAXXZ 1003dda0 f i libvcruntimed:std_type_info.obj
 0001:0003cdd0       ?get@?$__crt_unique_heap_ptr@DU__crt_internal_free_policy@@@@QBEPADXZ 1003ddd0 f i libvcruntimed:std_type_info.obj
 0001:0003cde0       ?get@?$__crt_unique_heap_ptr@XU__crt_internal_free_policy@@@@QBEPAXXZ 1003dde0 f i libvcruntimed:std_type_info.obj
 0001:0003cdf0       ?is_valid@?$__crt_unique_heap_ptr@DU__crt_internal_free_policy@@@@QBE_NXZ 1003ddf0 f i libvcruntimed:std_type_info.obj
 0001:0003ce20       ?is_valid@?$__crt_unique_heap_ptr@XU__crt_internal_free_policy@@@@QBE_NXZ 1003de20 f i libvcruntimed:std_type_info.obj
 0001:0003ce50       ?release@?$__crt_unique_heap_ptr@DU__crt_internal_free_policy@@@@QAEXXZ 1003de50 f i libvcruntimed:std_type_info.obj
 0001:0003ce80       ?release@?$__crt_unique_heap_ptr@XU__crt_internal_free_policy@@@@QAEXXZ 1003de80 f i libvcruntimed:std_type_info.obj
 0001:0003ceb0       ___std_type_info_compare   1003deb0 f   libvcruntimed:std_type_info.obj
 0001:0003cee0       ___std_type_info_destroy_list 1003dee0 f   libvcruntimed:std_type_info.obj
 0001:0003cf20       ___std_type_info_hash      1003df20 f   libvcruntimed:std_type_info.obj
 0001:0003cf80       ___std_type_info_name      1003df80 f   libvcruntimed:std_type_info.obj
 0001:0003d160       _memcpy                    1003e160 f   libvcruntimed:memcpy.obj
 0001:0003d6e0       _strstr                    1003e6e0 f   libvcruntimed:strstr.obj
 0001:0003d9b0       __except_handler4          1003e9b0 f   libvcruntimed:chandler4.obj
 0001:0003dba0       ___vcrt_initialize         1003eba0 f   libvcruntimed:initialization.obj
 0001:0003dbe0       ___vcrt_thread_attach      1003ebe0 f   libvcruntimed:initialization.obj
 0001:0003dc00       ___vcrt_thread_detach      1003ec00 f   libvcruntimed:initialization.obj
 0001:0003dc20       ___vcrt_uninitialize       1003ec20 f   libvcruntimed:initialization.obj
 0001:0003dc40       ___vcrt_uninitialize_critical 1003ec40 f   libvcruntimed:initialization.obj
 0001:0003dc60       ___DestructExceptionObject 1003ec60 f   libvcruntimed:ehhelpers.obj
 0001:0003dd80       ?_CallMemberFunction0@@YGXQAX0@Z 1003ed80 f i libvcruntimed:ehhelpers.obj
 0001:0003de20       ?raw_name@type_info@@QBEPBDXZ 1003ee20 f i libvcruntimed:ehhelpers.obj
 0001:0003de40       __IsExceptionObjectToBeDestroyed 1003ee40 f   libvcruntimed:ehhelpers.obj
 0001:0003de80       __SetWinRTOutOfMemoryExceptionCallback 1003ee80 f   libvcruntimed:ehhelpers.obj
 0001:0003de90       ___AdjustPointer           1003ee90 f   libvcruntimed:ehhelpers.obj
 0001:0003dee0       ___FrameUnwindFilter       1003eee0 f   libvcruntimed:ehhelpers.obj
 0001:0003df70       ___GetPlatformExceptionInfo 1003ef70 f   libvcruntimed:ehhelpers.obj
 0001:0003dff0       ___current_exception       1003eff0 f   libvcruntimed:ehhelpers.obj
 0001:0003e000       ___current_exception_context 1003f000 f   libvcruntimed:ehhelpers.obj
 0001:0003e010       ___processing_throw        1003f010 f   libvcruntimed:ehhelpers.obj
 0001:0003e020       ___std_terminate           1003f020 f   libvcruntimed:ehhelpers.obj
 0001:0003e030       __is_exception_typeof      1003f030 f   libvcruntimed:ehhelpers.obj
 0001:0003e110       ___vcrt_GetModuleFileNameW 1003f110 f   libvcruntimed:winapi_thunks.obj
 0001:0003e130       ___vcrt_GetModuleHandleW   1003f130 f   libvcruntimed:winapi_thunks.obj
 0001:0003e140       ___vcrt_LoadLibraryExW     1003f140 f   libvcruntimed:winapi_thunks.obj
 0001:0003e160       ??$?0$00@DName@@QAE@PBDU?$StringLifeSelector@$00@@@Z 1003f160 f i libvcruntimed:undname.obj
 0001:0003e1b0       ??$?0$00@pcharNode@@QAE@PBDHU?$StringLifeSelector@$00@@@Z 1003f1b0 f i libvcruntimed:undname.obj
 0001:0003e1f0       ??$?0$01@DName@@QAE@PBDU?$StringLifeSelector@$01@@@Z 1003f1f0 f i libvcruntimed:undname.obj
 0001:0003e240       ??$?0$01@pcharNode@@QAE@PBDHU?$StringLifeSelector@$01@@@Z 1003f240 f i libvcruntimed:undname.obj
 0001:0003e2c0       ??$?0$0A@@DName@@QAE@PBDU?$StringLifeSelector@$0A@@@@Z 1003f2c0 f i libvcruntimed:undname.obj
 0001:0003e310       ??$?0$0A@@pcharNode@@QAE@PBDHU?$StringLifeSelector@$0A@@@@Z 1003f310 f i libvcruntimed:undname.obj
 0001:0003e390       ??$append@VDNameNode@@@DName@@AAEXPBVDNameNode@@@Z 1003f390 f i libvcruntimed:undname.obj
 0001:0003e420       ??$append@VDNameStatusNode@@@DName@@AAEXPBVDNameStatusNode@@@Z 1003f420 f i libvcruntimed:undname.obj
 0001:0003e4b0       ??$append@VcharNode@@@DName@@AAEXPBVcharNode@@@Z 1003f4b0 f i libvcruntimed:undname.obj
 0001:0003e540       ??$append@VpDNameNode@@@DName@@AAEXPBVpDNameNode@@@Z 1003f540 f i libvcruntimed:undname.obj
 0001:0003e5d0       ??$append@VpcharNode@@@DName@@AAEXPBVpcharNode@@@Z 1003f5d0 f i libvcruntimed:undname.obj
 0001:0003e660       ??$doPchar@$00@DName@@AAEXPBDH@Z 1003f660 f i libvcruntimed:undname.obj
 0001:0003e770       ??$doPchar@$01@DName@@AAEXPBDH@Z 1003f770 f i libvcruntimed:undname.obj
 0001:0003e880       ??$doPchar@$0A@@DName@@AAEXPBDH@Z 1003f880 f i libvcruntimed:undname.obj
 0001:0003e990       ??0Block@_HeapManager@@QAE@XZ 1003f990 f i libvcruntimed:undname.obj
 0001:0003e9b0       ??0DName@@QAE@AAPBDD@Z     1003f9b0 f   libvcruntimed:undname.obj
 0001:0003eb20       ??0DName@@QAE@ABUStringLiteral@@@Z 1003fb20 f   libvcruntimed:undname.obj
 0001:0003eb70       ??0DName@@QAE@ABV0@@Z      1003fb70 f i libvcruntimed:undname.obj
 0001:0003eba0       ??0DName@@QAE@D@Z          1003fba0 f   libvcruntimed:undname.obj
 0001:0003ebd0       ??0DName@@QAE@PAV0@@Z      1003fbd0 f   libvcruntimed:undname.obj
 0001:0003ec80       ??0DName@@QAE@W4DNameStatus@@@Z 1003fc80 f   libvcruntimed:undname.obj
 0001:0003ed20       ??0DName@@QAE@XZ           1003fd20 f i libvcruntimed:undname.obj
 0001:0003ed50       ??0DName@@QAE@_J@Z         1003fd50 f   libvcruntimed:undname.obj
 0001:0003ee40       ??0DName@@QAE@_K@Z         1003fe40 f   libvcruntimed:undname.obj
 0001:0003eef0       ??0DNameNode@@IAE@XZ       1003fef0 f i libvcruntimed:undname.obj
 0001:0003ef10       ??0Replicator@@QAE@XZ      1003ff10 f i libvcruntimed:undname.obj
 0001:0003ef50       ??0UnDecorator@@QAE@PBDP6APADJ@ZK@Z 1003ff50 f i libvcruntimed:undname.obj
 0001:0003efd0       ??0charNode@@QAE@D@Z       1003ffd0 f i libvcruntimed:undname.obj
 0001:0003f000       ??0pDNameNode@@QAE@PAVDName@@@Z 10040000 f   libvcruntimed:undname.obj
 0001:0003f060       ??0pairNode@@QAE@PBVDNameNode@@0@Z 10040060 f i libvcruntimed:undname.obj
 0001:0003f0c0       ??2@YAPAXIAAV_HeapManager@@H@Z 100400c0 f   libvcruntimed:undname.obj
 0001:0003f100       ??4DName@@QAEAAV0@ABUStringLiteral@@@Z 10040100 f   libvcruntimed:undname.obj
 0001:0003f140       ??4DName@@QAEAAV0@ABV0@@Z  10040140 f   libvcruntimed:undname.obj
 0001:0003f170       ??4DName@@QAEAAV0@D@Z      10040170 f i libvcruntimed:undname.obj
 0001:0003f1a0       ??4DName@@QAEAAV0@PAV0@@Z  100401a0 f   libvcruntimed:undname.obj
 0001:0003f240       ??4DName@@QAEAAV0@W4DNameStatus@@@Z 10040240 f   libvcruntimed:undname.obj
 0001:0003f2c0       ??AReplicator@@QBE?AVDName@@H@Z 100402c0 f   libvcruntimed:undname.obj
 0001:0003f330       ??H@YA?AVDName@@ABUStringLiteral@@ABV0@@Z 10040330 f i libvcruntimed:undname.obj
 0001:0003f360       ??H@YA?AVDName@@DABV0@@Z   10040360 f i libvcruntimed:undname.obj
 0001:0003f390       ??H@YA?AVDName@@W4DNameStatus@@ABV0@@Z 10040390 f i libvcruntimed:undname.obj
 0001:0003f3c0       ??HDName@@QBE?AV0@ABUStringLiteral@@@Z 100403c0 f   libvcruntimed:undname.obj
 0001:0003f400       ??HDName@@QBE?AV0@ABV0@@Z  10040400 f   libvcruntimed:undname.obj
 0001:0003f440       ??HDName@@QBE?AV0@D@Z      10040440 f   libvcruntimed:undname.obj
 0001:0003f480       ??HDName@@QBE?AV0@PAV0@@Z  10040480 f   libvcruntimed:undname.obj
 0001:0003f4c0       ??HDName@@QBE?AV0@W4DNameStatus@@@Z 100404c0 f   libvcruntimed:undname.obj
 0001:0003f500       ??HStringLiteral@@QBE?AU0@H@Z 10040500 f i libvcruntimed:undname.obj
 0001:0003f530       ??YDName@@QAEAAV0@ABUStringLiteral@@@Z 10040530 f   libvcruntimed:undname.obj
 0001:0003f5d0       ??YDName@@QAEAAV0@ABV0@@Z  100405d0 f   libvcruntimed:undname.obj
 0001:0003f670       ??YDName@@QAEAAV0@D@Z      10040670 f   libvcruntimed:undname.obj
 0001:0003f6f0       ??YDName@@QAEAAV0@PAV0@@Z  100406f0 f   libvcruntimed:undname.obj
 0001:0003f7a0       ??YDName@@QAEAAV0@W4DNameStatus@@@Z 100407a0 f   libvcruntimed:undname.obj
 0001:0003f800       ??YReplicator@@QAEAAV0@ABVDName@@@Z 10040800 f   libvcruntimed:undname.obj
 0001:0003f890       ??_5DName@@QAEAAV0@ABV0@@Z 10040890 f   libvcruntimed:undname.obj
 0001:0003f8f0       ??__K_l@@YA?AUStringLiteral@@PBDI@Z 100408f0 f i libvcruntimed:undname.obj
 0001:0003f910       ?Constructor@_HeapManager@@QAEXP6APAXI@ZP6AXPAX@Z@Z 10040910 f i libvcruntimed:undname.obj
 0001:0003f950       ?Destructor@_HeapManager@@QAEXXZ 10040950 f i libvcruntimed:undname.obj
 0001:0003f9c0       ?UScore@UnDecorator@@SA?AUStringLiteral@@W4Tokens@@@Z 100409c0 f   libvcruntimed:undname.obj
 0001:0003fa10       ?composeDeclaration@UnDecorator@@CA?AVDName@@ABV2@@Z 10040a10 f i libvcruntimed:undname.obj
 0001:00041980       ?dbGetString@DName@@QBEPADXZ 10042980 f   libvcruntimed:undname.obj
 0001:000419a0       ?doAccessSpecifiers@UnDecorator@@SAHXZ 100429a0 f i libvcruntimed:undname.obj
 0001:000419d0       ?doAllocationLanguage@UnDecorator@@SAHXZ 100429d0 f i libvcruntimed:undname.obj
 0001:00041a00       ?doAllocationModel@UnDecorator@@SAHXZ 10042a00 f i libvcruntimed:undname.obj
 0001:00041a30       ?doEcsu@UnDecorator@@SAHXZ 10042a30 f i libvcruntimed:undname.obj
 0001:00041a60       ?doEllipsis@UnDecorator@@SAHXZ 10042a60 f i libvcruntimed:undname.obj
 0001:00041a90       ?doFunctionReturns@UnDecorator@@SAHXZ 10042a90 f i libvcruntimed:undname.obj
 0001:00041ac0       ?doMSKeywords@UnDecorator@@SAHXZ 10042ac0 f i libvcruntimed:undname.obj
 0001:00041af0       ?doMemberTypes@UnDecorator@@SAHXZ 10042af0 f i libvcruntimed:undname.obj
 0001:00041b20       ?doNameOnly@UnDecorator@@SAHXZ 10042b20 f i libvcruntimed:undname.obj
 0001:00041b30       ?doNoIdentCharCheck@UnDecorator@@SAHXZ 10042b30 f i libvcruntimed:undname.obj
 0001:00041b40       ?doPchar@DName@@AAEXD@Z    10042b40 f   libvcruntimed:undname.obj
 0001:00041bb0       ?doPtr64@UnDecorator@@SAHXZ 10042bb0 f i libvcruntimed:undname.obj
 0001:00041be0       ?doRestrictionSpec@UnDecorator@@SAHXZ 10042be0 f i libvcruntimed:undname.obj
 0001:00041c10       ?doThisTypes@UnDecorator@@SAHXZ 10042c10 f i libvcruntimed:undname.obj
 0001:00041c40       ?doThrowTypes@UnDecorator@@SAHXZ 10042c40 f i libvcruntimed:undname.obj
 0001:00041c70       ?doTypeOnly@UnDecorator@@SAHXZ 10042c70 f i libvcruntimed:undname.obj
 0001:00041c80       ?doUnderScore@UnDecorator@@SAHXZ 10042c80 f i libvcruntimed:undname.obj
 0001:00041cb0       ?getArgumentList@UnDecorator@@CA?AVDName@@XZ 10042cb0 f   libvcruntimed:undname.obj
 0001:00041e00       ?getArgumentTypes@UnDecorator@@CA?AVDName@@XZ 10042e00 f   libvcruntimed:undname.obj
 0001:00042010       ?getArrayType@UnDecorator@@CA?AVDName@@ABV2@@Z 10043010 f i libvcruntimed:undname.obj
 0001:000422b0       ?getBasedType@UnDecorator@@CA?AVDName@@XZ 100432b0 f   libvcruntimed:undname.obj
 0001:000423a0       ?getBasicDataType@UnDecorator@@CA?AVDName@@ABV2@@Z 100433a0 f   libvcruntimed:undname.obj
 0001:00042cb0       ?getCHPEName@UnDecorator@@QAEPADPADH@Z 10043cb0 f i libvcruntimed:undname.obj
 0001:00042e10       ?getCallIndex@UnDecorator@@CA?AVDName@@XZ 10043e10 f i libvcruntimed:undname.obj
 0001:00042e30       ?getCallingConvention@UnDecorator@@CA?AVDName@@XZ 10043e30 f   libvcruntimed:undname.obj
 0001:00043070       ?getDataIndirectType@UnDecorator@@CA?AVDName@@ABV2@W4IndirectionKind@@0H@Z 10044070 f   libvcruntimed:undname.obj
 0001:00043990       ?getDataIndirectType@UnDecorator@@CA?AVDName@@XZ 10044990 f i libvcruntimed:undname.obj
 0001:000439d0       ?getDataType@UnDecorator@@CA?AVDName@@PAV2@@Z 100449d0 f   libvcruntimed:undname.obj
 0001:00043b10       ?getDecoratedName@UnDecorator@@CA?AVDName@@XZ 10044b10 f   libvcruntimed:undname.obj
 0001:00043f50       ?getDimension@UnDecorator@@CA?AVDName@@_N@Z 10044f50 f   libvcruntimed:undname.obj
 0001:00044230       ?getDispatchTarget@UnDecorator@@CA?AVDName@@XZ 10045230 f   libvcruntimed:undname.obj
 0001:000442d0       ?getDisplacement@UnDecorator@@CA?AVDName@@XZ 100452d0 f i libvcruntimed:undname.obj
 0001:000442f0       ?getECSUDataType@UnDecorator@@CA?AVDName@@XZ 100452f0 f   libvcruntimed:undname.obj
 0001:00044530       ?getECSUName@UnDecorator@@CA?AVDName@@XZ 10045530 f i libvcruntimed:undname.obj
 0001:00044550       ?getEnumType@UnDecorator@@CA?AVDName@@XZ 10045550 f i libvcruntimed:undname.obj
 0001:00044700       ?getExtendedDataIndirectType@UnDecorator@@CA?AVDName@@AAW4IndirectionKind@@AA_NH@Z 10045700 f   libvcruntimed:undname.obj
 0001:00044950       ?getExternalDataType@UnDecorator@@CA?AVDName@@ABV2@@Z 10045950 f i libvcruntimed:undname.obj
 0001:000449f0       ?getFunctionIndirectType@UnDecorator@@CA?AVDName@@ABV2@@Z 100459f0 f   libvcruntimed:undname.obj
 0001:00044ed0       ?getGuardNumber@UnDecorator@@CA?AVDName@@XZ 10045ed0 f i libvcruntimed:undname.obj
 0001:00044ef0       ?getLastChar@DName@@QBEDXZ 10045ef0 f i libvcruntimed:undname.obj
 0001:00044f30       ?getLastChar@DNameStatusNode@@UBEDXZ 10045f30 f i libvcruntimed:undname.obj
 0001:00044f60       ?getLastChar@charNode@@UBEDXZ 10045f60 f i libvcruntimed:undname.obj
 0001:00044f80       ?getLastChar@pDNameNode@@UBEDXZ 10045f80 f i libvcruntimed:undname.obj
 0001:00044fb0       ?getLastChar@pairNode@@UBEDXZ 10045fb0 f i libvcruntimed:undname.obj
 0001:00045020       ?getLastChar@pcharNode@@UBEDXZ 10046020 f i libvcruntimed:undname.obj
 0001:00045060       ?getLexicalFrame@UnDecorator@@CA?AVDName@@XZ 10046060 f i libvcruntimed:undname.obj
 0001:000450a0       ?getMemoryWithBuffer@_HeapManager@@QAEPAXI@Z 100460a0 f   libvcruntimed:undname.obj
 0001:00045190       ?getMemoryWithoutBuffer@_HeapManager@@QAEPAXI@Z 10046190 f   libvcruntimed:undname.obj
 0001:000451d0       ?getNoexcept@UnDecorator@@CA?AVDName@@XZ 100461d0 f   libvcruntimed:undname.obj
 0001:00045250       ?getNumberOfDimensions@UnDecorator@@CAHXZ 10046250 f   libvcruntimed:undname.obj
 0001:00045350       ?getOperatorName@UnDecorator@@CA?AVDName@@_NPA_N@Z 10046350 f i libvcruntimed:undname.obj
 0001:00045df0       ?getPointerType@UnDecorator@@CA?AVDName@@ABV2@0@Z 10046df0 f i libvcruntimed:undname.obj
 0001:00045e10       ?getPointerTypeArray@UnDecorator@@CA?AVDName@@ABV2@0@Z 10046e10 f i libvcruntimed:undname.obj
 0001:00045e30       ?getPrimaryDataType@UnDecorator@@CA?AVDName@@ABV2@@Z 10046e30 f   libvcruntimed:undname.obj
 0001:000462a0       ?getPtrRefDataType@UnDecorator@@CA?AVDName@@ABV2@H@Z 100472a0 f   libvcruntimed:undname.obj
 0001:00046550       ?getPtrRefType@UnDecorator@@CA?AVDName@@ABV2@0W4IndirectionKind@@@Z 10047550 f   libvcruntimed:undname.obj
 0001:000466d0       ?getReferenceType@UnDecorator@@CA?AVDName@@ABV2@0W4IndirectionKind@@@Z 100476d0 f i libvcruntimed:undname.obj
 0001:000466f0       ?getRestrictionSpec@UnDecorator@@CA?AVDName@@XZ 100476f0 f   libvcruntimed:undname.obj
 0001:000468b0       ?getReturnType@UnDecorator@@CA?AVDName@@PAV2@@Z 100478b0 f   libvcruntimed:undname.obj
 0001:00046900       ?getScope@UnDecorator@@CA?AVDName@@XZ 10047900 f   libvcruntimed:undname.obj
 0001:00046e90       ?getScopedName@UnDecorator@@CA?AVDName@@XZ 10047e90 f   libvcruntimed:undname.obj
 0001:00046fe0       ?getSignedDimension@UnDecorator@@CA?AVDName@@XZ 10047fe0 f   libvcruntimed:undname.obj
 0001:00047060       ?getStorageConvention@UnDecorator@@CA?AVDName@@XZ 10048060 f i libvcruntimed:undname.obj
 0001:00047080       ?getString@DName@@QBEPADPAD0@Z 10048080 f i libvcruntimed:undname.obj
 0001:000470e0       ?getString@DName@@QBEPADPADH@Z 100480e0 f i libvcruntimed:undname.obj
 0001:00047170       ?getString@DNameStatusNode@@UBEPADPAD0@Z 10048170 f i libvcruntimed:undname.obj
 0001:000471b0       ?getString@charNode@@UBEPADPAD0@Z 100481b0 f i libvcruntimed:undname.obj
 0001:000471e0       ?getString@pDNameNode@@UBEPADPAD0@Z 100481e0 f i libvcruntimed:undname.obj
 0001:00047220       ?getString@pairNode@@UBEPADPAD0@Z 10048220 f i libvcruntimed:undname.obj
 0001:000472b0       ?getString@pcharNode@@UBEPADPAD0@Z 100482b0 f i libvcruntimed:undname.obj
 0001:000472e0       ?getStringEncoding@UnDecorator@@CA?AVDName@@W4PrefixKind@@H@Z 100482e0 f   libvcruntimed:undname.obj
 0001:000473f0       ?getStringHelper@@YAPADPADPBD1H@Z 100483f0 f i libvcruntimed:undname.obj
 0001:00047430       ?getSymbolName@UnDecorator@@CA?AVDName@@XZ 10048430 f i libvcruntimed:undname.obj
 0001:000474c0       ?getTemplateArgumentList@UnDecorator@@CA?AVDName@@XZ 100484c0 f   libvcruntimed:undname.obj
 0001:00047790       ?getTemplateName@UnDecorator@@CA?AVDName@@_N@Z 10048790 f   libvcruntimed:undname.obj
 0001:00047950       ?getTemplateNonTypeArgument@UnDecorator@@CA?AVDName@@XZ 10048950 f   libvcruntimed:undname.obj
 0001:00048010       ?getTemplateTypeArgument@UnDecorator@@CA?AVDName@@XZ 10049010 f   libvcruntimed:undname.obj
 0001:000481b0       ?getThisType@UnDecorator@@CA?AVDName@@XZ 100491b0 f i libvcruntimed:undname.obj
 0001:000481f0       ?getThrowTypes@UnDecorator@@CA?AVDName@@XZ 100491f0 f   libvcruntimed:undname.obj
 0001:00048230       ?getTypeEncoding@UnDecorator@@CAHXZ 10049230 f i libvcruntimed:undname.obj
 0001:00048cf0       ?getUndecoratedName@UnDecorator@@QAEPADPADH@Z 10049cf0 f i libvcruntimed:undname.obj
 0001:00048e50       ?getVCallThunkType@UnDecorator@@CA?AVDName@@XZ 10049e50 f i libvcruntimed:undname.obj
 0001:00048ed0       ?getVbTableType@UnDecorator@@CA?AVDName@@ABV2@@Z 10049ed0 f i libvcruntimed:undname.obj
 0001:00048ef0       ?getVdispMapType@UnDecorator@@CA?AVDName@@ABV2@@Z 10049ef0 f i libvcruntimed:undname.obj
 0001:00048f90       ?getVfTableType@UnDecorator@@CA?AVDName@@ABV2@@Z 10049f90 f i libvcruntimed:undname.obj
 0001:00049190       ?getZName@UnDecorator@@CA?AVDName@@_N0@Z 1004a190 f   libvcruntimed:undname.obj
 0001:000494d0       ?haveTemplateParameters@UnDecorator@@SAHXZ 1004a4d0 f i libvcruntimed:undname.obj
 0001:000494e0       ?isArray@DName@@QBEHXZ     1004a4e0 f i libvcruntimed:undname.obj
 0001:00049500       ?isComArray@DName@@QBEHXZ  1004a500 f i libvcruntimed:undname.obj
 0001:00049520       ?isEmpty@DName@@QBEHXZ     1004a520 f i libvcruntimed:undname.obj
 0001:00049550       ?isFull@Replicator@@QBEHXZ 1004a550 f i libvcruntimed:undname.obj
 0001:00049580       ?isNoTE@DName@@QBEHXZ      1004a580 f i libvcruntimed:undname.obj
 0001:000495a0       ?isPinPtr@DName@@QBEHXZ    1004a5a0 f i libvcruntimed:undname.obj
 0001:000495c0       ?isPtrRef@DName@@QBEHXZ    1004a5c0 f i libvcruntimed:undname.obj
 0001:000495e0       ?isUDC@DName@@QBEHXZ       1004a5e0 f i libvcruntimed:undname.obj
 0001:00049620       ?isUDTThunk@DName@@QBEHXZ  1004a620 f i libvcruntimed:undname.obj
 0001:00049660       ?isVCallThunk@DName@@QBEHXZ 1004a660 f i libvcruntimed:undname.obj
 0001:00049680       ?isValid@DName@@QBEHXZ     1004a680 f i libvcruntimed:undname.obj
 0001:000496c0       ?length@DName@@QBEHXZ      1004a6c0 f i libvcruntimed:undname.obj
 0001:00049700       ?length@DNameStatusNode@@UBEHXZ 1004a700 f i libvcruntimed:undname.obj
 0001:00049720       ?length@charNode@@UBEHXZ   1004a720 f i libvcruntimed:undname.obj
 0001:00049730       ?length@pDNameNode@@UBEHXZ 1004a730 f i libvcruntimed:undname.obj
 0001:00049760       ?length@pairNode@@UBEHXZ   1004a760 f i libvcruntimed:undname.obj
 0001:000497d0       ?length@pcharNode@@UBEHXZ  1004a7d0 f i libvcruntimed:undname.obj
 0001:000497f0       ?make@DNameStatusNode@@SAPBV1@W4DNameStatus@@@Z 1004a7f0 f i libvcruntimed:undname.obj
 0001:00049820       ?parseDecoratedName@UnDecorator@@CA?AVDName@@XZ 1004a820 f   libvcruntimed:undname.obj
 0001:000499b0       ?raw_length@DNameStatusNode@@UBEHXZ 1004a9b0 f i libvcruntimed:undname.obj
 0001:000499d0       ?raw_length@charNode@@UBEHXZ 1004a9d0 f i libvcruntimed:undname.obj
 0001:000499f0       ?raw_length@pDNameNode@@UBEHXZ 1004a9f0 f i libvcruntimed:undname.obj
 0001:00049a00       ?raw_length@pairNode@@UBEHXZ 1004aa00 f i libvcruntimed:undname.obj
 0001:00049a20       ?raw_length@pcharNode@@UBEHXZ 1004aa20 f i libvcruntimed:undname.obj
 0001:00049a40       ?setIsArray@DName@@QAEXXZ  1004aa40 f i libvcruntimed:undname.obj
 0001:00049a60       ?setIsComArray@DName@@QAEXXZ 1004aa60 f i libvcruntimed:undname.obj
 0001:00049a80       ?setIsNoTE@DName@@QAEXXZ   1004aa80 f i libvcruntimed:undname.obj
 0001:00049aa0       ?setIsPinPtr@DName@@QAEXXZ 1004aaa0 f i libvcruntimed:undname.obj
 0001:00049ac0       ?setIsUDC@DName@@QAEXXZ    1004aac0 f i libvcruntimed:undname.obj
 0001:00049af0       ?setIsVCallThunk@DName@@QAEXXZ 1004aaf0 f i libvcruntimed:undname.obj
 0001:00049b10       ?setPtrRef@DName@@QAEAAV1@XZ 1004ab10 f i libvcruntimed:undname.obj
 0001:00049b30       ?status@DName@@QBE?AW4DNameStatus@@XZ 1004ab30 f i libvcruntimed:undname.obj
 0001:00049c30       ___unDName                 1004ac30 f   libvcruntimed:undname.obj
 0001:00049c60       ___unDNameEx               1004ac60 f   libvcruntimed:undname.obj
 0001:00049d30       _unDNameGenerateCHPE       1004ad30 f   libvcruntimed:undname.obj
 0001:00049d90       _strchr                    1004ad90 f   libvcruntimed:strchr.obj
 0001:00049dfe       ___from_strstr_to_strchr   1004adfe     libvcruntimed:strchr.obj
 0001:00049ed0       __local_unwind4            1004aed0 f   libvcruntimed:exsup4.obj
 0001:00049fa8       __seh_longjmp_unwind4@4    1004afa8 f   libvcruntimed:exsup4.obj
 0001:00049fd0       @_EH4_CallFilterFunc@8     1004afd0 f   libvcruntimed:exsup4.obj
 0001:00049fe8       @_EH4_TransferToHandler@8  1004afe8 f   libvcruntimed:exsup4.obj
 0001:0004a004       @_EH4_GlobalUnwind2@8      1004b004 f   libvcruntimed:exsup4.obj
 0001:0004a020       @_EH4_LocalUnwind@16       1004b020 f   libvcruntimed:exsup4.obj
 0001:0004a050       ___except_validate_context_record 1004b050 f   libvcruntimed:jbcxrval.obj
 0001:0004a0a0       ___except_validate_jump_buffer 1004b0a0 f   libvcruntimed:jbcxrval.obj
 0001:0004a0c0       ___except_validate_jump_buffer_common 1004b0c0 f i libvcruntimed:jbcxrval.obj
 0001:0004a120       ??$?RU__vcrt_ptd@@@__crt_internal_free_policy@@QBEXQBU__vcrt_ptd@@@Z 1004b120 f i libvcruntimed:per_thread_data.obj
 0001:0004a140       ??0?$__crt_unique_heap_ptr@U__vcrt_ptd@@U__crt_internal_free_policy@@@@QAE@QAU__vcrt_ptd@@@Z 1004b140 f i libvcruntimed:per_thread_data.obj
 0001:0004a180       ??1?$__crt_unique_heap_ptr@U__vcrt_ptd@@U__crt_internal_free_policy@@@@QAE@XZ 1004b180 f i libvcruntimed:per_thread_data.obj
 0001:0004a1c0       ??B?$__crt_unique_heap_ptr@U__vcrt_ptd@@U__crt_internal_free_policy@@@@QBE_NXZ 1004b1c0 f i libvcruntimed:per_thread_data.obj
 0001:0004a1e0       ?detach@?$__crt_unique_heap_ptr@U__vcrt_ptd@@U__crt_internal_free_policy@@@@QAEPAU__vcrt_ptd@@XZ 1004b1e0 f i libvcruntimed:per_thread_data.obj
 0001:0004a210       ?get@?$__crt_unique_heap_ptr@U__vcrt_ptd@@U__crt_internal_free_policy@@@@QBEPAU__vcrt_ptd@@XZ 1004b210 f i libvcruntimed:per_thread_data.obj
 0001:0004a220       ?is_valid@?$__crt_unique_heap_ptr@U__vcrt_ptd@@U__crt_internal_free_policy@@@@QBE_NXZ 1004b220 f i libvcruntimed:per_thread_data.obj
 0001:0004a250       ?release@?$__crt_unique_heap_ptr@U__vcrt_ptd@@U__crt_internal_free_policy@@@@QAEXXZ 1004b250 f i libvcruntimed:per_thread_data.obj
 0001:0004a2b0       ___vcrt_freefls@4          1004b2b0 f   libvcruntimed:per_thread_data.obj
 0001:0004a2e0       ___vcrt_freeptd            1004b2e0 f   libvcruntimed:per_thread_data.obj
 0001:0004a340       ___vcrt_getptd             1004b340 f   libvcruntimed:per_thread_data.obj
 0001:0004a360       ___vcrt_getptd_noexit      1004b360 f   libvcruntimed:per_thread_data.obj
 0001:0004a4c0       ___vcrt_getptd_noinit      1004b4c0 f   libvcruntimed:per_thread_data.obj
 0001:0004a520       ___vcrt_initialize_ptd     1004b520 f   libvcruntimed:per_thread_data.obj
 0001:0004a570       ___vcrt_uninitialize_ptd   1004b570 f   libvcruntimed:per_thread_data.obj
 0001:0004a5a0       ___vcrt_initialize_locks   1004b5a0 f   libvcruntimed:locks.obj
 0001:0004a600       ___vcrt_lock               1004b600 f   libvcruntimed:locks.obj
 0001:0004a620       ___vcrt_uninitialize_locks 1004b620 f   libvcruntimed:locks.obj
 0001:0004a670       ___vcrt_unlock             1004b670 f   libvcruntimed:locks.obj
 0001:0004a690       ??$?0AAViterator@TryBlockMap@__FrameHandler3@@AAV012@$0A@@?$pair@Viterator@TryBlockMap@__FrameHandler3@@V123@@std@@QAE@AAViterator@TryBlockMap@__FrameHandler3@@0@Z 1004b690 f i libvcruntimed:trnsctrl.obj
 0001:0004a6e0       ??$forward@AAViterator@TryBlockMap@__FrameHandler3@@@std@@YAAAViterator@TryBlockMap@__FrameHandler3@@AAV123@@Z 1004b6e0 f i libvcruntimed:trnsctrl.obj
 0001:0004a6f0       ??0iterator@TryBlockMap@__FrameHandler3@@QAE@AAV12@I@Z 1004b6f0 f i libvcruntimed:trnsctrl.obj
 0001:0004a720       ?GetRangeOfTrysToCheck@__FrameHandler3@@SA?AU?$pair@Viterator@TryBlockMap@__FrameHandler3@@V123@@std@@AAVTryBlockMap@1@HPAXPBU_s_FuncInfo@@H@Z 1004b720 f   libvcruntimed:trnsctrl.obj
 0001:0004a800       ?_CallCatchBlock2@@YAPAXPAUEHRegistrationNode@@PBU_s_FuncInfo@@PAXHK@Z 1004b800 f   libvcruntimed:trnsctrl.obj
 0001:0004a870       ?_CallSETranslator@@YAHPAUEHExceptionRecord@@PAUEHRegistrationNode@@PAX2PBU_s_FuncInfo@@H1@Z 1004b870 f   libvcruntimed:trnsctrl.obj
 0001:0004a970       ?_JumpToContinuation@@YGXPAXPAUEHRegistrationNode@@@Z 1004b970 f   libvcruntimed:trnsctrl.obj
 0001:0004a9b0       ?_UnwindNestedFrames@@YGXPAUEHRegistrationNode@@PAUEHExceptionRecord@@@Z 1004b9b0 f   libvcruntimed:trnsctrl.obj
 0001:0004aa10       __CatchGuardHandler        1004ba10 f   libvcruntimed:trnsctrl.obj
 0001:0004aa60       __CreateFrameInfo          1004ba60 f   libvcruntimed:trnsctrl.obj
 0001:0004aa90       __FindAndUnlinkFrame       1004ba90 f   libvcruntimed:trnsctrl.obj
 0001:0004ab00       __TranslatorGuardHandler   1004bb00 f   libvcruntimed:trnsctrl.obj
 0001:0004abb0       ___CxxFrameHandler         1004bbb0 f   libvcruntimed:trnsctrl.obj
 0001:0004abf0       ___CxxFrameHandler2        1004bbf0 f   libvcruntimed:trnsctrl.obj
 0001:0004ac30       ___CxxFrameHandler3        1004bc30 f   libvcruntimed:trnsctrl.obj
 0001:0004ac70       ___CxxLongjmpUnwind@4      1004bc70 f   libvcruntimed:trnsctrl.obj
 0001:0004acb0       __global_unwind2           1004bcb0 f   libvcruntimed:exsup.obj
 0001:0004ad16       __local_unwind2            1004bd16 f   libvcruntimed:exsup.obj
 0001:0004ad9a       __abnormal_termination     1004bd9a f   libvcruntimed:exsup.obj
 0001:0004adc0       __NLG_Notify1              1004bdc0 f   libvcruntimed:exsup.obj
 0001:0004adcc       __NLG_Notify               1004bdcc f   libvcruntimed:exsup.obj
 0001:0004ade3       __NLG_Dispatch2            1004bde3     libvcruntimed:exsup.obj
 0001:0004ade3       __NLG_Dispatch             1004bde3     libvcruntimed:exsup.obj
 0001:0004adeb       __NLG_Call                 1004bdeb f   libvcruntimed:exsup.obj
 0001:0004aded       __NLG_Return2              1004bded     libvcruntimed:exsup.obj
 0001:0004adf0       ??$__crt_interlocked_exchange_pointer@UHINSTANCE__@@PAU1@@@YAPAUHINSTANCE__@@PDSAU0@QAU0@@Z 1004bdf0 f i libvcruntimed:winapi_downlevel.obj
 0001:0004ae00       ??$__crt_interlocked_exchange_pointer@UHINSTANCE__@@PAX@@YAPAUHINSTANCE__@@PDSAU0@QAX@Z 1004be00 f i libvcruntimed:winapi_downlevel.obj
 0001:0004ae10       ??$__crt_interlocked_exchange_pointer@XPAX@@YAPAXPDSAXQAX@Z 1004be10 f i libvcruntimed:winapi_downlevel.obj
 0001:0004ae20       ??$__crt_interlocked_read_pointer@UHINSTANCE__@@@@YAPAUHINSTANCE__@@PDSAU0@@Z 1004be20 f i libvcruntimed:winapi_downlevel.obj
 0001:0004ae40       ??$__crt_interlocked_read_pointer@X@@YAPAXPDSAX@Z 1004be40 f i libvcruntimed:winapi_downlevel.obj
 0001:0004b210       ___vcrt_FlsAlloc           1004c210 f   libvcruntimed:winapi_downlevel.obj
 0001:0004b250       ___vcrt_FlsFree            1004c250 f   libvcruntimed:winapi_downlevel.obj
 0001:0004b290       ___vcrt_FlsGetValue        1004c290 f   libvcruntimed:winapi_downlevel.obj
 0001:0004b2d0       ___vcrt_FlsSetValue        1004c2d0 f   libvcruntimed:winapi_downlevel.obj
 0001:0004b320       ___vcrt_InitializeCriticalSectionEx 1004c320 f   libvcruntimed:winapi_downlevel.obj
 0001:0004bee0       ??$TypeMatchHelper@V__FrameHandler3@@@@YAHPBU_s_HandlerType@@PBU_s_CatchableType@@PBU_s_ThrowInfo@@@Z 1004cee0 f i libvcruntimed:frame.obj
 0001:0004bfc0       ??$__InternalCxxFrameHandler@V__FrameHandler3@@@@YA?AW4_EXCEPTION_DISPOSITION@@PAUEHExceptionRecord@@PAUEHRegistrationNode@@PAU_CONTEXT@@PAXPBU_s_FuncInfo@@H1E@Z 1004cfc0 f i libvcruntimed:frame.obj
 0001:0004c180       ??0HandlerMap@__FrameHandler3@@QAE@PBU_s_TryBlockMapEntry@@II@Z 1004d180 f i libvcruntimed:frame.obj
 0001:0004c1b0       ??0TryBlockMap@__FrameHandler3@@QAE@PBU_s_FuncInfo@@I@Z 1004d1b0 f i libvcruntimed:frame.obj
 0001:0004c1e0       ??0bad_exception@std@@QAE@ABV01@@Z 1004d1e0 f i libvcruntimed:frame.obj
 0001:0004c210       ??0bad_exception@std@@QAE@XZ 1004d210 f i libvcruntimed:frame.obj
 0001:0004c240       ??0exception@std@@QAE@ABV01@@Z 1004d240 f i libvcruntimed:frame.obj
 0001:0004c280       ??0exception@std@@QAE@QBDH@Z 1004d280 f i libvcruntimed:frame.obj
 0001:0004c2b0       ??0iterator@HandlerMap@__FrameHandler3@@QAE@AAV12@I@Z 1004d2b0 f i libvcruntimed:frame.obj
 0001:0004c2e0       ??1bad_exception@std@@UAE@XZ 1004d2e0 f i libvcruntimed:frame.obj
 0001:0004c300       ??1exception@std@@UAE@XZ   1004d300 f i libvcruntimed:frame.obj
 0001:0004c330       ??8iterator@HandlerMap@__FrameHandler3@@QBE_NABV012@@Z 1004d330 f i libvcruntimed:frame.obj
 0001:0004c360       ??8type_info@@QBE_NABV0@@Z 1004d360 f i libvcruntimed:frame.obj
 0001:0004c3a0       ??9iterator@HandlerMap@__FrameHandler3@@QBE_NABV012@@Z 1004d3a0 f i libvcruntimed:frame.obj
 0001:0004c3e0       ??Diterator@HandlerMap@__FrameHandler3@@QAE?BU_s_HandlerType@@XZ 1004d3e0 f i libvcruntimed:frame.obj
 0001:0004c420       ??Diterator@TryBlockMap@__FrameHandler3@@QAE?BU_s_TryBlockMapEntry@@XZ 1004d420 f i libvcruntimed:frame.obj
 0001:0004c470       ??Eiterator@HandlerMap@__FrameHandler3@@QAEAAV012@XZ 1004d470 f i libvcruntimed:frame.obj
 0001:0004c490       ??Eiterator@TryBlockMap@__FrameHandler3@@QAEAAV012@XZ 1004d490 f i libvcruntimed:frame.obj
 0001:0004c4b0       ??Miterator@TryBlockMap@__FrameHandler3@@QBE_NABV012@@Z 1004d4b0 f i libvcruntimed:frame.obj
 0001:0004c4e0       ??_Gbad_exception@std@@UAEPAXI@Z 1004d4e0 f i libvcruntimed:frame.obj
 0001:0004c4e0       ??_Ebad_exception@std@@UAEPAXI@Z 1004d4e0 f i libvcruntimed:frame.obj
 0001:0004c510       ??_Eexception@std@@UAEPAXI@Z 1004d510 f i libvcruntimed:frame.obj
 0001:0004c510       ??_Gexception@std@@UAEPAXI@Z 1004d510 f i libvcruntimed:frame.obj
 0001:0004c540       ?BuildCatchObject@__FrameHandler3@@SAXPAUEHExceptionRecord@@PAXPBU_s_HandlerType@@PBU_s_CatchableType@@@Z 1004d540 f   libvcruntimed:frame.obj
 0001:0004c560       ?BuildCatchObjectHelper@__FrameHandler3@@SAHPAUEHExceptionRecord@@PAXPBU_s_HandlerType@@PBU_s_CatchableType@@@Z 1004d560 f   libvcruntimed:frame.obj
 0001:0004c900       ?FrameUnwindToEmptyState@__FrameHandler3@@SAXPAUEHRegistrationNode@@PAXPBU_s_FuncInfo@@@Z 1004d900 f   libvcruntimed:frame.obj
 0001:0004c920       ?FrameUnwindToState@__FrameHandler3@@SAXPAUEHRegistrationNode@@PAXPBU_s_FuncInfo@@H@Z 1004d920 f   libvcruntimed:frame.obj
 0001:0004caa0       ?GetMaxState@__FrameHandler3@@SAHPAXPBU_s_FuncInfo@@@Z 1004daa0 f i libvcruntimed:frame.obj
 0001:0004cbc0       ?TypeMatch@__FrameHandler3@@SAHPBU_s_HandlerType@@PBU_s_CatchableType@@PBU_s_ThrowInfo@@@Z 1004dbc0 f   libvcruntimed:frame.obj
 0001:0004cbe0       ?_CallMemberFunction1@@YGXQAX00@Z 1004dbe0 f i libvcruntimed:frame.obj
 0001:0004cc10       ?_CallMemberFunction2@@YGXQAX00H@Z 1004dc10 f i libvcruntimed:frame.obj
 0001:0004cc40       ?begin@HandlerMap@__FrameHandler3@@QAE?AViterator@12@XZ 1004dc40 f i libvcruntimed:frame.obj
 0001:0004cc60       ?end@HandlerMap@__FrameHandler3@@QAE?AViterator@12@XZ 1004dc60 f i libvcruntimed:frame.obj
 0001:0004cc90       ?getESTypes@__FrameHandler3@@SAPBU_s_ESTypeList@@PBU_s_FuncInfo@@@Z 1004dc90 f i libvcruntimed:frame.obj
 0001:0004cca0       ?getLastEntry@HandlerMap@__FrameHandler3@@QAEPBU_s_HandlerType@@XZ 1004dca0 f i libvcruntimed:frame.obj
 0001:0004ccc0       ?getMagicNum@__FrameHandler3@@SAIPBU_s_FuncInfo@@@Z 1004dcc0 f i libvcruntimed:frame.obj
 0001:0004ccd0       ?getNumTryBlocks@TryBlockMap@__FrameHandler3@@QAEIXZ 1004dcd0 f i libvcruntimed:frame.obj
 0001:0004ccf0       ?isEHs@__FrameHandler3@@SA_NPBU_s_FuncInfo@@@Z 1004dcf0 f i libvcruntimed:frame.obj
 0001:0004cd20       ?isNoExcept@__FrameHandler3@@SA_NPBU_s_FuncInfo@@@Z 1004dd20 f i libvcruntimed:frame.obj
 0001:0004cd50       ?what@exception@std@@UBEPBDXZ 1004dd50 f i libvcruntimed:frame.obj
 0001:0004cd80       ___BuildCatchObject        1004dd80 f   libvcruntimed:frame.obj
 0001:0004cda0       ___BuildCatchObjectHelper  1004dda0 f   libvcruntimed:frame.obj
 0001:0004cdc0       ___TypeMatch               1004ddc0 f   libvcruntimed:frame.obj
 0001:0004cde0       ___vcrt_EncodePointer      1004dde0 f i libvcruntimed:frame.obj
 0001:0004cdf0       __CallSettingFrame@12      1004ddf0 f   libvcruntimed:lowhelpr.obj
 0001:0004ce17       __NLG_Return               1004de17     libvcruntimed:lowhelpr.obj
 0001:0004ce70       __get_unexpected           1004de70 f   libvcruntimed:unexpected.obj
 0001:0004ce90       _set_unexpected            1004de90 f   libvcruntimed:unexpected.obj
 0001:0004cec0       _unexpected                1004dec0 f   libvcruntimed:unexpected.obj
 0001:0004cf00       _memmove                   1004df00 f   libvcruntimed:memmove.obj
 0001:0004d480       ?GetCurrentState@__FrameHandler3@@SAHPAUEHRegistrationNode@@PAXPBU_s_FuncInfo@@@Z 1004e480 f   libvcruntimed:ehstate.obj
 0001:0004d4b0       ?SetState@__FrameHandler3@@SAXPAUEHRegistrationNode@@PBU_s_FuncInfo@@H@Z 1004e4b0 f   libvcruntimed:ehstate.obj
 0001:0004d4c0       ??$?RD@__crt_public_free_policy@@QBEXQBD@Z 1004e4c0 f i libvcruntimed:std_exception.obj
 0001:0004d4e0       ??0?$__crt_unique_heap_ptr@DU__crt_public_free_policy@@@@QAE@QAD@Z 1004e4e0 f i libvcruntimed:std_exception.obj
 0001:0004d500       ??1?$__crt_unique_heap_ptr@DU__crt_public_free_policy@@@@QAE@XZ 1004e500 f i libvcruntimed:std_exception.obj
 0001:0004d520       ??B?$__crt_unique_heap_ptr@DU__crt_public_free_policy@@@@QBE_NXZ 1004e520 f i libvcruntimed:std_exception.obj
 0001:0004d540       ?detach@?$__crt_unique_heap_ptr@DU__crt_public_free_policy@@@@QAEPADXZ 1004e540 f i libvcruntimed:std_exception.obj
 0001:0004d570       ?get@?$__crt_unique_heap_ptr@DU__crt_public_free_policy@@@@QBEPADXZ 1004e570 f i libvcruntimed:std_exception.obj
 0001:0004d580       ?is_valid@?$__crt_unique_heap_ptr@DU__crt_public_free_policy@@@@QBE_NXZ 1004e580 f i libvcruntimed:std_exception.obj
 0001:0004d5b0       ?release@?$__crt_unique_heap_ptr@DU__crt_public_free_policy@@@@QAEXXZ 1004e5b0 f i libvcruntimed:std_exception.obj
 0001:0004d5e0       ___std_exception_copy      1004e5e0 f   libvcruntimed:std_exception.obj
 0001:0004d6d0       ___std_exception_destroy   1004e6d0 f   libvcruntimed:std_exception.obj
 0001:0004d700       __CxxThrowException@8      1004e700 f   libvcruntimed:throw.obj
 0001:0004d7b0       _strcmp                    1004e7b0 f   libucrtd:strcmp.obj
 0001:0004d840       _atan2                     1004e840 f   libucrtd:atan2.obj
 0001:0004d860       _fabs                      1004e860 f   libucrtd:fabs.obj
 0001:0004d8f0       _sqrt                      1004e8f0 f   libucrtd:sqrt.obj
 0001:0004d900       _floor                     1004e900 f   libucrtd:floor_pentium4.obj
 0001:0004d940       __floor_pentium4           1004e940 f   libucrtd:floor_pentium4.obj
 0001:0004da00       __chgsign                  1004ea00 f   libucrtd:ieeemisc.obj
 0001:0004da40       __chgsignf                 1004ea40 f   libucrtd:ieeemisc.obj
 0001:0004da80       __copysign                 1004ea80 f   libucrtd:ieeemisc.obj
 0001:0004dac0       __copysignf                1004eac0 f   libucrtd:ieeemisc.obj
 0001:0004db10       __finite                   1004eb10 f   libucrtd:ieeemisc.obj
 0001:0004db30       __fpclass                  1004eb30 f   libucrtd:ieeemisc.obj
 0001:0004dc30       __isnan                    1004ec30 f   libucrtd:ieeemisc.obj
 0001:0004dc80       __logb                     1004ec80 f   libucrtd:ieeemisc.obj
 0001:0004dda0       __nextafter                1004eda0 f   libucrtd:ieeemisc.obj
 0001:0004ddd0       __scalb                    1004edd0 f   libucrtd:ieeemisc.obj
 0001:0004ddf0       ??$__crt_interlocked_read@J@@YAJPDJ@Z 1004edf0 f i libucrtd:assert.obj
 0001:0004f890       ??$ftprintf@PAU_iobuf@@PBDABQBDABQBDABI@?$__crt_char_traits@D@@SAH$$QAPAU_iobuf@@$$QAPBDABQBD2ABI@Z 10050890 f i libucrtd:assert.obj
 0001:0004f8c0       ??$ftprintf@PAU_iobuf@@PB_WABQB_WABQB_WABI@?$__crt_char_traits@_W@@SAH$$QAPAU_iobuf@@$$QAPB_WABQB_W2ABI@Z 100508c0 f i libucrtd:assert.obj
 0001:0004f8f0       ??$get_module_file_name@AAPAUHINSTANCE__@@AAY0BAF@DK@?$__crt_char_traits@D@@SAKAAPAUHINSTANCE__@@AAY0BAF@D$$QAK@Z 100508f0 f i libucrtd:assert.obj
 0001:0004f910       ??$get_module_file_name@AAPAUHINSTANCE__@@AAY0BAF@_WK@?$__crt_char_traits@_W@@SAKAAPAUHINSTANCE__@@AAY0BAF@_W$$QAK@Z 10050910 f i libucrtd:assert.obj
 0001:0004f930       ??$itot_s@ABIPADIH@?$__crt_char_traits@D@@SAHABI$$QAPAD$$QAI$$QAH@Z 10050930 f i libucrtd:assert.obj
 0001:0004f960       ??$itot_s@ABIPA_WIH@?$__crt_char_traits@_W@@SAHABI$$QAPA_W$$QAI$$QAH@Z 10050960 f i libucrtd:assert.obj
 0001:0004f990       ??$show_message_box@AAY0CEA@DPBDJ@?$__crt_char_traits@D@@SAHAAY0CEA@D$$QAPBD$$QAJ@Z 10050990 f i libucrtd:assert.obj
 0001:0004f9b0       ??$show_message_box@AAY0CEA@_WPB_WJ@?$__crt_char_traits@_W@@SAHAAY0CEA@_W$$QAPB_W$$QAJ@Z 100509b0 f i libucrtd:assert.obj
 0001:0004f9d0       ??$tcscat_s@ABQADABIAAPAD@?$__crt_char_traits@D@@SAHABQADABIAAPAD@Z 100509d0 f i libucrtd:assert.obj
 0001:0004fa00       ??$tcscat_s@ABQADABIABQBD@?$__crt_char_traits@D@@SAHABQADABIABQBD@Z 10050a00 f i libucrtd:assert.obj
 0001:0004fa30       ??$tcscat_s@ABQADABIPBD@?$__crt_char_traits@D@@SAHABQADABI$$QAPBD@Z 10050a30 f i libucrtd:assert.obj
 0001:0004fa60       ??$tcscat_s@ABQA_WABIAAPA_W@?$__crt_char_traits@_W@@SAHABQA_WABIAAPA_W@Z 10050a60 f i libucrtd:assert.obj
 0001:0004fa90       ??$tcscat_s@ABQA_WABIABQB_W@?$__crt_char_traits@_W@@SAHABQA_WABIABQB_W@Z 10050a90 f i libucrtd:assert.obj
 0001:0004fac0       ??$tcscat_s@ABQA_WABIPB_W@?$__crt_char_traits@_W@@SAHABQA_WABI$$QAPB_W@Z 10050ac0 f i libucrtd:assert.obj
 0001:0004faf0       ??$tcscpy_s@AAY0BAF@DIPBD@?$__crt_char_traits@D@@SAHAAY0BAF@D$$QAI$$QAPBD@Z 10050af0 f i libucrtd:assert.obj
 0001:0004fb10       ??$tcscpy_s@AAY0BAF@_WIPB_W@?$__crt_char_traits@_W@@SAHAAY0BAF@_W$$QAI$$QAPB_W@Z 10050b10 f i libucrtd:assert.obj
 0001:0004fb30       ??$tcscpy_s@ABQADABIPBD@?$__crt_char_traits@D@@SAHABQADABI$$QAPBD@Z 10050b30 f i libucrtd:assert.obj
 0001:0004fb60       ??$tcscpy_s@ABQA_WABIPB_W@?$__crt_char_traits@_W@@SAHABQA_WABI$$QAPB_W@Z 10050b60 f i libucrtd:assert.obj
 0001:0004fb90       ??$tcslen@AAY0BAF@D@?$__crt_char_traits@D@@SAIAAY0BAF@D@Z 10050b90 f i libucrtd:assert.obj
 0001:0004fbb0       ??$tcslen@AAY0BAF@_W@?$__crt_char_traits@_W@@SAIAAY0BAF@_W@Z 10050bb0 f i libucrtd:assert.obj
 0001:0004fbd0       ??$tcslen@ABQAD@?$__crt_char_traits@D@@SAIABQAD@Z 10050bd0 f i libucrtd:assert.obj
 0001:0004fbf0       ??$tcslen@ABQA_W@?$__crt_char_traits@_W@@SAIABQA_W@Z 10050bf0 f i libucrtd:assert.obj
 0001:0004fc10       ??$tcslen@ABQBD@?$__crt_char_traits@D@@SAIABQBD@Z 10050c10 f i libucrtd:assert.obj
 0001:0004fc30       ??$tcslen@ABQB_W@?$__crt_char_traits@_W@@SAIABQB_W@Z 10050c30 f i libucrtd:assert.obj
 0001:0004fc50       ??$tcsncat_s@ABQADABIAAPBDI@?$__crt_char_traits@D@@SAHABQADABIAAPBD$$QAI@Z 10050c50 f i libucrtd:assert.obj
 0001:0004fc80       ??$tcsncat_s@ABQADABIABQBDABI@?$__crt_char_traits@D@@SAHABQADABIABQBD1@Z 10050c80 f i libucrtd:assert.obj
 0001:0004fcb0       ??$tcsncat_s@ABQADABIPBDI@?$__crt_char_traits@D@@SAHABQADABI$$QAPBD$$QAI@Z 10050cb0 f i libucrtd:assert.obj
 0001:0004fce0       ??$tcsncat_s@ABQA_WABIAAPB_WI@?$__crt_char_traits@_W@@SAHABQA_WABIAAPB_W$$QAI@Z 10050ce0 f i libucrtd:assert.obj
 0001:0004fd10       ??$tcsncat_s@ABQA_WABIABQB_WABI@?$__crt_char_traits@_W@@SAHABQA_WABIABQB_W1@Z 10050d10 f i libucrtd:assert.obj
 0001:0004fd40       ??$tcsncat_s@ABQA_WABIPB_WI@?$__crt_char_traits@_W@@SAHABQA_WABI$$QAPB_W$$QAI@Z 10050d40 f i libucrtd:assert.obj
 0001:0004fd70       ??0__crt_stdio_stream@@QAE@QAU_iobuf@@@Z 10050d70 f i libucrtd:assert.obj
 0001:0004ff60       ?get_flags@__crt_stdio_stream@@QBEJXZ 10050f60 f i libucrtd:assert.obj
 0001:00050040       ?has_any_buffer@__crt_stdio_stream@@QBE_NXZ 10051040 f i libucrtd:assert.obj
 0001:00050060       ?has_any_of@__crt_stdio_stream@@QBE_NJ@Z 10051060 f i libucrtd:assert.obj
 0001:000500a0       __assert                   100510a0 f   libucrtd:assert.obj
 0001:000500c0       __invoke_watson_if_error   100510c0 f i libucrtd:assert.obj
 0001:000500f0       __vfprintf_l               100510f0 f i libucrtd:assert.obj
 0001:00050120       __vfwprintf_l              10051120 f i libucrtd:assert.obj
 0001:00050150       __vswprintf_c_l            10051150 f i libucrtd:assert.obj
 0001:000501a0       __wassert                  100511a0 f   libucrtd:assert.obj
 0001:000501c0       _fprintf                   100511c0 f i libucrtd:assert.obj
 0001:00050200       _fwprintf                  10051200 f i libucrtd:assert.obj
 0001:00050350       _swprintf                  10051350 f i libucrtd:assert.obj
 0001:00050390       __abs64                    10051390 f   libucrtd:abs.obj
 0001:000503e0       _abs                       100513e0 f   libucrtd:abs.obj
 0001:00050410       _pow                       10051410 f   libucrtd:pow.obj
 0001:00050460       _cos                       10051460 f   libucrtd:cos.obj
 0001:000504b0       _sin                       100514b0 f   libucrtd:sin.obj
 0001:00050500       ??$?RU?$__crt_report_hook_node@D@@@__crt_internal_free_policy@@QBEXQBU?$__crt_report_hook_node@D@@@Z 10051500 f i libucrtd:dbgrpt.obj
 0001:00050520       ??$?RU?$__crt_report_hook_node@_W@@@__crt_internal_free_policy@@QBEXQBU?$__crt_report_hook_node@_W@@@Z 10051520 f i libucrtd:dbgrpt.obj
 0001:000513f0       ??0?$__crt_unique_heap_ptr@U?$__crt_report_hook_node@D@@U__crt_internal_free_policy@@@@QAE@QAU?$__crt_report_hook_node@D@@@Z 100523f0 f i libucrtd:dbgrpt.obj
 0001:00051410       ??0?$__crt_unique_heap_ptr@U?$__crt_report_hook_node@_W@@U__crt_internal_free_policy@@@@QAE@QAU?$__crt_report_hook_node@_W@@@Z 10052410 f i libucrtd:dbgrpt.obj
 0001:00051430       ??1?$__crt_unique_heap_ptr@U?$__crt_report_hook_node@D@@U__crt_internal_free_policy@@@@QAE@XZ 10052430 f i libucrtd:dbgrpt.obj
 0001:00051450       ??1?$__crt_unique_heap_ptr@U?$__crt_report_hook_node@_W@@U__crt_internal_free_policy@@@@QAE@XZ 10052450 f i libucrtd:dbgrpt.obj
 0001:00051470       ??B?$__crt_unique_heap_ptr@U?$__crt_report_hook_node@D@@U__crt_internal_free_policy@@@@QBE_NXZ 10052470 f i libucrtd:dbgrpt.obj
 0001:00051490       ??B?$__crt_unique_heap_ptr@U?$__crt_report_hook_node@_W@@U__crt_internal_free_policy@@@@QBE_NXZ 10052490 f i libucrtd:dbgrpt.obj
 0001:000519d0       ?detach@?$__crt_unique_heap_ptr@U?$__crt_report_hook_node@D@@U__crt_internal_free_policy@@@@QAEPAU?$__crt_report_hook_node@D@@XZ 100529d0 f i libucrtd:dbgrpt.obj
 0001:00051a00       ?detach@?$__crt_unique_heap_ptr@U?$__crt_report_hook_node@_W@@U__crt_internal_free_policy@@@@QAEPAU?$__crt_report_hook_node@_W@@XZ 10052a00 f i libucrtd:dbgrpt.obj
 0001:00051a30       ?get@?$__crt_unique_heap_ptr@U?$__crt_report_hook_node@D@@U__crt_internal_free_policy@@@@QBEPAU?$__crt_report_hook_node@D@@XZ 10052a30 f i libucrtd:dbgrpt.obj
 0001:00051a50       ?get@?$__crt_unique_heap_ptr@U?$__crt_report_hook_node@_W@@U__crt_internal_free_policy@@@@QBEPAU?$__crt_report_hook_node@_W@@XZ 10052a50 f i libucrtd:dbgrpt.obj
 0001:00051ad0       ?is_valid@?$__crt_unique_heap_ptr@U?$__crt_report_hook_node@D@@U__crt_internal_free_policy@@@@QBE_NXZ 10052ad0 f i libucrtd:dbgrpt.obj
 0001:00051b00       ?is_valid@?$__crt_unique_heap_ptr@U?$__crt_report_hook_node@_W@@U__crt_internal_free_policy@@@@QBE_NXZ 10052b00 f i libucrtd:dbgrpt.obj
 0001:00051b30       ?release@?$__crt_unique_heap_ptr@U?$__crt_report_hook_node@D@@U__crt_internal_free_policy@@@@QAEXXZ 10052b30 f i libucrtd:dbgrpt.obj
 0001:00051b60       ?release@?$__crt_unique_heap_ptr@U?$__crt_report_hook_node@_W@@U__crt_internal_free_policy@@@@QAEXXZ 10052b60 f i libucrtd:dbgrpt.obj
 0001:00051b90       __CrtDbgReport             10052b90 f   libucrtd:dbgrpt.obj
 0001:00051be0       __CrtDbgReportW            10052be0 f   libucrtd:dbgrpt.obj
 0001:00051c30       __CrtSetReportHook2        10052c30 f   libucrtd:dbgrpt.obj
 0001:00051c50       __CrtSetReportHookW2       10052c50 f   libucrtd:dbgrpt.obj
 0001:00051c70       ___acrt_MessageWindowA     10052c70 f   libucrtd:dbgrpt.obj
 0001:00051ca0       ___acrt_MessageWindowW     10052ca0 f   libucrtd:dbgrpt.obj
 0001:00051cd0       __invoke_watson_if_oneof   10052cd0 f i libucrtd:dbgrpt.obj
 0001:00051d10       __snwprintf_s              10052d10 f i libucrtd:dbgrpt.obj
 0001:00051d50       __vsnwprintf_s_l           10052d50 f i libucrtd:dbgrpt.obj
 0001:00051db0       ??0_LocaleUpdate@@QAE@QAU__crt_locale_pointers@@@Z 10052db0 f i libucrtd:debug_heap.obj
 0001:00051e90       ??1_LocaleUpdate@@QAE@XZ   10052e90 f i libucrtd:debug_heap.obj
 0001:00051ed0       ?GetLocaleT@_LocaleUpdate@@QAEPAU__crt_locale_pointers@@XZ 10052ed0 f i libucrtd:debug_heap.obj
 0001:00053740       __CrtCheckMemory           10054740 f   libucrtd:debug_heap.obj
 0001:000538d0       __CrtDoForAllClientObjects 100548d0 f   libucrtd:debug_heap.obj
 0001:00053a20       __CrtDumpMemoryLeaks       10054a20 f   libucrtd:debug_heap.obj
 0001:00053ac0       __CrtGetAllocHook          10054ac0 f   libucrtd:debug_heap.obj
 0001:00053ad0       __CrtGetDumpClient         10054ad0 f   libucrtd:debug_heap.obj
 0001:00053ae0       __CrtIsMemoryBlock         10054ae0 f   libucrtd:debug_heap.obj
 0001:00053c30       __CrtIsValidHeapPointer    10054c30 f   libucrtd:debug_heap.obj
 0001:00053c60       __CrtIsValidPointer        10054c60 f   libucrtd:debug_heap.obj
 0001:00053c90       __CrtMemCheckpoint         10054c90 f   libucrtd:debug_heap.obj
 0001:00053ec0       __CrtMemDifference         10054ec0 f   libucrtd:debug_heap.obj
 0001:00054130       __CrtMemDumpAllObjectsSince 10055130 f   libucrtd:debug_heap.obj
 0001:000541d0       __CrtMemDumpStatistics     100551d0 f   libucrtd:debug_heap.obj
 0001:00054300       __CrtReportBlockType       10055300 f   libucrtd:debug_heap.obj
 0001:00054330       __CrtSetAllocHook          10055330 f   libucrtd:debug_heap.obj
 0001:00054350       __CrtSetBreakAlloc         10055350 f   libucrtd:debug_heap.obj
 0001:00054370       __CrtSetDbgBlockType       10055370 f   libucrtd:debug_heap.obj
 0001:00054450       __CrtSetDbgFlag            10055450 f   libucrtd:debug_heap.obj
 0001:000545c0       __CrtSetDumpClient         100555c0 f   libucrtd:debug_heap.obj
 0001:000545e0       ___acrt_get_locale_data_prefix 100555e0 f i libucrtd:debug_heap.obj
 0001:00054600       ___acrt_locale_changed     10055600 f i libucrtd:debug_heap.obj
 0001:00054630       ___p__crtBreakAlloc        10055630 f   libucrtd:debug_heap.obj
 0001:00054640       ___p__crtDbgFlag           10055640 f   libucrtd:debug_heap.obj
 0001:00054650       __aligned_free_dbg         10055650 f   libucrtd:debug_heap.obj
 0001:00054700       __aligned_malloc_dbg       10055700 f   libucrtd:debug_heap.obj
 0001:00054730       __aligned_msize_dbg        10055730 f   libucrtd:debug_heap.obj
 0001:00054860       __aligned_offset_malloc_dbg 10055860 f   libucrtd:debug_heap.obj
 0001:00054a40       __aligned_offset_realloc_dbg 10055a40 f   libucrtd:debug_heap.obj
 0001:00054d50       __aligned_offset_recalloc_dbg 10055d50 f   libucrtd:debug_heap.obj
 0001:00054e10       __aligned_realloc_dbg      10055e10 f   libucrtd:debug_heap.obj
 0001:00054e40       __aligned_recalloc_dbg     10055e40 f   libucrtd:debug_heap.obj
 0001:00054e70       __calloc_dbg               10055e70 f   libucrtd:debug_heap.obj
 0001:00054ee0       __chvalidchk_l             10055ee0 f i libucrtd:debug_heap.obj
 0001:00054f00       __expand_dbg               10055f00 f   libucrtd:debug_heap.obj
 0001:00055030       __free_dbg                 10056030 f   libucrtd:debug_heap.obj
 0001:000550e0       __ischartype_l             100560e0 f i libucrtd:debug_heap.obj
 0001:00055160       __malloc_dbg               10056160 f   libucrtd:debug_heap.obj
 0001:00055180       __msize_dbg                10056180 f   libucrtd:debug_heap.obj
 0001:00055310       __realloc_dbg              10056310 f   libucrtd:debug_heap.obj
 0001:000553b0       __recalloc_dbg             100563b0 f   libucrtd:debug_heap.obj
 0001:00055460       __errcode                  10056460 f   libucrtd:fpexcept.obj
 0001:000554d0       __except1                  100564d0 f   libucrtd:fpexcept.obj
 0001:000555d0       __except2                  100565d0 f   libucrtd:fpexcept.obj
 0001:00055730       __handle_exc               10056730 f   libucrtd:fpexcept.obj
 0001:00055a50       __handle_qnan2             10056a50 f   libucrtd:fpexcept.obj
 0001:00055a70       __raise_exc                10056a70 f   libucrtd:fpexcept.obj
 0001:00055aa0       __raise_exc_ex             10056aa0 f   libucrtd:fpexcept.obj
 0001:00056020       __raise_excf               10057020 f   libucrtd:fpexcept.obj
 0001:00056050       __set_errno_from_matherr   10057050 f   libucrtd:fpexcept.obj
 0001:00056090       __umatherr                 10057090 f   libucrtd:fpexcept.obj
 0001:00056130       __initterm                 10057130 f   libucrtd:initterm.obj
 0001:00056180       __initterm_e               10057180 f   libucrtd:initterm.obj
 0001:00056230       __seh_filter_dll           10057230 f   libucrtd:exception_filter.obj
 0001:00056260       __seh_filter_exe           10057260 f   libucrtd:exception_filter.obj
 0001:00056470       ??$?B$$A6GXPAXK0@Z@__crt_fast_encoded_nullptr_t@@QBEP6GXPAXK0@ZXZ 10057470 f i libucrtd:exit.obj
 0001:00056550       ??$__crt_fast_decode_pointer@P6GXPAXK0@Z@@YAP6GXPAXK0@ZQ6GX0K0@Z@Z 10057550 f i libucrtd:exit.obj
 0001:00056580       ??$__crt_fast_encode_pointer@P6GXPAXK0@Z@@YAP6GXPAXK0@ZQ6GX0K0@Z@Z 10057580 f i libucrtd:exit.obj
 0001:000565b0       ??$__crt_get_proc_address@P6GXI@Z@@YAP6GXI@ZQAUHINSTANCE__@@QBD@Z 100575b0 f i libucrtd:exit.obj
 0001:00056640       ??0?$__crt_unique_handle_t@U__crt_hmodule_traits@@@@QAE@QAUHINSTANCE__@@@Z 10057640 f i libucrtd:exit.obj
 0001:00056660       ??1?$__crt_unique_handle_t@U__crt_hmodule_traits@@@@QAE@XZ 10057660 f i libucrtd:exit.obj
 0001:00056820       ?__acrt_select_exit_lock@@YA?AW4__acrt_lock_id@@XZ 10057820 f i libucrtd:exit.obj
 0001:00056830       ?__crt_fast_encode_pointer@@YA?AU__crt_fast_encoded_nullptr_t@@$$T@Z 10057830 f i libucrtd:exit.obj
 0001:00056840       ?__crt_rotate_pointer_value@@YAIIH@Z 10057840 f i libucrtd:exit.obj
 0001:00056870       ?close@?$__crt_unique_handle_t@U__crt_hmodule_traits@@@@QAEXXZ 10057870 f i libucrtd:exit.obj
 0001:000568b0       ?close@__crt_hmodule_traits@@SA_NPAUHINSTANCE__@@@Z 100578b0 f i libucrtd:exit.obj
 0001:000569a0       ?get@?$__crt_unique_handle_t@U__crt_hmodule_traits@@@@QBEPAUHINSTANCE__@@XZ 100579a0 f i libucrtd:exit.obj
 0001:000569c0       ?get_address_of@?$__crt_unique_handle_t@U__crt_hmodule_traits@@@@QAEPAPAUHINSTANCE__@@XZ 100579c0 f i libucrtd:exit.obj
 0001:000569d0       ?get_invalid_value@__crt_hmodule_traits@@SAPAUHINSTANCE__@@XZ 100579d0 f i libucrtd:exit.obj
 0001:00056b50       __Exit                     10057b50 f   libucrtd:exit.obj
 0001:00056b70       ___acrt_initialize_thread_local_exit_callback 10057b70 f   libucrtd:exit.obj
 0001:00056b80       __c_exit                   10057b80 f   libucrtd:exit.obj
 0001:00056ba0       __cexit                    10057ba0 f   libucrtd:exit.obj
 0001:00056bc0       __exit                     10057bc0 f   libucrtd:exit.obj
 0001:00056be0       __is_c_termination_complete 10057be0 f   libucrtd:exit.obj
 0001:00056c00       __register_thread_local_exe_atexit_callback 10057c00 f   libucrtd:exit.obj
 0001:00056c40       _exit                      10057c40 f   libucrtd:exit.obj
 0001:00056c60       _quick_exit                10057c60 f   libucrtd:exit.obj
 0001:00056c80       ??$?RE@__crt_internal_free_policy@@QBEXQBE@Z 10057c80 f i libucrtd:argv_parsing.obj
 0001:00056ca0       ??$?RPAD@__crt_internal_free_policy@@QBEXQBQAD@Z 10057ca0 f i libucrtd:argv_parsing.obj
 0001:00056cc0       ??$?RPA_W@__crt_internal_free_policy@@QBEXQBQA_W@Z 10057cc0 f i libucrtd:argv_parsing.obj
 0001:00057230       ??$get_module_file_name@$$TAAY0BAF@DH@?$__crt_char_traits@D@@SAK$$QA$$TAAY0BAF@D$$QAH@Z 10058230 f i libucrtd:argv_parsing.obj
 0001:00057250       ??$get_module_file_name@$$TAAY0BAF@_WH@?$__crt_char_traits@_W@@SAK$$QA$$TAAY0BAF@_W$$QAH@Z 10058250 f i libucrtd:argv_parsing.obj
 0001:00057970       ??$set_program_name@PAD@?$__crt_char_traits@D@@SAX$$QAPAD@Z 10058970 f i libucrtd:argv_parsing.obj
 0001:00057990       ??$set_program_name@PA_W@?$__crt_char_traits@_W@@SAX$$QAPA_W@Z 10058990 f i libucrtd:argv_parsing.obj
 0001:000579f0       ??0?$__crt_unique_heap_ptr@EU__crt_internal_free_policy@@@@QAE@QAE@Z 100589f0 f i libucrtd:argv_parsing.obj
 0001:00057a10       ??0?$__crt_unique_heap_ptr@PADU__crt_internal_free_policy@@@@QAE@QAPAD@Z 10058a10 f i libucrtd:argv_parsing.obj
 0001:00057a30       ??0?$__crt_unique_heap_ptr@PA_WU__crt_internal_free_policy@@@@QAE@QAPA_W@Z 10058a30 f i libucrtd:argv_parsing.obj
 0001:00057a50       ??1?$__crt_unique_heap_ptr@EU__crt_internal_free_policy@@@@QAE@XZ 10058a50 f i libucrtd:argv_parsing.obj
 0001:00057a70       ??1?$__crt_unique_heap_ptr@PADU__crt_internal_free_policy@@@@QAE@XZ 10058a70 f i libucrtd:argv_parsing.obj
 0001:00057a90       ??1?$__crt_unique_heap_ptr@PA_WU__crt_internal_free_policy@@@@QAE@XZ 10058a90 f i libucrtd:argv_parsing.obj
 0001:00057ab0       ??B?$__crt_unique_heap_ptr@EU__crt_internal_free_policy@@@@QBE_NXZ 10058ab0 f i libucrtd:argv_parsing.obj
 0001:00057b70       ?detach@?$__crt_unique_heap_ptr@EU__crt_internal_free_policy@@@@QAEPAEXZ 10058b70 f i libucrtd:argv_parsing.obj
 0001:00057ba0       ?detach@?$__crt_unique_heap_ptr@PADU__crt_internal_free_policy@@@@QAEPAPADXZ 10058ba0 f i libucrtd:argv_parsing.obj
 0001:00057bd0       ?detach@?$__crt_unique_heap_ptr@PA_WU__crt_internal_free_policy@@@@QAEPAPA_WXZ 10058bd0 f i libucrtd:argv_parsing.obj
 0001:00057c60       ?get@?$__crt_unique_heap_ptr@EU__crt_internal_free_policy@@@@QBEPAEXZ 10058c60 f i libucrtd:argv_parsing.obj
 0001:00057c80       ?get@?$__crt_unique_heap_ptr@PADU__crt_internal_free_policy@@@@QBEPAPADXZ 10058c80 f i libucrtd:argv_parsing.obj
 0001:00057ca0       ?get@?$__crt_unique_heap_ptr@PA_WU__crt_internal_free_policy@@@@QBEPAPA_WXZ 10058ca0 f i libucrtd:argv_parsing.obj
 0001:00057cc0       ?get_address_of@?$__crt_unique_heap_ptr@PADU__crt_internal_free_policy@@@@QAEPAPAPADXZ 10058cc0 f i libucrtd:argv_parsing.obj
 0001:00057cd0       ?get_address_of@?$__crt_unique_heap_ptr@PA_WU__crt_internal_free_policy@@@@QAEPAPAPA_WXZ 10058cd0 f i libucrtd:argv_parsing.obj
 0001:00057d20       ?is_valid@?$__crt_unique_heap_ptr@EU__crt_internal_free_policy@@@@QBE_NXZ 10058d20 f i libucrtd:argv_parsing.obj
 0001:00057d50       ?release@?$__crt_unique_heap_ptr@EU__crt_internal_free_policy@@@@QAEXXZ 10058d50 f i libucrtd:argv_parsing.obj
 0001:00057d80       ?release@?$__crt_unique_heap_ptr@PADU__crt_internal_free_policy@@@@QAEXXZ 10058d80 f i libucrtd:argv_parsing.obj
 0001:00057db0       ?release@?$__crt_unique_heap_ptr@PA_WU__crt_internal_free_policy@@@@QAEXXZ 10058db0 f i libucrtd:argv_parsing.obj
 0001:00057e20       ___acrt_allocate_buffer_for_argv 10058e20 f   libucrtd:argv_parsing.obj
 0001:00057ee0       __configure_narrow_argv    10058ee0 f   libucrtd:argv_parsing.obj
 0001:00057f00       __configure_wide_argv      10058f00 f   libucrtd:argv_parsing.obj
 0001:00057f20       __set_pgmptr               10058f20 f i libucrtd:argv_parsing.obj
 0001:00057f30       __set_wpgmptr              10058f30 f i libucrtd:argv_parsing.obj
 0001:00057f3f       ??$?R_W@__crt_internal_free_policy@@QBEXQB_W@Z 10058f3f f i libucrtd:environment_initialization.obj
 0001:000583a8       ??$get_environment_from_os@$$V@?$__crt_char_traits@D@@SAPADXZ 100593a8 f i libucrtd:environment_initialization.obj
 0001:000583ad       ??$get_environment_from_os@$$V@?$__crt_char_traits@_W@@SAPA_WXZ 100593ad f i libucrtd:environment_initialization.obj
 0001:000584d6       ??$set_variable_in_environment_nolock@PADH@?$__crt_char_traits@D@@SAH$$QAPAD$$QAH@Z 100594d6 f i libucrtd:environment_initialization.obj
 0001:000584ee       ??$set_variable_in_environment_nolock@PA_WH@?$__crt_char_traits@_W@@SAH$$QAPA_W$$QAH@Z 100594ee f i libucrtd:environment_initialization.obj
 0001:00058506       ??$tcscpy_s@PADABIAAPAD@?$__crt_char_traits@D@@SAH$$QAPADABIAAPAD@Z 10059506 f i libucrtd:environment_initialization.obj
 0001:00058524       ??$tcscpy_s@PA_WABIAAPA_W@?$__crt_char_traits@_W@@SAH$$QAPA_WABIAAPA_W@Z 10059524 f i libucrtd:environment_initialization.obj
 0001:00058542       ??$tcslen@AAPAD@?$__crt_char_traits@D@@SAIAAPAD@Z 10059542 f i libucrtd:environment_initialization.obj
 0001:0005855a       ??$tcslen@AAPA_W@?$__crt_char_traits@_W@@SAIAAPA_W@Z 1005955a f i libucrtd:environment_initialization.obj
 0001:00058578       ??$uninitialize@A6AXAAPAPAD@Z@?$dual_state_global@PAPAD@__crt_state_management@@QAEXA6AXAAPAPAD@Z@Z 10059578 f i libucrtd:environment_initialization.obj
 0001:000585a1       ??$uninitialize@A6AXAAPAPA_W@Z@?$dual_state_global@PAPA_W@__crt_state_management@@QAEXA6AXAAPAPA_W@Z@Z 100595a1 f i libucrtd:environment_initialization.obj
 0001:00058600       ??0?$__crt_unique_heap_ptr@_WU__crt_internal_free_policy@@@@QAE@QA_W@Z 10059600 f i libucrtd:environment_initialization.obj
 0001:00058610       ??1?$__crt_unique_heap_ptr@_WU__crt_internal_free_policy@@@@QAE@XZ 10059610 f i libucrtd:environment_initialization.obj
 0001:00058625       ??B?$__crt_unique_heap_ptr@PADU__crt_internal_free_policy@@@@QBE_NXZ 10059625 f i libucrtd:environment_initialization.obj
 0001:0005862c       ??B?$__crt_unique_heap_ptr@PA_WU__crt_internal_free_policy@@@@QBE_NXZ 1005962c f i libucrtd:environment_initialization.obj
 0001:00058633       ??B?$__crt_unique_heap_ptr@_WU__crt_internal_free_policy@@@@QBE_NXZ 10059633 f i libucrtd:environment_initialization.obj
 0001:0005863a       ?__crt_compute_required_transform_buffer_count@@YAIIQBD@Z 1005963a f i libucrtd:environment_initialization.obj
 0001:00058656       ?__crt_compute_required_transform_buffer_count@@YAIIQB_W@Z 10059656 f i libucrtd:environment_initialization.obj
 0001:00058674       ?__crt_transform_string@@YAIIQBDQA_WI@Z 10059674 f i libucrtd:environment_initialization.obj
 0001:00058693       ?__crt_transform_string@@YAIIQB_WQADI@Z 10059693 f i libucrtd:environment_initialization.obj
 0001:000586b5       ?detach@?$__crt_unique_heap_ptr@DU__crt_internal_free_policy@@@@QAEPADXZ 100596b5 f i libucrtd:environment_initialization.obj
 0001:000586bb       ?detach@?$__crt_unique_heap_ptr@_WU__crt_internal_free_policy@@@@QAEPA_WXZ 100596bb f i libucrtd:environment_initialization.obj
 0001:000586c1       ?get@?$__crt_unique_heap_ptr@_WU__crt_internal_free_policy@@@@QBEPA_WXZ 100596c1 f i libucrtd:environment_initialization.obj
 0001:000586c4       ?get_current_state_index@__crt_state_management@@YAIXZ 100596c4 f i libucrtd:environment_initialization.obj
 0001:000586eb       ?initialize@?$dual_state_global@PAPAD@__crt_state_management@@QAEXQAPAD@Z 100596eb f i libucrtd:environment_initialization.obj
 0001:00058711       ?initialize@?$dual_state_global@PAPA_W@__crt_state_management@@QAEXQAPA_W@Z 10059711 f i libucrtd:environment_initialization.obj
 0001:00058737       ?is_valid@?$__crt_unique_heap_ptr@PADU__crt_internal_free_policy@@@@QBE_NXZ 10059737 f i libucrtd:environment_initialization.obj
 0001:0005873e       ?is_valid@?$__crt_unique_heap_ptr@PA_WU__crt_internal_free_policy@@@@QBE_NXZ 1005973e f i libucrtd:environment_initialization.obj
 0001:00058745       ?is_valid@?$__crt_unique_heap_ptr@_WU__crt_internal_free_policy@@@@QBE_NXZ 10059745 f i libucrtd:environment_initialization.obj
 0001:00058754       ?release@?$__crt_unique_heap_ptr@_WU__crt_internal_free_policy@@@@QAEXXZ 10059754 f i libucrtd:environment_initialization.obj
 0001:00058769       ?value@?$dual_state_global@PAPAD@__crt_state_management@@QAEAAPAPADXZ 10059769 f i libucrtd:environment_initialization.obj
 0001:0005876c       ?value@?$dual_state_global@PAPA_W@__crt_state_management@@QAEAAPAPA_WXZ 1005976c f i libucrtd:environment_initialization.obj
 0001:0005876f       ___dcrt_get_or_create_narrow_environment_nolock 1005976f f   libucrtd:environment_initialization.obj
 0001:00058774       ___dcrt_get_or_create_wide_environment_nolock 10059774 f   libucrtd:environment_initialization.obj
 0001:00058779       ___dcrt_uninitialize_environments_nolock 10059779 f   libucrtd:environment_initialization.obj
 0001:000587b0       ___p__environ              100597b0 f   libucrtd:environment_initialization.obj
 0001:000587b6       ___p__wenviron             100597b6 f   libucrtd:environment_initialization.obj
 0001:000587bc       __get_initial_narrow_environment 100597bc f   libucrtd:environment_initialization.obj
 0001:000587d0       __get_initial_wide_environment 100597d0 f   libucrtd:environment_initialization.obj
 0001:000587e4       __initialize_narrow_environment 100597e4 f   libucrtd:environment_initialization.obj
 0001:000587e9       __initialize_wide_environment 100597e9 f   libucrtd:environment_initialization.obj
 0001:000587f0       ??$?B$$A6AXXZ@__crt_fast_encoded_nullptr_t@@QBEP6AXXZXZ 100597f0 f i libucrtd:onexit.obj
 0001:00058810       ??$?BP6AXXZ@__crt_fast_encoded_nullptr_t@@QBEPAP6AXXZXZ 10059810 f i libucrtd:onexit.obj
 0001:00058830       ??$?RP6AXXZ@__crt_internal_free_policy@@QBEXQBQ6AXXZ@Z 10059830 f i libucrtd:onexit.obj
 0001:000589f0       ??$__crt_fast_decode_pointer@P6AXXZ@@YAP6AXXZQ6AXXZ@Z 100599f0 f i libucrtd:onexit.obj
 0001:00058a20       ??$__crt_fast_decode_pointer@PAP6AXXZ@@YAPAP6AXXZQAP6AXXZ@Z 10059a20 f i libucrtd:onexit.obj
 0001:00058a50       ??$__crt_fast_encode_pointer@P6AHXZ@@YAP6AHXZQ6AHXZ@Z 10059a50 f i libucrtd:onexit.obj
 0001:00058a80       ??$__crt_fast_encode_pointer@P6AXXZ@@YAP6AXXZQ6AXXZ@Z 10059a80 f i libucrtd:onexit.obj
 0001:00058ab0       ??$__crt_fast_encode_pointer@PAP6AXXZ@@YAPAP6AXXZQAP6AXXZ@Z 10059ab0 f i libucrtd:onexit.obj
 0001:00058bb0       ??0?$__crt_unique_heap_ptr@P6AXXZU__crt_internal_free_policy@@@@QAE@QAP6AXXZ@Z 10059bb0 f i libucrtd:onexit.obj
 0001:00058bd0       ??1?$__crt_unique_heap_ptr@P6AXXZU__crt_internal_free_policy@@@@QAE@XZ 10059bd0 f i libucrtd:onexit.obj
 0001:00058bf0       ??1scoped_global_state_reset@__crt_state_management@@QAE@XZ 10059bf0 f i libucrtd:onexit.obj
 0001:00059060       ?detach@?$__crt_unique_heap_ptr@P6AXXZU__crt_internal_free_policy@@@@QAEPAP6AXXZXZ 1005a060 f i libucrtd:onexit.obj
 0001:00059090       ?release@?$__crt_unique_heap_ptr@P6AXXZU__crt_internal_free_policy@@@@QAEXXZ 1005a090 f i libucrtd:onexit.obj
 0001:000590c0       __crt_at_quick_exit        1005a0c0 f   libucrtd:onexit.obj
 0001:000590e0       __crt_atexit               1005a0e0 f   libucrtd:onexit.obj
 0001:00059100       __execute_onexit_table     1005a100 f   libucrtd:onexit.obj
 0001:00059130       __initialize_onexit_table  1005a130 f   libucrtd:onexit.obj
 0001:00059190       __register_onexit_function 1005a190 f   libucrtd:onexit.obj
 0001:000593d0       ??$?BX@__crt_fast_encoded_nullptr_t@@QBEPAXXZ 1005a3d0 f i libucrtd:initialization.obj
 0001:000593f0       ??$__crt_fast_encode_pointer@PAX@@YAPAXQAX@Z 1005a3f0 f i libucrtd:initialization.obj
 0001:000594b0       ?initialize@?$dual_state_global@PAU__crt_locale_data@@@__crt_state_management@@QAEXQAU__crt_locale_data@@@Z 1005a4b0 f i libucrtd:initialization.obj
 0001:000594f0       ___acrt_initialize         1005a4f0 f   libucrtd:initialization.obj
 0001:00059510       ___acrt_thread_attach      1005a510 f   libucrtd:initialization.obj
 0001:00059530       ___acrt_thread_detach      1005a530 f   libucrtd:initialization.obj
 0001:00059540       ___acrt_uninitialize       1005a540 f   libucrtd:initialization.obj
 0001:00059560       ___acrt_uninitialize_critical 1005a560 f   libucrtd:initialization.obj
 0001:000595b0       __get_terminate            1005a5b0 f   libucrtd:terminate.obj
 0001:000595d0       _set_terminate             1005a5d0 f   libucrtd:terminate.obj
 0001:00059600       _terminate                 1005a600 f   libucrtd:terminate.obj
 0001:000599a0       _strcpy_s                  1005a9a0 f   libucrtd:strcpy_s.obj
 0001:00059dd0       _strcat_s                  1005add0 f   libucrtd:strcat_s.obj
 0001:00059df0       ??$?0ABV?$stream_output_adapter@D@__crt_stdio_output@@AB_KABQBDABQAU__crt_locale_pointers@@ABQAD@?$format_validation_base@DV?$stream_output_adapter@D@__crt_stdio_output@@@__crt_stdio_output@@IAE@ABV?$stream_output_adapter@D@1@AB_KABQBDABQAU__crt_locale_pointers@@ABQAD@Z 1005adf0 f i libucrtd:output.obj
 0001:00059e20       ??$?0ABV?$stream_output_adapter@D@__crt_stdio_output@@AB_KABQBDABQAU__crt_locale_pointers@@ABQAD@?$positional_parameter_base@DV?$stream_output_adapter@D@__crt_stdio_output@@@__crt_stdio_output@@IAE@ABV?$stream_output_adapter@D@1@AB_KABQBDABQAU__crt_locale_pointers@@ABQAD@Z 1005ae20 f i libucrtd:output.obj
 0001:00059ea0       ??$?0ABV?$stream_output_adapter@D@__crt_stdio_output@@AB_KABQBDABQAU__crt_locale_pointers@@ABQAD@?$standard_base@DV?$stream_output_adapter@D@__crt_stdio_output@@@__crt_stdio_output@@IAE@ABV?$stream_output_adapter@D@1@AB_KABQBDABQAU__crt_locale_pointers@@ABQAD@Z 1005aea0 f i libucrtd:output.obj
 0001:00059ef0       ??$?0ABV?$stream_output_adapter@_W@__crt_stdio_output@@AB_KABQB_WABQAU__crt_locale_pointers@@ABQAD@?$format_validation_base@_WV?$stream_output_adapter@_W@__crt_stdio_output@@@__crt_stdio_output@@IAE@ABV?$stream_output_adapter@_W@1@AB_KABQB_WABQAU__crt_locale_pointers@@ABQAD@Z 1005aef0 f i libucrtd:output.obj
 0001:00059f20       ??$?0ABV?$stream_output_adapter@_W@__crt_stdio_output@@AB_KABQB_WABQAU__crt_locale_pointers@@ABQAD@?$positional_parameter_base@_WV?$stream_output_adapter@_W@__crt_stdio_output@@@__crt_stdio_output@@IAE@ABV?$stream_output_adapter@_W@1@AB_KABQB_WABQAU__crt_locale_pointers@@ABQAD@Z 1005af20 f i libucrtd:output.obj
 0001:00059fa0       ??$?0ABV?$stream_output_adapter@_W@__crt_stdio_output@@AB_KABQB_WABQAU__crt_locale_pointers@@ABQAD@?$standard_base@_WV?$stream_output_adapter@_W@__crt_stdio_output@@@__crt_stdio_output@@IAE@ABV?$stream_output_adapter@_W@1@AB_KABQB_WABQAU__crt_locale_pointers@@ABQAD@Z 1005afa0 f i libucrtd:output.obj
 0001:00059ff0       ??$?0ABV?$string_output_adapter@D@__crt_stdio_output@@AB_KABQBDABQAU__crt_locale_pointers@@ABQAD@?$format_validation_base@DV?$string_output_adapter@D@__crt_stdio_output@@@__crt_stdio_output@@IAE@ABV?$string_output_adapter@D@1@AB_KABQBDABQAU__crt_locale_pointers@@ABQAD@Z 1005aff0 f i libucrtd:output.obj
 0001:0005a020       ??$?0ABV?$string_output_adapter@D@__crt_stdio_output@@AB_KABQBDABQAU__crt_locale_pointers@@ABQAD@?$positional_parameter_base@DV?$string_output_adapter@D@__crt_stdio_output@@@__crt_stdio_output@@IAE@ABV?$string_output_adapter@D@1@AB_KABQBDABQAU__crt_locale_pointers@@ABQAD@Z 1005b020 f i libucrtd:output.obj
 0001:0005a0a0       ??$?0ABV?$string_output_adapter@D@__crt_stdio_output@@AB_KABQBDABQAU__crt_locale_pointers@@ABQAD@?$standard_base@DV?$string_output_adapter@D@__crt_stdio_output@@@__crt_stdio_output@@IAE@ABV?$string_output_adapter@D@1@AB_KABQBDABQAU__crt_locale_pointers@@ABQAD@Z 1005b0a0 f i libucrtd:output.obj
 0001:0005a0f0       ??$?0ABV?$string_output_adapter@_W@__crt_stdio_output@@AB_KABQB_WABQAU__crt_locale_pointers@@ABQAD@?$format_validation_base@_WV?$string_output_adapter@_W@__crt_stdio_output@@@__crt_stdio_output@@IAE@ABV?$string_output_adapter@_W@1@AB_KABQB_WABQAU__crt_locale_pointers@@ABQAD@Z 1005b0f0 f i libucrtd:output.obj
 0001:0005a120       ??$?0ABV?$string_output_adapter@_W@__crt_stdio_output@@AB_KABQB_WABQAU__crt_locale_pointers@@ABQAD@?$positional_parameter_base@_WV?$string_output_adapter@_W@__crt_stdio_output@@@__crt_stdio_output@@IAE@ABV?$string_output_adapter@_W@1@AB_KABQB_WABQAU__crt_locale_pointers@@ABQAD@Z 1005b120 f i libucrtd:output.obj
 0001:0005a1a0       ??$?0ABV?$string_output_adapter@_W@__crt_stdio_output@@AB_KABQB_WABQAU__crt_locale_pointers@@ABQAD@?$standard_base@_WV?$string_output_adapter@_W@__crt_stdio_output@@@__crt_stdio_output@@IAE@ABV?$string_output_adapter@_W@1@AB_KABQB_WABQAU__crt_locale_pointers@@ABQAD@Z 1005b1a0 f i libucrtd:output.obj
 0001:0005d450       ??$count@D@formatting_buffer@__crt_stdio_output@@QBEIXZ 1005e450 f i libucrtd:output.obj
 0001:0005d490       ??$count@_W@formatting_buffer@__crt_stdio_output@@QBEIXZ 1005e490 f i libucrtd:output.obj
 0001:0005d4d0       ??$data@D@formatting_buffer@__crt_stdio_output@@QAEPADXZ 1005e4d0 f i libucrtd:output.obj
 0001:0005d510       ??$data@_W@formatting_buffer@__crt_stdio_output@@QAEPA_WXZ 1005e510 f i libucrtd:output.obj
 0001:0005d550       ??$ensure_buffer_is_big_enough@D@formatting_buffer@__crt_stdio_output@@QAE_NI@Z 1005e550 f i libucrtd:output.obj
 0001:0005d630       ??$ensure_buffer_is_big_enough@_W@formatting_buffer@__crt_stdio_output@@QAE_NI@Z 1005e630 f i libucrtd:output.obj
 0001:0005d720       ??$extract_argument_from_va_list@C_J@?$positional_parameter_base@DV?$stream_output_adapter@D@__crt_stdio_output@@@__crt_stdio_output@@IAE_NAA_J@Z 1005e720 f i libucrtd:output.obj
 0001:0005d860       ??$extract_argument_from_va_list@C_J@?$positional_parameter_base@DV?$string_output_adapter@D@__crt_stdio_output@@@__crt_stdio_output@@IAE_NAA_J@Z 1005e860 f i libucrtd:output.obj
 0001:0005d9a0       ??$extract_argument_from_va_list@C_J@?$positional_parameter_base@_WV?$stream_output_adapter@_W@__crt_stdio_output@@@__crt_stdio_output@@IAE_NAA_J@Z 1005e9a0 f i libucrtd:output.obj
 0001:0005dae0       ??$extract_argument_from_va_list@C_J@?$positional_parameter_base@_WV?$string_output_adapter@_W@__crt_stdio_output@@@__crt_stdio_output@@IAE_NAA_J@Z 1005eae0 f i libucrtd:output.obj
 0001:0005dc20       ??$extract_argument_from_va_list@C_J@?$standard_base@DV?$stream_output_adapter@D@__crt_stdio_output@@@__crt_stdio_output@@IAE_NAA_J@Z 1005ec20 f i libucrtd:output.obj
 0001:0005dc50       ??$extract_argument_from_va_list@C_J@?$standard_base@DV?$string_output_adapter@D@__crt_stdio_output@@@__crt_stdio_output@@IAE_NAA_J@Z 1005ec50 f i libucrtd:output.obj
 0001:0005dc80       ??$extract_argument_from_va_list@C_J@?$standard_base@_WV?$stream_output_adapter@_W@__crt_stdio_output@@@__crt_stdio_output@@IAE_NAA_J@Z 1005ec80 f i libucrtd:output.obj
 0001:0005dcb0       ??$extract_argument_from_va_list@C_J@?$standard_base@_WV?$string_output_adapter@_W@__crt_stdio_output@@@__crt_stdio_output@@IAE_NAA_J@Z 1005ecb0 f i libucrtd:output.obj
 0001:0005dce0       ??$extract_argument_from_va_list@E_J@?$positional_parameter_base@DV?$stream_output_adapter@D@__crt_stdio_output@@@__crt_stdio_output@@IAE_NAA_J@Z 1005ece0 f i libucrtd:output.obj
 0001:0005de20       ??$extract_argument_from_va_list@E_J@?$positional_parameter_base@DV?$string_output_adapter@D@__crt_stdio_output@@@__crt_stdio_output@@IAE_NAA_J@Z 1005ee20 f i libucrtd:output.obj
 0001:0005df60       ??$extract_argument_from_va_list@E_J@?$positional_parameter_base@_WV?$stream_output_adapter@_W@__crt_stdio_output@@@__crt_stdio_output@@IAE_NAA_J@Z 1005ef60 f i libucrtd:output.obj
 0001:0005e0a0       ??$extract_argument_from_va_list@E_J@?$positional_parameter_base@_WV?$string_output_adapter@_W@__crt_stdio_output@@@__crt_stdio_output@@IAE_NAA_J@Z 1005f0a0 f i libucrtd:output.obj
 0001:0005e1e0       ??$extract_argument_from_va_list@E_J@?$standard_base@DV?$stream_output_adapter@D@__crt_stdio_output@@@__crt_stdio_output@@IAE_NAA_J@Z 1005f1e0 f i libucrtd:output.obj
 0001:0005e210       ??$extract_argument_from_va_list@E_J@?$standard_base@DV?$string_output_adapter@D@__crt_stdio_output@@@__crt_stdio_output@@IAE_NAA_J@Z 1005f210 f i libucrtd:output.obj
 0001:0005e240       ??$extract_argument_from_va_list@E_J@?$standard_base@_WV?$stream_output_adapter@_W@__crt_stdio_output@@@__crt_stdio_output@@IAE_NAA_J@Z 1005f240 f i libucrtd:output.obj
 0001:0005e270       ??$extract_argument_from_va_list@E_J@?$standard_base@_WV?$string_output_adapter@_W@__crt_stdio_output@@@__crt_stdio_output@@IAE_NAA_J@Z 1005f270 f i libucrtd:output.obj
 0001:0005e2a0       ??$extract_argument_from_va_list@F_J@?$positional_parameter_base@DV?$stream_output_adapter@D@__crt_stdio_output@@@__crt_stdio_output@@IAE_NAA_J@Z 1005f2a0 f i libucrtd:output.obj
 0001:0005e3d0       ??$extract_argument_from_va_list@F_J@?$positional_parameter_base@DV?$string_output_adapter@D@__crt_stdio_output@@@__crt_stdio_output@@IAE_NAA_J@Z 1005f3d0 f i libucrtd:output.obj
 0001:0005e500       ??$extract_argument_from_va_list@F_J@?$positional_parameter_base@_WV?$stream_output_adapter@_W@__crt_stdio_output@@@__crt_stdio_output@@IAE_NAA_J@Z 1005f500 f i libucrtd:output.obj
 0001:0005e630       ??$extract_argument_from_va_list@F_J@?$positional_parameter_base@_WV?$string_output_adapter@_W@__crt_stdio_output@@@__crt_stdio_output@@IAE_NAA_J@Z 1005f630 f i libucrtd:output.obj
 0001:0005e760       ??$extract_argument_from_va_list@F_J@?$standard_base@DV?$stream_output_adapter@D@__crt_stdio_output@@@__crt_stdio_output@@IAE_NAA_J@Z 1005f760 f i libucrtd:output.obj
 0001:0005e790       ??$extract_argument_from_va_list@F_J@?$standard_base@DV?$string_output_adapter@D@__crt_stdio_output@@@__crt_stdio_output@@IAE_NAA_J@Z 1005f790 f i libucrtd:output.obj
 0001:0005e7c0       ??$extract_argument_from_va_list@F_J@?$standard_base@_WV?$stream_output_adapter@_W@__crt_stdio_output@@@__crt_stdio_output@@IAE_NAA_J@Z 1005f7c0 f i libucrtd:output.obj
 0001:0005e7f0       ??$extract_argument_from_va_list@F_J@?$standard_base@_WV?$string_output_adapter@_W@__crt_stdio_output@@@__crt_stdio_output@@IAE_NAA_J@Z 1005f7f0 f i libucrtd:output.obj
 0001:0005e820       ??$extract_argument_from_va_list@GD@?$positional_parameter_base@DV?$stream_output_adapter@D@__crt_stdio_output@@@__crt_stdio_output@@IAE_NAAD@Z 1005f820 f i libucrtd:output.obj
 0001:0005e950       ??$extract_argument_from_va_list@GD@?$positional_parameter_base@DV?$string_output_adapter@D@__crt_stdio_output@@@__crt_stdio_output@@IAE_NAAD@Z 1005f950 f i libucrtd:output.obj
 0001:0005ea80       ??$extract_argument_from_va_list@GD@?$standard_base@DV?$stream_output_adapter@D@__crt_stdio_output@@@__crt_stdio_output@@IAE_NAAD@Z 1005fa80 f i libucrtd:output.obj
 0001:0005eab0       ??$extract_argument_from_va_list@GD@?$standard_base@DV?$string_output_adapter@D@__crt_stdio_output@@@__crt_stdio_output@@IAE_NAAD@Z 1005fab0 f i libucrtd:output.obj
 0001:0005eae0       ??$extract_argument_from_va_list@G_J@?$positional_parameter_base@DV?$stream_output_adapter@D@__crt_stdio_output@@@__crt_stdio_output@@IAE_NAA_J@Z 1005fae0 f i libucrtd:output.obj
 0001:0005ec20       ??$extract_argument_from_va_list@G_J@?$positional_parameter_base@DV?$string_output_adapter@D@__crt_stdio_output@@@__crt_stdio_output@@IAE_NAA_J@Z 1005fc20 f i libucrtd:output.obj
 0001:0005ed60       ??$extract_argument_from_va_list@G_J@?$positional_parameter_base@_WV?$stream_output_adapter@_W@__crt_stdio_output@@@__crt_stdio_output@@IAE_NAA_J@Z 1005fd60 f i libucrtd:output.obj
 0001:0005eea0       ??$extract_argument_from_va_list@G_J@?$positional_parameter_base@_WV?$string_output_adapter@_W@__crt_stdio_output@@@__crt_stdio_output@@IAE_NAA_J@Z 1005fea0 f i libucrtd:output.obj
 0001:0005efe0       ??$extract_argument_from_va_list@G_J@?$standard_base@DV?$stream_output_adapter@D@__crt_stdio_output@@@__crt_stdio_output@@IAE_NAA_J@Z 1005ffe0 f i libucrtd:output.obj
 0001:0005f010       ??$extract_argument_from_va_list@G_J@?$standard_base@DV?$string_output_adapter@D@__crt_stdio_output@@@__crt_stdio_output@@IAE_NAA_J@Z 10060010 f i libucrtd:output.obj
 0001:0005f040       ??$extract_argument_from_va_list@G_J@?$standard_base@_WV?$stream_output_adapter@_W@__crt_stdio_output@@@__crt_stdio_output@@IAE_NAA_J@Z 10060040 f i libucrtd:output.obj
 0001:0005f070       ??$extract_argument_from_va_list@G_J@?$standard_base@_WV?$string_output_adapter@_W@__crt_stdio_output@@@__crt_stdio_output@@IAE_NAA_J@Z 10060070 f i libucrtd:output.obj
 0001:0005f0a0       ??$extract_argument_from_va_list@H_J@?$positional_parameter_base@DV?$stream_output_adapter@D@__crt_stdio_output@@@__crt_stdio_output@@IAE_NAA_J@Z 100600a0 f i libucrtd:output.obj
 0001:0005f1d0       ??$extract_argument_from_va_list@H_J@?$positional_parameter_base@DV?$string_output_adapter@D@__crt_stdio_output@@@__crt_stdio_output@@IAE_NAA_J@Z 100601d0 f i libucrtd:output.obj
 0001:0005f300       ??$extract_argument_from_va_list@H_J@?$positional_parameter_base@_WV?$stream_output_adapter@_W@__crt_stdio_output@@@__crt_stdio_output@@IAE_NAA_J@Z 10060300 f i libucrtd:output.obj
 0001:0005f430       ??$extract_argument_from_va_list@H_J@?$positional_parameter_base@_WV?$string_output_adapter@_W@__crt_stdio_output@@@__crt_stdio_output@@IAE_NAA_J@Z 10060430 f i libucrtd:output.obj
 0001:0005f560       ??$extract_argument_from_va_list@H_J@?$standard_base@DV?$stream_output_adapter@D@__crt_stdio_output@@@__crt_stdio_output@@IAE_NAA_J@Z 10060560 f i libucrtd:output.obj
 0001:0005f590       ??$extract_argument_from_va_list@H_J@?$standard_base@DV?$string_output_adapter@D@__crt_stdio_output@@@__crt_stdio_output@@IAE_NAA_J@Z 10060590 f i libucrtd:output.obj
 0001:0005f5c0       ??$extract_argument_from_va_list@H_J@?$standard_base@_WV?$stream_output_adapter@_W@__crt_stdio_output@@@__crt_stdio_output@@IAE_NAA_J@Z 100605c0 f i libucrtd:output.obj
 0001:0005f5f0       ??$extract_argument_from_va_list@H_J@?$standard_base@_WV?$string_output_adapter@_W@__crt_stdio_output@@@__crt_stdio_output@@IAE_NAA_J@Z 100605f0 f i libucrtd:output.obj
 0001:0005f620       ??$extract_argument_from_va_list@I_J@?$positional_parameter_base@DV?$stream_output_adapter@D@__crt_stdio_output@@@__crt_stdio_output@@IAE_NAA_J@Z 10060620 f i libucrtd:output.obj
 0001:0005f750       ??$extract_argument_from_va_list@I_J@?$positional_parameter_base@DV?$string_output_adapter@D@__crt_stdio_output@@@__crt_stdio_output@@IAE_NAA_J@Z 10060750 f i libucrtd:output.obj
 0001:0005f880       ??$extract_argument_from_va_list@I_J@?$positional_parameter_base@_WV?$stream_output_adapter@_W@__crt_stdio_output@@@__crt_stdio_output@@IAE_NAA_J@Z 10060880 f i libucrtd:output.obj
 0001:0005f9b0       ??$extract_argument_from_va_list@I_J@?$positional_parameter_base@_WV?$string_output_adapter@_W@__crt_stdio_output@@@__crt_stdio_output@@IAE_NAA_J@Z 100609b0 f i libucrtd:output.obj
 0001:0005fae0       ??$extract_argument_from_va_list@I_J@?$standard_base@DV?$stream_output_adapter@D@__crt_stdio_output@@@__crt_stdio_output@@IAE_NAA_J@Z 10060ae0 f i libucrtd:output.obj
 0001:0005fb10       ??$extract_argument_from_va_list@I_J@?$standard_base@DV?$string_output_adapter@D@__crt_stdio_output@@@__crt_stdio_output@@IAE_NAA_J@Z 10060b10 f i libucrtd:output.obj
 0001:0005fb40       ??$extract_argument_from_va_list@I_J@?$standard_base@_WV?$stream_output_adapter@_W@__crt_stdio_output@@@__crt_stdio_output@@IAE_NAA_J@Z 10060b40 f i libucrtd:output.obj
 0001:0005fb70       ??$extract_argument_from_va_list@I_J@?$standard_base@_WV?$string_output_adapter@_W@__crt_stdio_output@@@__crt_stdio_output@@IAE_NAA_J@Z 10060b70 f i libucrtd:output.obj
 0001:0005fba0       ??$extract_argument_from_va_list@PADPAD@?$positional_parameter_base@DV?$stream_output_adapter@D@__crt_stdio_output@@@__crt_stdio_output@@IAE_NAAPAD@Z 10060ba0 f i libucrtd:output.obj
 0001:0005fcd0       ??$extract_argument_from_va_list@PADPAD@?$positional_parameter_base@DV?$string_output_adapter@D@__crt_stdio_output@@@__crt_stdio_output@@IAE_NAAPAD@Z 10060cd0 f i libucrtd:output.obj
 0001:0005fe00       ??$extract_argument_from_va_list@PADPAD@?$positional_parameter_base@_WV?$stream_output_adapter@_W@__crt_stdio_output@@@__crt_stdio_output@@IAE_NAAPAD@Z 10060e00 f i libucrtd:output.obj
 0001:0005ff30       ??$extract_argument_from_va_list@PADPAD@?$positional_parameter_base@_WV?$string_output_adapter@_W@__crt_stdio_output@@@__crt_stdio_output@@IAE_NAAPAD@Z 10060f30 f i libucrtd:output.obj
 0001:00060060       ??$extract_argument_from_va_list@PADPAD@?$standard_base@DV?$stream_output_adapter@D@__crt_stdio_output@@@__crt_stdio_output@@IAE_NAAPAD@Z 10061060 f i libucrtd:output.obj
 0001:00060090       ??$extract_argument_from_va_list@PADPAD@?$standard_base@DV?$string_output_adapter@D@__crt_stdio_output@@@__crt_stdio_output@@IAE_NAAPAD@Z 10061090 f i libucrtd:output.obj
 0001:000600c0       ??$extract_argument_from_va_list@PADPAD@?$standard_base@_WV?$stream_output_adapter@_W@__crt_stdio_output@@@__crt_stdio_output@@IAE_NAAPAD@Z 100610c0 f i libucrtd:output.obj
 0001:000600f0       ??$extract_argument_from_va_list@PADPAD@?$standard_base@_WV?$string_output_adapter@_W@__crt_stdio_output@@@__crt_stdio_output@@IAE_NAAPAD@Z 100610f0 f i libucrtd:output.obj
 0001:00060820       ??$extract_argument_from_va_list@PAXPAX@?$positional_parameter_base@DV?$stream_output_adapter@D@__crt_stdio_output@@@__crt_stdio_output@@IAE_NAAPAX@Z 10061820 f i libucrtd:output.obj
 0001:00060950       ??$extract_argument_from_va_list@PAXPAX@?$positional_parameter_base@DV?$string_output_adapter@D@__crt_stdio_output@@@__crt_stdio_output@@IAE_NAAPAX@Z 10061950 f i libucrtd:output.obj
 0001:00060a80       ??$extract_argument_from_va_list@PAXPAX@?$positional_parameter_base@_WV?$stream_output_adapter@_W@__crt_stdio_output@@@__crt_stdio_output@@IAE_NAAPAX@Z 10061a80 f i libucrtd:output.obj
 0001:00060bb0       ??$extract_argument_from_va_list@PAXPAX@?$positional_parameter_base@_WV?$string_output_adapter@_W@__crt_stdio_output@@@__crt_stdio_output@@IAE_NAAPAX@Z 10061bb0 f i libucrtd:output.obj
 0001:00060ce0       ??$extract_argument_from_va_list@PAXPAX@?$standard_base@DV?$stream_output_adapter@D@__crt_stdio_output@@@__crt_stdio_output@@IAE_NAAPAX@Z 10061ce0 f i libucrtd:output.obj
 0001:00060d10       ??$extract_argument_from_va_list@PAXPAX@?$standard_base@DV?$string_output_adapter@D@__crt_stdio_output@@@__crt_stdio_output@@IAE_NAAPAX@Z 10061d10 f i libucrtd:output.obj
 0001:00060d40       ??$extract_argument_from_va_list@PAXPAX@?$standard_base@_WV?$stream_output_adapter@_W@__crt_stdio_output@@@__crt_stdio_output@@IAE_NAAPAX@Z 10061d40 f i libucrtd:output.obj
 0001:00060d70       ??$extract_argument_from_va_list@PAXPAX@?$standard_base@_WV?$string_output_adapter@_W@__crt_stdio_output@@@__crt_stdio_output@@IAE_NAAPAX@Z 10061d70 f i libucrtd:output.obj
 0001:00060da0       ??$extract_argument_from_va_list@U_CRT_DOUBLE@@U1@@?$positional_parameter_base@DV?$stream_output_adapter@D@__crt_stdio_output@@@__crt_stdio_output@@IAE_NAAU_CRT_DOUBLE@@@Z 10061da0 f i libucrtd:output.obj
 0001:00060f00       ??$extract_argument_from_va_list@U_CRT_DOUBLE@@U1@@?$positional_parameter_base@DV?$string_output_adapter@D@__crt_stdio_output@@@__crt_stdio_output@@IAE_NAAU_CRT_DOUBLE@@@Z 10061f00 f i libucrtd:output.obj
 0001:00061060       ??$extract_argument_from_va_list@U_CRT_DOUBLE@@U1@@?$positional_parameter_base@_WV?$stream_output_adapter@_W@__crt_stdio_output@@@__crt_stdio_output@@IAE_NAAU_CRT_DOUBLE@@@Z 10062060 f i libucrtd:output.obj
 0001:000611c0       ??$extract_argument_from_va_list@U_CRT_DOUBLE@@U1@@?$positional_parameter_base@_WV?$string_output_adapter@_W@__crt_stdio_output@@@__crt_stdio_output@@IAE_NAAU_CRT_DOUBLE@@@Z 100621c0 f i libucrtd:output.obj
 0001:00061320       ??$extract_argument_from_va_list@U_CRT_DOUBLE@@U1@@?$standard_base@DV?$stream_output_adapter@D@__crt_stdio_output@@@__crt_stdio_output@@IAE_NAAU_CRT_DOUBLE@@@Z 10062320 f i libucrtd:output.obj
 0001:00061370       ??$extract_argument_from_va_list@U_CRT_DOUBLE@@U1@@?$standard_base@DV?$string_output_adapter@D@__crt_stdio_output@@@__crt_stdio_output@@IAE_NAAU_CRT_DOUBLE@@@Z 10062370 f i libucrtd:output.obj
 0001:000613c0       ??$extract_argument_from_va_list@U_CRT_DOUBLE@@U1@@?$standard_base@_WV?$stream_output_adapter@_W@__crt_stdio_output@@@__crt_stdio_output@@IAE_NAAU_CRT_DOUBLE@@@Z 100623c0 f i libucrtd:output.obj
 0001:00061410       ??$extract_argument_from_va_list@U_CRT_DOUBLE@@U1@@?$standard_base@_WV?$string_output_adapter@_W@__crt_stdio_output@@@__crt_stdio_output@@IAE_NAAU_CRT_DOUBLE@@@Z 10062410 f i libucrtd:output.obj
 0001:00061460       ??$extract_argument_from_va_list@_J_J@?$positional_parameter_base@DV?$stream_output_adapter@D@__crt_stdio_output@@@__crt_stdio_output@@IAE_NAA_J@Z 10062460 f i libucrtd:output.obj
 0001:00061590       ??$extract_argument_from_va_list@_J_J@?$positional_parameter_base@DV?$string_output_adapter@D@__crt_stdio_output@@@__crt_stdio_output@@IAE_NAA_J@Z 10062590 f i libucrtd:output.obj
 0001:000616c0       ??$extract_argument_from_va_list@_J_J@?$positional_parameter_base@_WV?$stream_output_adapter@_W@__crt_stdio_output@@@__crt_stdio_output@@IAE_NAA_J@Z 100626c0 f i libucrtd:output.obj
 0001:000617f0       ??$extract_argument_from_va_list@_J_J@?$positional_parameter_base@_WV?$string_output_adapter@_W@__crt_stdio_output@@@__crt_stdio_output@@IAE_NAA_J@Z 100627f0 f i libucrtd:output.obj
 0001:00061920       ??$extract_argument_from_va_list@_J_J@?$standard_base@DV?$stream_output_adapter@D@__crt_stdio_output@@@__crt_stdio_output@@IAE_NAA_J@Z 10062920 f i libucrtd:output.obj
 0001:00061950       ??$extract_argument_from_va_list@_J_J@?$standard_base@DV?$string_output_adapter@D@__crt_stdio_output@@@__crt_stdio_output@@IAE_NAA_J@Z 10062950 f i libucrtd:output.obj
 0001:00061980       ??$extract_argument_from_va_list@_J_J@?$standard_base@_WV?$stream_output_adapter@_W@__crt_stdio_output@@@__crt_stdio_output@@IAE_NAA_J@Z 10062980 f i libucrtd:output.obj
 0001:000619b0       ??$extract_argument_from_va_list@_J_J@?$standard_base@_WV?$string_output_adapter@_W@__crt_stdio_output@@@__crt_stdio_output@@IAE_NAA_J@Z 100629b0 f i libucrtd:output.obj
 0001:000619e0       ??$extract_argument_from_va_list@_K_J@?$positional_parameter_base@DV?$stream_output_adapter@D@__crt_stdio_output@@@__crt_stdio_output@@IAE_NAA_J@Z 100629e0 f i libucrtd:output.obj
 0001:00061b10       ??$extract_argument_from_va_list@_K_J@?$positional_parameter_base@DV?$string_output_adapter@D@__crt_stdio_output@@@__crt_stdio_output@@IAE_NAA_J@Z 10062b10 f i libucrtd:output.obj
 0001:00061c40       ??$extract_argument_from_va_list@_K_J@?$positional_parameter_base@_WV?$stream_output_adapter@_W@__crt_stdio_output@@@__crt_stdio_output@@IAE_NAA_J@Z 10062c40 f i libucrtd:output.obj
 0001:00061d70       ??$extract_argument_from_va_list@_K_J@?$positional_parameter_base@_WV?$string_output_adapter@_W@__crt_stdio_output@@@__crt_stdio_output@@IAE_NAA_J@Z 10062d70 f i libucrtd:output.obj
 0001:00061ea0       ??$extract_argument_from_va_list@_K_J@?$standard_base@DV?$stream_output_adapter@D@__crt_stdio_output@@@__crt_stdio_output@@IAE_NAA_J@Z 10062ea0 f i libucrtd:output.obj
 0001:00061ed0       ??$extract_argument_from_va_list@_K_J@?$standard_base@DV?$string_output_adapter@D@__crt_stdio_output@@@__crt_stdio_output@@IAE_NAA_J@Z 10062ed0 f i libucrtd:output.obj
 0001:00061f00       ??$extract_argument_from_va_list@_K_J@?$standard_base@_WV?$stream_output_adapter@_W@__crt_stdio_output@@@__crt_stdio_output@@IAE_NAA_J@Z 10062f00 f i libucrtd:output.obj
 0001:00061f30       ??$extract_argument_from_va_list@_K_J@?$standard_base@_WV?$string_output_adapter@_W@__crt_stdio_output@@@__crt_stdio_output@@IAE_NAA_J@Z 10062f30 f i libucrtd:output.obj
 0001:00061f60       ??$extract_argument_from_va_list@_W_W@?$positional_parameter_base@DV?$stream_output_adapter@D@__crt_stdio_output@@@__crt_stdio_output@@IAE_NAA_W@Z 10062f60 f i libucrtd:output.obj
 0001:00062090       ??$extract_argument_from_va_list@_W_W@?$positional_parameter_base@DV?$string_output_adapter@D@__crt_stdio_output@@@__crt_stdio_output@@IAE_NAA_W@Z 10063090 f i libucrtd:output.obj
 0001:000621c0       ??$extract_argument_from_va_list@_W_W@?$positional_parameter_base@_WV?$stream_output_adapter@_W@__crt_stdio_output@@@__crt_stdio_output@@IAE_NAA_W@Z 100631c0 f i libucrtd:output.obj
 0001:000622f0       ??$extract_argument_from_va_list@_W_W@?$positional_parameter_base@_WV?$string_output_adapter@_W@__crt_stdio_output@@@__crt_stdio_output@@IAE_NAA_W@Z 100632f0 f i libucrtd:output.obj
 0001:00062420       ??$extract_argument_from_va_list@_W_W@?$standard_base@DV?$stream_output_adapter@D@__crt_stdio_output@@@__crt_stdio_output@@IAE_NAA_W@Z 10063420 f i libucrtd:output.obj
 0001:00062450       ??$extract_argument_from_va_list@_W_W@?$standard_base@DV?$string_output_adapter@D@__crt_stdio_output@@@__crt_stdio_output@@IAE_NAA_W@Z 10063450 f i libucrtd:output.obj
 0001:00062480       ??$extract_argument_from_va_list@_W_W@?$standard_base@_WV?$stream_output_adapter@_W@__crt_stdio_output@@@__crt_stdio_output@@IAE_NAA_W@Z 10063480 f i libucrtd:output.obj
 0001:000624b0       ??$extract_argument_from_va_list@_W_W@?$standard_base@_WV?$string_output_adapter@_W@__crt_stdio_output@@@__crt_stdio_output@@IAE_NAA_W@Z 100634b0 f i libucrtd:output.obj
 0001:000624e0       ??$get_parameter_type@D@?$positional_parameter_base@DV?$stream_output_adapter@D@__crt_stdio_output@@@__crt_stdio_output@@CA?AW4parameter_type@01@PAD@Z 100634e0 f i libucrtd:output.obj
 0001:000624f0       ??$get_parameter_type@D@?$positional_parameter_base@DV?$string_output_adapter@D@__crt_stdio_output@@@__crt_stdio_output@@CA?AW4parameter_type@01@PAD@Z 100634f0 f i libucrtd:output.obj
 0001:00062500       ??$get_parameter_type@D@?$positional_parameter_base@_WV?$stream_output_adapter@_W@__crt_stdio_output@@@__crt_stdio_output@@CA?AW4parameter_type@01@PAD@Z 10063500 f i libucrtd:output.obj
 0001:00062510       ??$get_parameter_type@D@?$positional_parameter_base@_WV?$string_output_adapter@_W@__crt_stdio_output@@@__crt_stdio_output@@CA?AW4parameter_type@01@PAD@Z 10063510 f i libucrtd:output.obj
 0001:00062560       ??$get_parameter_type@X@?$positional_parameter_base@DV?$stream_output_adapter@D@__crt_stdio_output@@@__crt_stdio_output@@CA?AW4parameter_type@01@PAX@Z 10063560 f i libucrtd:output.obj
 0001:00062570       ??$get_parameter_type@X@?$positional_parameter_base@DV?$string_output_adapter@D@__crt_stdio_output@@@__crt_stdio_output@@CA?AW4parameter_type@01@PAX@Z 10063570 f i libucrtd:output.obj
 0001:00062580       ??$get_parameter_type@X@?$positional_parameter_base@_WV?$stream_output_adapter@_W@__crt_stdio_output@@@__crt_stdio_output@@CA?AW4parameter_type@01@PAX@Z 10063580 f i libucrtd:output.obj
 0001:00062590       ??$get_parameter_type@X@?$positional_parameter_base@_WV?$string_output_adapter@_W@__crt_stdio_output@@@__crt_stdio_output@@CA?AW4parameter_type@01@PAX@Z 10063590 f i libucrtd:output.obj
 0001:000625a0       ??$is_character_specifier@D@?$positional_parameter_base@DV?$stream_output_adapter@D@__crt_stdio_output@@@__crt_stdio_output@@CA_ND@Z 100635a0 f i libucrtd:output.obj
 0001:000625d0       ??$is_character_specifier@D@?$positional_parameter_base@DV?$string_output_adapter@D@__crt_stdio_output@@@__crt_stdio_output@@CA_ND@Z 100635d0 f i libucrtd:output.obj
 0001:00062600       ??$is_character_specifier@_W@?$positional_parameter_base@_WV?$stream_output_adapter@_W@__crt_stdio_output@@@__crt_stdio_output@@CA_N_W@Z 10063600 f i libucrtd:output.obj
 0001:00062630       ??$is_character_specifier@_W@?$positional_parameter_base@_WV?$string_output_adapter@_W@__crt_stdio_output@@@__crt_stdio_output@@CA_N_W@Z 10063630 f i libucrtd:output.obj
 0001:00062660       ??$is_integral_specifier@D@?$positional_parameter_base@DV?$stream_output_adapter@D@__crt_stdio_output@@@__crt_stdio_output@@CA_ND@Z 10063660 f i libucrtd:output.obj
 0001:000626c0       ??$is_integral_specifier@D@?$positional_parameter_base@DV?$string_output_adapter@D@__crt_stdio_output@@@__crt_stdio_output@@CA_ND@Z 100636c0 f i libucrtd:output.obj
 0001:00062720       ??$is_integral_specifier@_W@?$positional_parameter_base@_WV?$stream_output_adapter@_W@__crt_stdio_output@@@__crt_stdio_output@@CA_N_W@Z 10063720 f i libucrtd:output.obj
 0001:00062780       ??$is_integral_specifier@_W@?$positional_parameter_base@_WV?$string_output_adapter@_W@__crt_stdio_output@@@__crt_stdio_output@@CA_N_W@Z 10063780 f i libucrtd:output.obj
 0001:000627e0       ??$is_pointer_specifier@D@?$positional_parameter_base@DV?$stream_output_adapter@D@__crt_stdio_output@@@__crt_stdio_output@@CA_ND@Z 100637e0 f i libucrtd:output.obj
 0001:00062810       ??$is_pointer_specifier@D@?$positional_parameter_base@DV?$string_output_adapter@D@__crt_stdio_output@@@__crt_stdio_output@@CA_ND@Z 10063810 f i libucrtd:output.obj
 0001:00062840       ??$is_pointer_specifier@_W@?$positional_parameter_base@_WV?$stream_output_adapter@_W@__crt_stdio_output@@@__crt_stdio_output@@CA_N_W@Z 10063840 f i libucrtd:output.obj
 0001:00062870       ??$is_pointer_specifier@_W@?$positional_parameter_base@_WV?$string_output_adapter@_W@__crt_stdio_output@@@__crt_stdio_output@@CA_N_W@Z 10063870 f i libucrtd:output.obj
 0001:000628a0       ??$is_string_specifier@D@?$positional_parameter_base@DV?$stream_output_adapter@D@__crt_stdio_output@@@__crt_stdio_output@@CA_ND@Z 100638a0 f i libucrtd:output.obj
 0001:000628d0       ??$is_string_specifier@D@?$positional_parameter_base@DV?$string_output_adapter@D@__crt_stdio_output@@@__crt_stdio_output@@CA_ND@Z 100638d0 f i libucrtd:output.obj
 0001:00062900       ??$is_string_specifier@_W@?$positional_parameter_base@_WV?$stream_output_adapter@_W@__crt_stdio_output@@@__crt_stdio_output@@CA_N_W@Z 10063900 f i libucrtd:output.obj
 0001:00062930       ??$is_string_specifier@_W@?$positional_parameter_base@_WV?$string_output_adapter@_W@__crt_stdio_output@@@__crt_stdio_output@@CA_N_W@Z 10063930 f i libucrtd:output.obj
 0001:00062960       ??$is_wide_character_specifier@D@__crt_stdio_output@@YA_N_KDW4length_modifier@0@@Z 10063960 f i libucrtd:output.obj
 0001:000629e0       ??$is_wide_character_specifier@_W@__crt_stdio_output@@YA_N_K_WW4length_modifier@0@@Z 100639e0 f i libucrtd:output.obj
 0001:00062aa0       ??$peek_va_arg@C@__crt_stdio_output@@YACPAD@Z 10063aa0 f i libucrtd:output.obj
 0001:00062ac0       ??$peek_va_arg@E@__crt_stdio_output@@YAEPAD@Z 10063ac0 f i libucrtd:output.obj
 0001:00062ae0       ??$peek_va_arg@F@__crt_stdio_output@@YAFPAD@Z 10063ae0 f i libucrtd:output.obj
 0001:00062b00       ??$peek_va_arg@G@__crt_stdio_output@@YAGPAD@Z 10063b00 f i libucrtd:output.obj
 0001:00062b20       ??$peek_va_arg@H@__crt_stdio_output@@YAHPAD@Z 10063b20 f i libucrtd:output.obj
 0001:00062b40       ??$peek_va_arg@I@__crt_stdio_output@@YAIPAD@Z 10063b40 f i libucrtd:output.obj
 0001:00062b60       ??$peek_va_arg@PAD@__crt_stdio_output@@YAPADPAD@Z 10063b60 f i libucrtd:output.obj
 0001:00062c00       ??$peek_va_arg@PAX@__crt_stdio_output@@YAPAXPAD@Z 10063c00 f i libucrtd:output.obj
 0001:00062c20       ??$peek_va_arg@U_CRT_DOUBLE@@@__crt_stdio_output@@YA?AU_CRT_DOUBLE@@PAD@Z 10063c20 f i libucrtd:output.obj
 0001:00062c40       ??$peek_va_arg@_J@__crt_stdio_output@@YA_JPAD@Z 10063c40 f i libucrtd:output.obj
 0001:00062c60       ??$peek_va_arg@_K@__crt_stdio_output@@YA_KPAD@Z 10063c60 f i libucrtd:output.obj
 0001:00062c80       ??$peek_va_arg@_W@__crt_stdio_output@@YA_WPAD@Z 10063c80 f i libucrtd:output.obj
 0001:00062ca0       ??$puttc_nolock@ABDPAU_iobuf@@@?$__crt_char_traits@D@@SAHABD$$QAPAU_iobuf@@@Z 10063ca0 f i libucrtd:output.obj
 0001:00062cc0       ??$puttc_nolock@AB_WPAU_iobuf@@@?$__crt_char_traits@_W@@SAGAB_W$$QAPAU_iobuf@@@Z 10063cc0 f i libucrtd:output.obj
 0001:00062ce0       ??$read_va_arg@C@__crt_stdio_output@@YACAAPAD@Z 10063ce0 f i libucrtd:output.obj
 0001:00062d00       ??$read_va_arg@E@__crt_stdio_output@@YAEAAPAD@Z 10063d00 f i libucrtd:output.obj
 0001:00062d20       ??$read_va_arg@F@__crt_stdio_output@@YAFAAPAD@Z 10063d20 f i libucrtd:output.obj
 0001:00062d40       ??$read_va_arg@G@__crt_stdio_output@@YAGAAPAD@Z 10063d40 f i libucrtd:output.obj
 0001:00062d60       ??$read_va_arg@H@__crt_stdio_output@@YAHAAPAD@Z 10063d60 f i libucrtd:output.obj
 0001:00062d80       ??$read_va_arg@I@__crt_stdio_output@@YAIAAPAD@Z 10063d80 f i libucrtd:output.obj
 0001:00062da0       ??$read_va_arg@PAD@__crt_stdio_output@@YAPADAAPAD@Z 10063da0 f i libucrtd:output.obj
 0001:00062f40       ??$read_va_arg@PAX@__crt_stdio_output@@YAPAXAAPAD@Z 10063f40 f i libucrtd:output.obj
 0001:00062f60       ??$read_va_arg@U_CRT_DOUBLE@@@__crt_stdio_output@@YA?AU_CRT_DOUBLE@@AAPAD@Z 10063f60 f i libucrtd:output.obj
 0001:00062f80       ??$read_va_arg@_J@__crt_stdio_output@@YA_JAAPAD@Z 10063f80 f i libucrtd:output.obj
 0001:00062fa0       ??$read_va_arg@_K@__crt_stdio_output@@YA_KAAPAD@Z 10063fa0 f i libucrtd:output.obj
 0001:00062fc0       ??$read_va_arg@_W@__crt_stdio_output@@YA_WAAPAD@Z 10063fc0 f i libucrtd:output.obj
 0001:00062fe0       ??$scratch_count@D@formatting_buffer@__crt_stdio_output@@QBEIXZ 10063fe0 f i libucrtd:output.obj
 0001:00063000       ??$scratch_data@D@formatting_buffer@__crt_stdio_output@@QAEPADXZ 10064000 f i libucrtd:output.obj
 0001:00063050       ??$tcstol@AAPBDPAPADH@?$__crt_char_traits@D@@SAJAAPBD$$QAPAPAD$$QAH@Z 10064050 f i libucrtd:output.obj
 0001:00063080       ??$tcstol@AAPB_WPAPA_WH@?$__crt_char_traits@_W@@SAJAAPB_W$$QAPAPA_W$$QAH@Z 10064080 f i libucrtd:output.obj
 0001:000630b0       ??$tcstol@PBDPAPADH@?$__crt_char_traits@D@@SAJ$$QAPBD$$QAPAPAD$$QAH@Z 100640b0 f i libucrtd:output.obj
 0001:000630e0       ??$tcstol@PB_WPAPA_WH@?$__crt_char_traits@_W@@SAJ$$QAPB_W$$QAPAPA_W$$QAH@Z 100640e0 f i libucrtd:output.obj
 0001:00063110       ??$type_case_integer_parse_into_buffer@I@?$output_processor@DV?$stream_output_adapter@D@__crt_stdio_output@@V?$format_validation_base@DV?$stream_output_adapter@D@__crt_stdio_output@@@2@@__crt_stdio_output@@AAEXII_N@Z 10064110 f i libucrtd:output.obj
 0001:000631e0       ??$type_case_integer_parse_into_buffer@I@?$output_processor@DV?$stream_output_adapter@D@__crt_stdio_output@@V?$positional_parameter_base@DV?$stream_output_adapter@D@__crt_stdio_output@@@2@@__crt_stdio_output@@AAEXII_N@Z 100641e0 f i libucrtd:output.obj
 0001:000632b0       ??$type_case_integer_parse_into_buffer@I@?$output_processor@DV?$stream_output_adapter@D@__crt_stdio_output@@V?$standard_base@DV?$stream_output_adapter@D@__crt_stdio_output@@@2@@__crt_stdio_output@@AAEXII_N@Z 100642b0 f i libucrtd:output.obj
 0001:00063380       ??$type_case_integer_parse_into_buffer@I@?$output_processor@DV?$string_output_adapter@D@__crt_stdio_output@@V?$format_validation_base@DV?$string_output_adapter@D@__crt_stdio_output@@@2@@__crt_stdio_output@@AAEXII_N@Z 10064380 f i libucrtd:output.obj
 0001:00063450       ??$type_case_integer_parse_into_buffer@I@?$output_processor@DV?$string_output_adapter@D@__crt_stdio_output@@V?$positional_parameter_base@DV?$string_output_adapter@D@__crt_stdio_output@@@2@@__crt_stdio_output@@AAEXII_N@Z 10064450 f i libucrtd:output.obj
 0001:00063520       ??$type_case_integer_parse_into_buffer@I@?$output_processor@DV?$string_output_adapter@D@__crt_stdio_output@@V?$standard_base@DV?$string_output_adapter@D@__crt_stdio_output@@@2@@__crt_stdio_output@@AAEXII_N@Z 10064520 f i libucrtd:output.obj
 0001:000635f0       ??$type_case_integer_parse_into_buffer@I@?$output_processor@_WV?$stream_output_adapter@_W@__crt_stdio_output@@V?$format_validation_base@_WV?$stream_output_adapter@_W@__crt_stdio_output@@@2@@__crt_stdio_output@@AAEXII_N@Z 100645f0 f i libucrtd:output.obj
 0001:000636d0       ??$type_case_integer_parse_into_buffer@I@?$output_processor@_WV?$stream_output_adapter@_W@__crt_stdio_output@@V?$positional_parameter_base@_WV?$stream_output_adapter@_W@__crt_stdio_output@@@2@@__crt_stdio_output@@AAEXII_N@Z 100646d0 f i libucrtd:output.obj
 0001:000637b0       ??$type_case_integer_parse_into_buffer@I@?$output_processor@_WV?$stream_output_adapter@_W@__crt_stdio_output@@V?$standard_base@_WV?$stream_output_adapter@_W@__crt_stdio_output@@@2@@__crt_stdio_output@@AAEXII_N@Z 100647b0 f i libucrtd:output.obj
 0001:00063890       ??$type_case_integer_parse_into_buffer@I@?$output_processor@_WV?$string_output_adapter@_W@__crt_stdio_output@@V?$format_validation_base@_WV?$string_output_adapter@_W@__crt_stdio_output@@@2@@__crt_stdio_output@@AAEXII_N@Z 10064890 f i libucrtd:output.obj
 0001:00063970       ??$type_case_integer_parse_into_buffer@I@?$output_processor@_WV?$string_output_adapter@_W@__crt_stdio_output@@V?$positional_parameter_base@_WV?$string_output_adapter@_W@__crt_stdio_output@@@2@@__crt_stdio_output@@AAEXII_N@Z 10064970 f i libucrtd:output.obj
 0001:00063a50       ??$type_case_integer_parse_into_buffer@I@?$output_processor@_WV?$string_output_adapter@_W@__crt_stdio_output@@V?$standard_base@_WV?$string_output_adapter@_W@__crt_stdio_output@@@2@@__crt_stdio_output@@AAEXII_N@Z 10064a50 f i libucrtd:output.obj
 0001:00063b30       ??$type_case_integer_parse_into_buffer@_K@?$output_processor@DV?$stream_output_adapter@D@__crt_stdio_output@@V?$format_validation_base@DV?$stream_output_adapter@D@__crt_stdio_output@@@2@@__crt_stdio_output@@AAEX_KI_N@Z 10064b30 f i libucrtd:output.obj
 0001:00063c20       ??$type_case_integer_parse_into_buffer@_K@?$output_processor@DV?$stream_output_adapter@D@__crt_stdio_output@@V?$positional_parameter_base@DV?$stream_output_adapter@D@__crt_stdio_output@@@2@@__crt_stdio_output@@AAEX_KI_N@Z 10064c20 f i libucrtd:output.obj
 0001:00063d10       ??$type_case_integer_parse_into_buffer@_K@?$output_processor@DV?$stream_output_adapter@D@__crt_stdio_output@@V?$standard_base@DV?$stream_output_adapter@D@__crt_stdio_output@@@2@@__crt_stdio_output@@AAEX_KI_N@Z 10064d10 f i libucrtd:output.obj
 0001:00063e00       ??$type_case_integer_parse_into_buffer@_K@?$output_processor@DV?$string_output_adapter@D@__crt_stdio_output@@V?$format_validation_base@DV?$string_output_adapter@D@__crt_stdio_output@@@2@@__crt_stdio_output@@AAEX_KI_N@Z 10064e00 f i libucrtd:output.obj
 0001:00063ef0       ??$type_case_integer_parse_into_buffer@_K@?$output_processor@DV?$string_output_adapter@D@__crt_stdio_output@@V?$positional_parameter_base@DV?$string_output_adapter@D@__crt_stdio_output@@@2@@__crt_stdio_output@@AAEX_KI_N@Z 10064ef0 f i libucrtd:output.obj
 0001:00063fe0       ??$type_case_integer_parse_into_buffer@_K@?$output_processor@DV?$string_output_adapter@D@__crt_stdio_output@@V?$standard_base@DV?$string_output_adapter@D@__crt_stdio_output@@@2@@__crt_stdio_output@@AAEX_KI_N@Z 10064fe0 f i libucrtd:output.obj
 0001:000640d0       ??$type_case_integer_parse_into_buffer@_K@?$output_processor@_WV?$stream_output_adapter@_W@__crt_stdio_output@@V?$format_validation_base@_WV?$stream_output_adapter@_W@__crt_stdio_output@@@2@@__crt_stdio_output@@AAEX_KI_N@Z 100650d0 f i libucrtd:output.obj
 0001:000641d0       ??$type_case_integer_parse_into_buffer@_K@?$output_processor@_WV?$stream_output_adapter@_W@__crt_stdio_output@@V?$positional_parameter_base@_WV?$stream_output_adapter@_W@__crt_stdio_output@@@2@@__crt_stdio_output@@AAEX_KI_N@Z 100651d0 f i libucrtd:output.obj
 0001:000642d0       ??$type_case_integer_parse_into_buffer@_K@?$output_processor@_WV?$stream_output_adapter@_W@__crt_stdio_output@@V?$standard_base@_WV?$stream_output_adapter@_W@__crt_stdio_output@@@2@@__crt_stdio_output@@AAEX_KI_N@Z 100652d0 f i libucrtd:output.obj
 0001:000643d0       ??$type_case_integer_parse_into_buffer@_K@?$output_processor@_WV?$string_output_adapter@_W@__crt_stdio_output@@V?$format_validation_base@_WV?$string_output_adapter@_W@__crt_stdio_output@@@2@@__crt_stdio_output@@AAEX_KI_N@Z 100653d0 f i libucrtd:output.obj
 0001:000644d0       ??$type_case_integer_parse_into_buffer@_K@?$output_processor@_WV?$string_output_adapter@_W@__crt_stdio_output@@V?$positional_parameter_base@_WV?$string_output_adapter@_W@__crt_stdio_output@@@2@@__crt_stdio_output@@AAEX_KI_N@Z 100654d0 f i libucrtd:output.obj
 0001:000645d0       ??$type_case_integer_parse_into_buffer@_K@?$output_processor@_WV?$string_output_adapter@_W@__crt_stdio_output@@V?$standard_base@_WV?$string_output_adapter@_W@__crt_stdio_output@@@2@@__crt_stdio_output@@AAEX_KI_N@Z 100655d0 f i libucrtd:output.obj
 0001:000646d0       ??$write_multiple_characters@V?$stream_output_adapter@D@__crt_stdio_output@@D@__crt_stdio_output@@YAXABV?$stream_output_adapter@D@0@DHQAH@Z 100656d0 f i libucrtd:output.obj
 0001:00064720       ??$write_multiple_characters@V?$stream_output_adapter@_W@__crt_stdio_output@@D@__crt_stdio_output@@YAXABV?$stream_output_adapter@_W@0@DHQAH@Z 10065720 f i libucrtd:output.obj
 0001:00064770       ??$write_multiple_characters@V?$string_output_adapter@D@__crt_stdio_output@@D@__crt_stdio_output@@YAXABV?$string_output_adapter@D@0@DHQAH@Z 10065770 f i libucrtd:output.obj
 0001:000647c0       ??$write_multiple_characters@V?$string_output_adapter@_W@__crt_stdio_output@@D@__crt_stdio_output@@YAXABV?$string_output_adapter@_W@0@DHQAH@Z 100657c0 f i libucrtd:output.obj
 0001:00064b10       ??0?$common_data@D@__crt_stdio_output@@IAE@XZ 10065b10 f i libucrtd:output.obj
 0001:00064bc0       ??0?$common_data@_W@__crt_stdio_output@@IAE@XZ 10065bc0 f i libucrtd:output.obj
 0001:00064c70       ??0?$output_adapter_data@DV?$stream_output_adapter@D@__crt_stdio_output@@@__crt_stdio_output@@IAE@ABV?$stream_output_adapter@D@1@_KQBDQAU__crt_locale_pointers@@QAD@Z 10065c70 f i libucrtd:output.obj
 0001:00064cd0       ??0?$output_adapter_data@DV?$string_output_adapter@D@__crt_stdio_output@@@__crt_stdio_output@@IAE@ABV?$string_output_adapter@D@1@_KQBDQAU__crt_locale_pointers@@QAD@Z 10065cd0 f i libucrtd:output.obj
 0001:00064d30       ??0?$output_adapter_data@_WV?$stream_output_adapter@_W@__crt_stdio_output@@@__crt_stdio_output@@IAE@ABV?$stream_output_adapter@_W@1@_KQB_WQAU__crt_locale_pointers@@QAD@Z 10065d30 f i libucrtd:output.obj
 0001:00064d90       ??0?$output_adapter_data@_WV?$string_output_adapter@_W@__crt_stdio_output@@@__crt_stdio_output@@IAE@ABV?$string_output_adapter@_W@1@_KQB_WQAU__crt_locale_pointers@@QAD@Z 10065d90 f i libucrtd:output.obj
 0001:00064df0       ??0?$output_processor@DV?$stream_output_adapter@D@__crt_stdio_output@@V?$format_validation_base@DV?$stream_output_adapter@D@__crt_stdio_output@@@2@@__crt_stdio_output@@QAE@ABV?$stream_output_adapter@D@1@_KQBDQAU__crt_locale_pointers@@QAD@Z 10065df0 f i libucrtd:output.obj
 0001:00064e20       ??0?$output_processor@DV?$stream_output_adapter@D@__crt_stdio_output@@V?$positional_parameter_base@DV?$stream_output_adapter@D@__crt_stdio_output@@@2@@__crt_stdio_output@@QAE@ABV?$stream_output_adapter@D@1@_KQBDQAU__crt_locale_pointers@@QAD@Z 10065e20 f i libucrtd:output.obj
 0001:00064e50       ??0?$output_processor@DV?$stream_output_adapter@D@__crt_stdio_output@@V?$standard_base@DV?$stream_output_adapter@D@__crt_stdio_output@@@2@@__crt_stdio_output@@QAE@ABV?$stream_output_adapter@D@1@_KQBDQAU__crt_locale_pointers@@QAD@Z 10065e50 f i libucrtd:output.obj
 0001:00064e80       ??0?$output_processor@DV?$string_output_adapter@D@__crt_stdio_output@@V?$format_validation_base@DV?$string_output_adapter@D@__crt_stdio_output@@@2@@__crt_stdio_output@@QAE@ABV?$string_output_adapter@D@1@_KQBDQAU__crt_locale_pointers@@QAD@Z 10065e80 f i libucrtd:output.obj
 0001:00064eb0       ??0?$output_processor@DV?$string_output_adapter@D@__crt_stdio_output@@V?$positional_parameter_base@DV?$string_output_adapter@D@__crt_stdio_output@@@2@@__crt_stdio_output@@QAE@ABV?$string_output_adapter@D@1@_KQBDQAU__crt_locale_pointers@@QAD@Z 10065eb0 f i libucrtd:output.obj
 0001:00064ee0       ??0?$output_processor@DV?$string_output_adapter@D@__crt_stdio_output@@V?$standard_base@DV?$string_output_adapter@D@__crt_stdio_output@@@2@@__crt_stdio_output@@QAE@ABV?$string_output_adapter@D@1@_KQBDQAU__crt_locale_pointers@@QAD@Z 10065ee0 f i libucrtd:output.obj
 0001:00064f10       ??0?$output_processor@_WV?$stream_output_adapter@_W@__crt_stdio_output@@V?$format_validation_base@_WV?$stream_output_adapter@_W@__crt_stdio_output@@@2@@__crt_stdio_output@@QAE@ABV?$stream_output_adapter@_W@1@_KQB_WQAU__crt_locale_pointers@@QAD@Z 10065f10 f i libucrtd:output.obj
 0001:00064f40       ??0?$output_processor@_WV?$stream_output_adapter@_W@__crt_stdio_output@@V?$positional_parameter_base@_WV?$stream_output_adapter@_W@__crt_stdio_output@@@2@@__crt_stdio_output@@QAE@ABV?$stream_output_adapter@_W@1@_KQB_WQAU__crt_locale_pointers@@QAD@Z 10065f40 f i libucrtd:output.obj
 0001:00064f70       ??0?$output_processor@_WV?$stream_output_adapter@_W@__crt_stdio_output@@V?$standard_base@_WV?$stream_output_adapter@_W@__crt_stdio_output@@@2@@__crt_stdio_output@@QAE@ABV?$stream_output_adapter@_W@1@_KQB_WQAU__crt_locale_pointers@@QAD@Z 10065f70 f i libucrtd:output.obj
 0001:00064fa0       ??0?$output_processor@_WV?$string_output_adapter@_W@__crt_stdio_output@@V?$format_validation_base@_WV?$string_output_adapter@_W@__crt_stdio_output@@@2@@__crt_stdio_output@@QAE@ABV?$string_output_adapter@_W@1@_KQB_WQAU__crt_locale_pointers@@QAD@Z 10065fa0 f i libucrtd:output.obj
 0001:00064fd0       ??0?$output_processor@_WV?$string_output_adapter@_W@__crt_stdio_output@@V?$positional_parameter_base@_WV?$string_output_adapter@_W@__crt_stdio_output@@@2@@__crt_stdio_output@@QAE@ABV?$string_output_adapter@_W@1@_KQB_WQAU__crt_locale_pointers@@QAD@Z 10065fd0 f i libucrtd:output.obj
 0001:00065000       ??0?$output_processor@_WV?$string_output_adapter@_W@__crt_stdio_output@@V?$standard_base@_WV?$string_output_adapter@_W@__crt_stdio_output@@@2@@__crt_stdio_output@@QAE@ABV?$string_output_adapter@_W@1@_KQB_WQAU__crt_locale_pointers@@QAD@Z 10066000 f i libucrtd:output.obj
 0001:00065030       ??0?$stream_output_adapter@D@__crt_stdio_output@@QAE@QAU_iobuf@@@Z 10066030 f i libucrtd:output.obj
 0001:00065050       ??0?$stream_output_adapter@_W@__crt_stdio_output@@QAE@QAU_iobuf@@@Z 10066050 f i libucrtd:output.obj
 0001:00065070       ??0?$string_output_adapter@D@__crt_stdio_output@@QAE@QAU?$string_output_adapter_context@D@1@@Z 10066070 f i libucrtd:output.obj
 0001:00065090       ??0?$string_output_adapter@_W@__crt_stdio_output@@QAE@QAU?$string_output_adapter_context@_W@1@@Z 10066090 f i libucrtd:output.obj
 0001:000650b0       ??0__acrt_stdio_temporary_buffering_guard@@QAE@QAU_iobuf@@@Z 100660b0 f i libucrtd:output.obj
 0001:000650e0       ??0__crt_deferred_errno_cache@@QAE@XZ 100660e0 f i libucrtd:output.obj
 0001:00065100       ??0__crt_errno_guard@@QAE@QAH@Z 10066100 f i libucrtd:output.obj
 0001:00065130       ??0formatting_buffer@__crt_stdio_output@@QAE@XZ 10066130 f i libucrtd:output.obj
 0001:00065160       ??1?$common_data@D@__crt_stdio_output@@QAE@XZ 10066160 f i libucrtd:output.obj
 0001:00065180       ??1?$common_data@_W@__crt_stdio_output@@QAE@XZ 10066180 f i libucrtd:output.obj
 0001:000651a0       ??1?$format_validation_base@DV?$stream_output_adapter@D@__crt_stdio_output@@@__crt_stdio_output@@QAE@XZ 100661a0 f i libucrtd:output.obj
 0001:000651c0       ??1?$format_validation_base@DV?$string_output_adapter@D@__crt_stdio_output@@@__crt_stdio_output@@QAE@XZ 100661c0 f i libucrtd:output.obj
 0001:000651e0       ??1?$format_validation_base@_WV?$stream_output_adapter@_W@__crt_stdio_output@@@__crt_stdio_output@@QAE@XZ 100661e0 f i libucrtd:output.obj
 0001:00065200       ??1?$format_validation_base@_WV?$string_output_adapter@_W@__crt_stdio_output@@@__crt_stdio_output@@QAE@XZ 10066200 f i libucrtd:output.obj
 0001:00065220       ??1?$output_adapter_data@DV?$stream_output_adapter@D@__crt_stdio_output@@@__crt_stdio_output@@QAE@XZ 10066220 f i libucrtd:output.obj
 0001:00065240       ??1?$output_adapter_data@DV?$string_output_adapter@D@__crt_stdio_output@@@__crt_stdio_output@@QAE@XZ 10066240 f i libucrtd:output.obj
 0001:00065260       ??1?$output_adapter_data@_WV?$stream_output_adapter@_W@__crt_stdio_output@@@__crt_stdio_output@@QAE@XZ 10066260 f i libucrtd:output.obj
 0001:00065280       ??1?$output_adapter_data@_WV?$string_output_adapter@_W@__crt_stdio_output@@@__crt_stdio_output@@QAE@XZ 10066280 f i libucrtd:output.obj
 0001:000652a0       ??1?$output_processor@DV?$stream_output_adapter@D@__crt_stdio_output@@V?$format_validation_base@DV?$stream_output_adapter@D@__crt_stdio_output@@@2@@__crt_stdio_output@@QAE@XZ 100662a0 f i libucrtd:output.obj
 0001:000652c0       ??1?$output_processor@DV?$stream_output_adapter@D@__crt_stdio_output@@V?$positional_parameter_base@DV?$stream_output_adapter@D@__crt_stdio_output@@@2@@__crt_stdio_output@@QAE@XZ 100662c0 f i libucrtd:output.obj
 0001:000652e0       ??1?$output_processor@DV?$stream_output_adapter@D@__crt_stdio_output@@V?$standard_base@DV?$stream_output_adapter@D@__crt_stdio_output@@@2@@__crt_stdio_output@@QAE@XZ 100662e0 f i libucrtd:output.obj
 0001:00065300       ??1?$output_processor@DV?$string_output_adapter@D@__crt_stdio_output@@V?$format_validation_base@DV?$string_output_adapter@D@__crt_stdio_output@@@2@@__crt_stdio_output@@QAE@XZ 10066300 f i libucrtd:output.obj
 0001:00065320       ??1?$output_processor@DV?$string_output_adapter@D@__crt_stdio_output@@V?$positional_parameter_base@DV?$string_output_adapter@D@__crt_stdio_output@@@2@@__crt_stdio_output@@QAE@XZ 10066320 f i libucrtd:output.obj
 0001:00065340       ??1?$output_processor@DV?$string_output_adapter@D@__crt_stdio_output@@V?$standard_base@DV?$string_output_adapter@D@__crt_stdio_output@@@2@@__crt_stdio_output@@QAE@XZ 10066340 f i libucrtd:output.obj
 0001:00065360       ??1?$output_processor@_WV?$stream_output_adapter@_W@__crt_stdio_output@@V?$format_validation_base@_WV?$stream_output_adapter@_W@__crt_stdio_output@@@2@@__crt_stdio_output@@QAE@XZ 10066360 f i libucrtd:output.obj
 0001:00065380       ??1?$output_processor@_WV?$stream_output_adapter@_W@__crt_stdio_output@@V?$positional_parameter_base@_WV?$stream_output_adapter@_W@__crt_stdio_output@@@2@@__crt_stdio_output@@QAE@XZ 10066380 f i libucrtd:output.obj
 0001:000653a0       ??1?$output_processor@_WV?$stream_output_adapter@_W@__crt_stdio_output@@V?$standard_base@_WV?$stream_output_adapter@_W@__crt_stdio_output@@@2@@__crt_stdio_output@@QAE@XZ 100663a0 f i libucrtd:output.obj
 0001:000653c0       ??1?$output_processor@_WV?$string_output_adapter@_W@__crt_stdio_output@@V?$format_validation_base@_WV?$string_output_adapter@_W@__crt_stdio_output@@@2@@__crt_stdio_output@@QAE@XZ 100663c0 f i libucrtd:output.obj
 0001:000653e0       ??1?$output_processor@_WV?$string_output_adapter@_W@__crt_stdio_output@@V?$positional_parameter_base@_WV?$string_output_adapter@_W@__crt_stdio_output@@@2@@__crt_stdio_output@@QAE@XZ 100663e0 f i libucrtd:output.obj
 0001:00065400       ??1?$output_processor@_WV?$string_output_adapter@_W@__crt_stdio_output@@V?$standard_base@_WV?$string_output_adapter@_W@__crt_stdio_output@@@2@@__crt_stdio_output@@QAE@XZ 10066400 f i libucrtd:output.obj
 0001:00065420       ??1?$positional_parameter_base@DV?$stream_output_adapter@D@__crt_stdio_output@@@__crt_stdio_output@@QAE@XZ 10066420 f i libucrtd:output.obj
 0001:00065440       ??1?$positional_parameter_base@DV?$string_output_adapter@D@__crt_stdio_output@@@__crt_stdio_output@@QAE@XZ 10066440 f i libucrtd:output.obj
 0001:00065460       ??1?$positional_parameter_base@_WV?$stream_output_adapter@_W@__crt_stdio_output@@@__crt_stdio_output@@QAE@XZ 10066460 f i libucrtd:output.obj
 0001:00065480       ??1?$positional_parameter_base@_WV?$string_output_adapter@_W@__crt_stdio_output@@@__crt_stdio_output@@QAE@XZ 10066480 f i libucrtd:output.obj
 0001:000654a0       ??1?$standard_base@DV?$stream_output_adapter@D@__crt_stdio_output@@@__crt_stdio_output@@QAE@XZ 100664a0 f i libucrtd:output.obj
 0001:000654c0       ??1?$standard_base@DV?$string_output_adapter@D@__crt_stdio_output@@@__crt_stdio_output@@QAE@XZ 100664c0 f i libucrtd:output.obj
 0001:000654e0       ??1?$standard_base@_WV?$stream_output_adapter@_W@__crt_stdio_output@@@__crt_stdio_output@@QAE@XZ 100664e0 f i libucrtd:output.obj
 0001:00065500       ??1?$standard_base@_WV?$string_output_adapter@_W@__crt_stdio_output@@@__crt_stdio_output@@QAE@XZ 10066500 f i libucrtd:output.obj
 0001:00065520       ??1__acrt_stdio_temporary_buffering_guard@@QAE@XZ 10066520 f i libucrtd:output.obj
 0001:00065550       ??1__crt_errno_guard@@QAE@XZ 10066550 f i libucrtd:output.obj
 0001:00065580       ??1formatting_buffer@__crt_stdio_output@@QAE@XZ 10066580 f i libucrtd:output.obj
 0001:000655a0       ??4?$__crt_unique_heap_ptr@DU__crt_internal_free_policy@@@@QAEAAV0@$$QAV0@@Z 100665a0 f i libucrtd:output.obj
 0001:000655d0       ??C__crt_stdio_stream@@QBEPAU__crt_stdio_stream_data@@XZ 100665d0 f i libucrtd:output.obj
 0001:00065d10       ?adjust_hexit@?$output_processor@DV?$stream_output_adapter@D@__crt_stdio_output@@V?$format_validation_base@DV?$stream_output_adapter@D@__crt_stdio_output@@@2@@__crt_stdio_output@@CADH_N@Z 10066d10 f i libucrtd:output.obj
 0001:00065d50       ?adjust_hexit@?$output_processor@DV?$stream_output_adapter@D@__crt_stdio_output@@V?$positional_parameter_base@DV?$stream_output_adapter@D@__crt_stdio_output@@@2@@__crt_stdio_output@@CADH_N@Z 10066d50 f i libucrtd:output.obj
 0001:00065d90       ?adjust_hexit@?$output_processor@DV?$stream_output_adapter@D@__crt_stdio_output@@V?$standard_base@DV?$stream_output_adapter@D@__crt_stdio_output@@@2@@__crt_stdio_output@@CADH_N@Z 10066d90 f i libucrtd:output.obj
 0001:00065dd0       ?adjust_hexit@?$output_processor@DV?$string_output_adapter@D@__crt_stdio_output@@V?$format_validation_base@DV?$string_output_adapter@D@__crt_stdio_output@@@2@@__crt_stdio_output@@CADH_N@Z 10066dd0 f i libucrtd:output.obj
 0001:00065e10       ?adjust_hexit@?$output_processor@DV?$string_output_adapter@D@__crt_stdio_output@@V?$positional_parameter_base@DV?$string_output_adapter@D@__crt_stdio_output@@@2@@__crt_stdio_output@@CADH_N@Z 10066e10 f i libucrtd:output.obj
 0001:00065e50       ?adjust_hexit@?$output_processor@DV?$string_output_adapter@D@__crt_stdio_output@@V?$standard_base@DV?$string_output_adapter@D@__crt_stdio_output@@@2@@__crt_stdio_output@@CADH_N@Z 10066e50 f i libucrtd:output.obj
 0001:00065e90       ?adjust_hexit@?$output_processor@_WV?$stream_output_adapter@_W@__crt_stdio_output@@V?$format_validation_base@_WV?$stream_output_adapter@_W@__crt_stdio_output@@@2@@__crt_stdio_output@@CADH_N@Z 10066e90 f i libucrtd:output.obj
 0001:00065ed0       ?adjust_hexit@?$output_processor@_WV?$stream_output_adapter@_W@__crt_stdio_output@@V?$positional_parameter_base@_WV?$stream_output_adapter@_W@__crt_stdio_output@@@2@@__crt_stdio_output@@CADH_N@Z 10066ed0 f i libucrtd:output.obj
 0001:00065f10       ?adjust_hexit@?$output_processor@_WV?$stream_output_adapter@_W@__crt_stdio_output@@V?$standard_base@_WV?$stream_output_adapter@_W@__crt_stdio_output@@@2@@__crt_stdio_output@@CADH_N@Z 10066f10 f i libucrtd:output.obj
 0001:00065f50       ?adjust_hexit@?$output_processor@_WV?$string_output_adapter@_W@__crt_stdio_output@@V?$format_validation_base@_WV?$string_output_adapter@_W@__crt_stdio_output@@@2@@__crt_stdio_output@@CADH_N@Z 10066f50 f i libucrtd:output.obj
 0001:00065f90       ?adjust_hexit@?$output_processor@_WV?$string_output_adapter@_W@__crt_stdio_output@@V?$positional_parameter_base@_WV?$string_output_adapter@_W@__crt_stdio_output@@@2@@__crt_stdio_output@@CADH_N@Z 10066f90 f i libucrtd:output.obj
 0001:00065fd0       ?adjust_hexit@?$output_processor@_WV?$string_output_adapter@_W@__crt_stdio_output@@V?$standard_base@_WV?$string_output_adapter@_W@__crt_stdio_output@@@2@@__crt_stdio_output@@CADH_N@Z 10066fd0 f i libucrtd:output.obj
 0001:00066010       ?advance_to_next_pass@?$positional_parameter_base@DV?$stream_output_adapter@D@__crt_stdio_output@@@__crt_stdio_output@@IAE_NXZ 10067010 f i libucrtd:output.obj
 0001:000660b0       ?advance_to_next_pass@?$positional_parameter_base@DV?$string_output_adapter@D@__crt_stdio_output@@@__crt_stdio_output@@IAE_NXZ 100670b0 f i libucrtd:output.obj
 0001:00066150       ?advance_to_next_pass@?$positional_parameter_base@_WV?$stream_output_adapter@_W@__crt_stdio_output@@@__crt_stdio_output@@IAE_NXZ 10067150 f i libucrtd:output.obj
 0001:000661f0       ?advance_to_next_pass@?$positional_parameter_base@_WV?$string_output_adapter@_W@__crt_stdio_output@@@__crt_stdio_output@@IAE_NXZ 100671f0 f i libucrtd:output.obj
 0001:00066290       ?advance_to_next_pass@?$standard_base@DV?$stream_output_adapter@D@__crt_stdio_output@@@__crt_stdio_output@@IAE_NXZ 10067290 f i libucrtd:output.obj
 0001:000662e0       ?advance_to_next_pass@?$standard_base@DV?$string_output_adapter@D@__crt_stdio_output@@@__crt_stdio_output@@IAE_NXZ 100672e0 f i libucrtd:output.obj
 0001:00066330       ?advance_to_next_pass@?$standard_base@_WV?$stream_output_adapter@_W@__crt_stdio_output@@@__crt_stdio_output@@IAE_NXZ 10067330 f i libucrtd:output.obj
 0001:00066380       ?advance_to_next_pass@?$standard_base@_WV?$string_output_adapter@_W@__crt_stdio_output@@@__crt_stdio_output@@IAE_NXZ 10067380 f i libucrtd:output.obj
 0001:000663d0       ?crop_zeroes@__crt_stdio_output@@YAXPADQAU__crt_locale_pointers@@@Z 100673d0 f i libucrtd:output.obj
 0001:000664d0       ?find_next_state@?$output_processor@DV?$stream_output_adapter@D@__crt_stdio_output@@V?$format_validation_base@DV?$stream_output_adapter@D@__crt_stdio_output@@@2@@__crt_stdio_output@@ABE?AW4state@2@DW432@@Z 100674d0 f i libucrtd:output.obj
 0001:00066550       ?find_next_state@?$output_processor@DV?$stream_output_adapter@D@__crt_stdio_output@@V?$positional_parameter_base@DV?$stream_output_adapter@D@__crt_stdio_output@@@2@@__crt_stdio_output@@ABE?AW4state@2@DW432@@Z 10067550 f i libucrtd:output.obj
 0001:000665d0       ?find_next_state@?$output_processor@DV?$stream_output_adapter@D@__crt_stdio_output@@V?$standard_base@DV?$stream_output_adapter@D@__crt_stdio_output@@@2@@__crt_stdio_output@@ABE?AW4state@2@DW432@@Z 100675d0 f i libucrtd:output.obj
 0001:00066650       ?find_next_state@?$output_processor@DV?$string_output_adapter@D@__crt_stdio_output@@V?$format_validation_base@DV?$string_output_adapter@D@__crt_stdio_output@@@2@@__crt_stdio_output@@ABE?AW4state@2@DW432@@Z 10067650 f i libucrtd:output.obj
 0001:000666d0       ?find_next_state@?$output_processor@DV?$string_output_adapter@D@__crt_stdio_output@@V?$positional_parameter_base@DV?$string_output_adapter@D@__crt_stdio_output@@@2@@__crt_stdio_output@@ABE?AW4state@2@DW432@@Z 100676d0 f i libucrtd:output.obj
 0001:00066750       ?find_next_state@?$output_processor@DV?$string_output_adapter@D@__crt_stdio_output@@V?$standard_base@DV?$string_output_adapter@D@__crt_stdio_output@@@2@@__crt_stdio_output@@ABE?AW4state@2@DW432@@Z 10067750 f i libucrtd:output.obj
 0001:000667d0       ?find_next_state@?$output_processor@_WV?$stream_output_adapter@_W@__crt_stdio_output@@V?$format_validation_base@_WV?$stream_output_adapter@_W@__crt_stdio_output@@@2@@__crt_stdio_output@@ABE?AW4state@2@_WW432@@Z 100677d0 f i libucrtd:output.obj
 0001:00066850       ?find_next_state@?$output_processor@_WV?$stream_output_adapter@_W@__crt_stdio_output@@V?$positional_parameter_base@_WV?$stream_output_adapter@_W@__crt_stdio_output@@@2@@__crt_stdio_output@@ABE?AW4state@2@_WW432@@Z 10067850 f i libucrtd:output.obj
 0001:000668d0       ?find_next_state@?$output_processor@_WV?$stream_output_adapter@_W@__crt_stdio_output@@V?$standard_base@_WV?$stream_output_adapter@_W@__crt_stdio_output@@@2@@__crt_stdio_output@@ABE?AW4state@2@_WW432@@Z 100678d0 f i libucrtd:output.obj
 0001:00066950       ?find_next_state@?$output_processor@_WV?$string_output_adapter@_W@__crt_stdio_output@@V?$format_validation_base@_WV?$string_output_adapter@_W@__crt_stdio_output@@@2@@__crt_stdio_output@@ABE?AW4state@2@_WW432@@Z 10067950 f i libucrtd:output.obj
 0001:000669d0       ?find_next_state@?$output_processor@_WV?$string_output_adapter@_W@__crt_stdio_output@@V?$positional_parameter_base@_WV?$string_output_adapter@_W@__crt_stdio_output@@@2@@__crt_stdio_output@@ABE?AW4state@2@_WW432@@Z 100679d0 f i libucrtd:output.obj
 0001:00066a50       ?find_next_state@?$output_processor@_WV?$string_output_adapter@_W@__crt_stdio_output@@V?$standard_base@_WV?$string_output_adapter@_W@__crt_stdio_output@@@2@@__crt_stdio_output@@ABE?AW4state@2@_WW432@@Z 10067a50 f i libucrtd:output.obj
 0001:00066ad0       ?force_decimal_point@__crt_stdio_output@@YAXPADQAU__crt_locale_pointers@@@Z 10067ad0 f i libucrtd:output.obj
 0001:00066ba0       ?get@__crt_deferred_errno_cache@@QAEAAHXZ 10067ba0 f i libucrtd:output.obj
 0001:00066bd0       ?get_parameter_type@?$positional_parameter_base@DV?$stream_output_adapter@D@__crt_stdio_output@@@__crt_stdio_output@@CA?AW4parameter_type@12@F@Z 10067bd0 f i libucrtd:output.obj
 0001:00066be0       ?get_parameter_type@?$positional_parameter_base@DV?$stream_output_adapter@D@__crt_stdio_output@@@__crt_stdio_output@@CA?AW4parameter_type@12@G@Z 10067be0 f i libucrtd:output.obj
 0001:00066bf0       ?get_parameter_type@?$positional_parameter_base@DV?$stream_output_adapter@D@__crt_stdio_output@@@__crt_stdio_output@@CA?AW4parameter_type@12@H@Z 10067bf0 f i libucrtd:output.obj
 0001:00066c00       ?get_parameter_type@?$positional_parameter_base@DV?$stream_output_adapter@D@__crt_stdio_output@@@__crt_stdio_output@@CA?AW4parameter_type@12@I@Z 10067c00 f i libucrtd:output.obj
 0001:00066c10       ?get_parameter_type@?$positional_parameter_base@DV?$stream_output_adapter@D@__crt_stdio_output@@@__crt_stdio_output@@CA?AW4parameter_type@12@U_CRT_DOUBLE@@@Z 10067c10 f i libucrtd:output.obj
 0001:00066c20       ?get_parameter_type@?$positional_parameter_base@DV?$stream_output_adapter@D@__crt_stdio_output@@@__crt_stdio_output@@CA?AW4parameter_type@12@_J@Z 10067c20 f i libucrtd:output.obj
 0001:00066c30       ?get_parameter_type@?$positional_parameter_base@DV?$stream_output_adapter@D@__crt_stdio_output@@@__crt_stdio_output@@CA?AW4parameter_type@12@_K@Z 10067c30 f i libucrtd:output.obj
 0001:00066c40       ?get_parameter_type@?$positional_parameter_base@DV?$stream_output_adapter@D@__crt_stdio_output@@@__crt_stdio_output@@CA?AW4parameter_type@12@_W@Z 10067c40 f i libucrtd:output.obj
 0001:00066c50       ?get_parameter_type@?$positional_parameter_base@DV?$string_output_adapter@D@__crt_stdio_output@@@__crt_stdio_output@@CA?AW4parameter_type@12@F@Z 10067c50 f i libucrtd:output.obj
 0001:00066c60       ?get_parameter_type@?$positional_parameter_base@DV?$string_output_adapter@D@__crt_stdio_output@@@__crt_stdio_output@@CA?AW4parameter_type@12@G@Z 10067c60 f i libucrtd:output.obj
 0001:00066c70       ?get_parameter_type@?$positional_parameter_base@DV?$string_output_adapter@D@__crt_stdio_output@@@__crt_stdio_output@@CA?AW4parameter_type@12@H@Z 10067c70 f i libucrtd:output.obj
 0001:00066c80       ?get_parameter_type@?$positional_parameter_base@DV?$string_output_adapter@D@__crt_stdio_output@@@__crt_stdio_output@@CA?AW4parameter_type@12@I@Z 10067c80 f i libucrtd:output.obj
 0001:00066c90       ?get_parameter_type@?$positional_parameter_base@DV?$string_output_adapter@D@__crt_stdio_output@@@__crt_stdio_output@@CA?AW4parameter_type@12@U_CRT_DOUBLE@@@Z 10067c90 f i libucrtd:output.obj
 0001:00066ca0       ?get_parameter_type@?$positional_parameter_base@DV?$string_output_adapter@D@__crt_stdio_output@@@__crt_stdio_output@@CA?AW4parameter_type@12@_J@Z 10067ca0 f i libucrtd:output.obj
 0001:00066cb0       ?get_parameter_type@?$positional_parameter_base@DV?$string_output_adapter@D@__crt_stdio_output@@@__crt_stdio_output@@CA?AW4parameter_type@12@_K@Z 10067cb0 f i libucrtd:output.obj
 0001:00066cc0       ?get_parameter_type@?$positional_parameter_base@DV?$string_output_adapter@D@__crt_stdio_output@@@__crt_stdio_output@@CA?AW4parameter_type@12@_W@Z 10067cc0 f i libucrtd:output.obj
 0001:00066cd0       ?get_parameter_type@?$positional_parameter_base@_WV?$stream_output_adapter@_W@__crt_stdio_output@@@__crt_stdio_output@@CA?AW4parameter_type@12@F@Z 10067cd0 f i libucrtd:output.obj
 0001:00066ce0       ?get_parameter_type@?$positional_parameter_base@_WV?$stream_output_adapter@_W@__crt_stdio_output@@@__crt_stdio_output@@CA?AW4parameter_type@12@G@Z 10067ce0 f i libucrtd:output.obj
 0001:00066cf0       ?get_parameter_type@?$positional_parameter_base@_WV?$stream_output_adapter@_W@__crt_stdio_output@@@__crt_stdio_output@@CA?AW4parameter_type@12@H@Z 10067cf0 f i libucrtd:output.obj
 0001:00066d00       ?get_parameter_type@?$positional_parameter_base@_WV?$stream_output_adapter@_W@__crt_stdio_output@@@__crt_stdio_output@@CA?AW4parameter_type@12@I@Z 10067d00 f i libucrtd:output.obj
 0001:00066d10       ?get_parameter_type@?$positional_parameter_base@_WV?$stream_output_adapter@_W@__crt_stdio_output@@@__crt_stdio_output@@CA?AW4parameter_type@12@U_CRT_DOUBLE@@@Z 10067d10 f i libucrtd:output.obj
 0001:00066d20       ?get_parameter_type@?$positional_parameter_base@_WV?$stream_output_adapter@_W@__crt_stdio_output@@@__crt_stdio_output@@CA?AW4parameter_type@12@_J@Z 10067d20 f i libucrtd:output.obj
 0001:00066d30       ?get_parameter_type@?$positional_parameter_base@_WV?$stream_output_adapter@_W@__crt_stdio_output@@@__crt_stdio_output@@CA?AW4parameter_type@12@_K@Z 10067d30 f i libucrtd:output.obj
 0001:00066d40       ?get_parameter_type@?$positional_parameter_base@_WV?$stream_output_adapter@_W@__crt_stdio_output@@@__crt_stdio_output@@CA?AW4parameter_type@12@_W@Z 10067d40 f i libucrtd:output.obj
 0001:00066d50       ?get_parameter_type@?$positional_parameter_base@_WV?$string_output_adapter@_W@__crt_stdio_output@@@__crt_stdio_output@@CA?AW4parameter_type@12@F@Z 10067d50 f i libucrtd:output.obj
 0001:00066d60       ?get_parameter_type@?$positional_parameter_base@_WV?$string_output_adapter@_W@__crt_stdio_output@@@__crt_stdio_output@@CA?AW4parameter_type@12@G@Z 10067d60 f i libucrtd:output.obj
 0001:00066d70       ?get_parameter_type@?$positional_parameter_base@_WV?$string_output_adapter@_W@__crt_stdio_output@@@__crt_stdio_output@@CA?AW4parameter_type@12@H@Z 10067d70 f i libucrtd:output.obj
 0001:00066d80       ?get_parameter_type@?$positional_parameter_base@_WV?$string_output_adapter@_W@__crt_stdio_output@@@__crt_stdio_output@@CA?AW4parameter_type@12@I@Z 10067d80 f i libucrtd:output.obj
 0001:00066d90       ?get_parameter_type@?$positional_parameter_base@_WV?$string_output_adapter@_W@__crt_stdio_output@@@__crt_stdio_output@@CA?AW4parameter_type@12@U_CRT_DOUBLE@@@Z 10067d90 f i libucrtd:output.obj
 0001:00066da0       ?get_parameter_type@?$positional_parameter_base@_WV?$string_output_adapter@_W@__crt_stdio_output@@@__crt_stdio_output@@CA?AW4parameter_type@12@_J@Z 10067da0 f i libucrtd:output.obj
 0001:00066db0       ?get_parameter_type@?$positional_parameter_base@_WV?$string_output_adapter@_W@__crt_stdio_output@@@__crt_stdio_output@@CA?AW4parameter_type@12@_K@Z 10067db0 f i libucrtd:output.obj
 0001:00066dc0       ?get_parameter_type@?$positional_parameter_base@_WV?$string_output_adapter@_W@__crt_stdio_output@@@__crt_stdio_output@@CA?AW4parameter_type@12@_W@Z 10067dc0 f i libucrtd:output.obj
 0001:00066dd0       ?has_flag@?$output_processor@DV?$stream_output_adapter@D@__crt_stdio_output@@V?$format_validation_base@DV?$stream_output_adapter@D@__crt_stdio_output@@@2@@__crt_stdio_output@@ABE_NI@Z 10067dd0 f i libucrtd:output.obj
 0001:00066e00       ?has_flag@?$output_processor@DV?$stream_output_adapter@D@__crt_stdio_output@@V?$positional_parameter_base@DV?$stream_output_adapter@D@__crt_stdio_output@@@2@@__crt_stdio_output@@ABE_NI@Z 10067e00 f i libucrtd:output.obj
 0001:00066e30       ?has_flag@?$output_processor@DV?$stream_output_adapter@D@__crt_stdio_output@@V?$standard_base@DV?$stream_output_adapter@D@__crt_stdio_output@@@2@@__crt_stdio_output@@ABE_NI@Z 10067e30 f i libucrtd:output.obj
 0001:00066e60       ?has_flag@?$output_processor@DV?$string_output_adapter@D@__crt_stdio_output@@V?$format_validation_base@DV?$string_output_adapter@D@__crt_stdio_output@@@2@@__crt_stdio_output@@ABE_NI@Z 10067e60 f i libucrtd:output.obj
 0001:00066e90       ?has_flag@?$output_processor@DV?$string_output_adapter@D@__crt_stdio_output@@V?$positional_parameter_base@DV?$string_output_adapter@D@__crt_stdio_output@@@2@@__crt_stdio_output@@ABE_NI@Z 10067e90 f i libucrtd:output.obj
 0001:00066ec0       ?has_flag@?$output_processor@DV?$string_output_adapter@D@__crt_stdio_output@@V?$standard_base@DV?$string_output_adapter@D@__crt_stdio_output@@@2@@__crt_stdio_output@@ABE_NI@Z 10067ec0 f i libucrtd:output.obj
 0001:00066ef0       ?has_flag@?$output_processor@_WV?$stream_output_adapter@_W@__crt_stdio_output@@V?$format_validation_base@_WV?$stream_output_adapter@_W@__crt_stdio_output@@@2@@__crt_stdio_output@@ABE_NI@Z 10067ef0 f i libucrtd:output.obj
 0001:00066f20       ?has_flag@?$output_processor@_WV?$stream_output_adapter@_W@__crt_stdio_output@@V?$positional_parameter_base@_WV?$stream_output_adapter@_W@__crt_stdio_output@@@2@@__crt_stdio_output@@ABE_NI@Z 10067f20 f i libucrtd:output.obj
 0001:00066f50       ?has_flag@?$output_processor@_WV?$stream_output_adapter@_W@__crt_stdio_output@@V?$standard_base@_WV?$stream_output_adapter@_W@__crt_stdio_output@@@2@@__crt_stdio_output@@ABE_NI@Z 10067f50 f i libucrtd:output.obj
 0001:00066f80       ?has_flag@?$output_processor@_WV?$string_output_adapter@_W@__crt_stdio_output@@V?$format_validation_base@_WV?$string_output_adapter@_W@__crt_stdio_output@@@2@@__crt_stdio_output@@ABE_NI@Z 10067f80 f i libucrtd:output.obj
 0001:00066fb0       ?has_flag@?$output_processor@_WV?$string_output_adapter@_W@__crt_stdio_output@@V?$positional_parameter_base@_WV?$string_output_adapter@_W@__crt_stdio_output@@@2@@__crt_stdio_output@@ABE_NI@Z 10067fb0 f i libucrtd:output.obj
 0001:00066fe0       ?has_flag@?$output_processor@_WV?$string_output_adapter@_W@__crt_stdio_output@@V?$standard_base@_WV?$string_output_adapter@_W@__crt_stdio_output@@@2@@__crt_stdio_output@@ABE_NI@Z 10067fe0 f i libucrtd:output.obj
 0001:00067010       ?is_positional_parameter_reappearance_consistent@?$positional_parameter_base@DV?$stream_output_adapter@D@__crt_stdio_output@@@__crt_stdio_output@@AAE_NABUparameter_data@12@W4parameter_type@12@DW4length_modifier@2@@Z 10068010 f i libucrtd:output.obj
 0001:00067240       ?is_positional_parameter_reappearance_consistent@?$positional_parameter_base@DV?$string_output_adapter@D@__crt_stdio_output@@@__crt_stdio_output@@AAE_NABUparameter_data@12@W4parameter_type@12@DW4length_modifier@2@@Z 10068240 f i libucrtd:output.obj
 0001:00067470       ?is_positional_parameter_reappearance_consistent@?$positional_parameter_base@_WV?$stream_output_adapter@_W@__crt_stdio_output@@@__crt_stdio_output@@AAE_NABUparameter_data@12@W4parameter_type@12@_WW4length_modifier@2@@Z 10068470 f i libucrtd:output.obj
 0001:000676a0       ?is_positional_parameter_reappearance_consistent@?$positional_parameter_base@_WV?$string_output_adapter@_W@__crt_stdio_output@@@__crt_stdio_output@@AAE_NABUparameter_data@12@W4parameter_type@12@_WW4length_modifier@2@@Z 100686a0 f i libucrtd:output.obj
 0001:000678d0       ?is_string_backed@__crt_stdio_stream@@QBE_NXZ 100688d0 f i libucrtd:output.obj
 0001:00067910       ?narrow_null_string@?$output_processor@DV?$stream_output_adapter@D@__crt_stdio_output@@V?$format_validation_base@DV?$stream_output_adapter@D@__crt_stdio_output@@@2@@__crt_stdio_output@@CAPADXZ 10068910 f i libucrtd:output.obj
 0001:00067920       ?narrow_null_string@?$output_processor@DV?$stream_output_adapter@D@__crt_stdio_output@@V?$positional_parameter_base@DV?$stream_output_adapter@D@__crt_stdio_output@@@2@@__crt_stdio_output@@CAPADXZ 10068920 f i libucrtd:output.obj
 0001:00067930       ?narrow_null_string@?$output_processor@DV?$stream_output_adapter@D@__crt_stdio_output@@V?$standard_base@DV?$stream_output_adapter@D@__crt_stdio_output@@@2@@__crt_stdio_output@@CAPADXZ 10068930 f i libucrtd:output.obj
 0001:00067940       ?narrow_null_string@?$output_processor@DV?$string_output_adapter@D@__crt_stdio_output@@V?$format_validation_base@DV?$string_output_adapter@D@__crt_stdio_output@@@2@@__crt_stdio_output@@CAPADXZ 10068940 f i libucrtd:output.obj
 0001:00067950       ?narrow_null_string@?$output_processor@DV?$string_output_adapter@D@__crt_stdio_output@@V?$positional_parameter_base@DV?$string_output_adapter@D@__crt_stdio_output@@@2@@__crt_stdio_output@@CAPADXZ 10068950 f i libucrtd:output.obj
 0001:00067960       ?narrow_null_string@?$output_processor@DV?$string_output_adapter@D@__crt_stdio_output@@V?$standard_base@DV?$string_output_adapter@D@__crt_stdio_output@@@2@@__crt_stdio_output@@CAPADXZ 10068960 f i libucrtd:output.obj
 0001:00067970       ?narrow_null_string@?$output_processor@_WV?$stream_output_adapter@_W@__crt_stdio_output@@V?$format_validation_base@_WV?$stream_output_adapter@_W@__crt_stdio_output@@@2@@__crt_stdio_output@@CAPADXZ 10068970 f i libucrtd:output.obj
 0001:00067980       ?narrow_null_string@?$output_processor@_WV?$stream_output_adapter@_W@__crt_stdio_output@@V?$positional_parameter_base@_WV?$stream_output_adapter@_W@__crt_stdio_output@@@2@@__crt_stdio_output@@CAPADXZ 10068980 f i libucrtd:output.obj
 0001:00067990       ?narrow_null_string@?$output_processor@_WV?$stream_output_adapter@_W@__crt_stdio_output@@V?$standard_base@_WV?$stream_output_adapter@_W@__crt_stdio_output@@@2@@__crt_stdio_output@@CAPADXZ 10068990 f i libucrtd:output.obj
 0001:000679a0       ?narrow_null_string@?$output_processor@_WV?$string_output_adapter@_W@__crt_stdio_output@@V?$format_validation_base@_WV?$string_output_adapter@_W@__crt_stdio_output@@@2@@__crt_stdio_output@@CAPADXZ 100689a0 f i libucrtd:output.obj
 0001:000679b0       ?narrow_null_string@?$output_processor@_WV?$string_output_adapter@_W@__crt_stdio_output@@V?$positional_parameter_base@_WV?$string_output_adapter@_W@__crt_stdio_output@@@2@@__crt_stdio_output@@CAPADXZ 100689b0 f i libucrtd:output.obj
 0001:000679c0       ?narrow_null_string@?$output_processor@_WV?$string_output_adapter@_W@__crt_stdio_output@@V?$standard_base@_WV?$string_output_adapter@_W@__crt_stdio_output@@@2@@__crt_stdio_output@@CAPADXZ 100689c0 f i libucrtd:output.obj
 0001:000679d0       ?parse_int_from_format_string@?$output_processor@DV?$stream_output_adapter@D@__crt_stdio_output@@V?$format_validation_base@DV?$stream_output_adapter@D@__crt_stdio_output@@@2@@__crt_stdio_output@@AAE_NQAH@Z 100689d0 f i libucrtd:output.obj
 0001:00067a90       ?parse_int_from_format_string@?$output_processor@DV?$stream_output_adapter@D@__crt_stdio_output@@V?$positional_parameter_base@DV?$stream_output_adapter@D@__crt_stdio_output@@@2@@__crt_stdio_output@@AAE_NQAH@Z 10068a90 f i libucrtd:output.obj
 0001:00067b50       ?parse_int_from_format_string@?$output_processor@DV?$stream_output_adapter@D@__crt_stdio_output@@V?$standard_base@DV?$stream_output_adapter@D@__crt_stdio_output@@@2@@__crt_stdio_output@@AAE_NQAH@Z 10068b50 f i libucrtd:output.obj
 0001:00067c10       ?parse_int_from_format_string@?$output_processor@DV?$string_output_adapter@D@__crt_stdio_output@@V?$format_validation_base@DV?$string_output_adapter@D@__crt_stdio_output@@@2@@__crt_stdio_output@@AAE_NQAH@Z 10068c10 f i libucrtd:output.obj
 0001:00067cd0       ?parse_int_from_format_string@?$output_processor@DV?$string_output_adapter@D@__crt_stdio_output@@V?$positional_parameter_base@DV?$string_output_adapter@D@__crt_stdio_output@@@2@@__crt_stdio_output@@AAE_NQAH@Z 10068cd0 f i libucrtd:output.obj
 0001:00067d90       ?parse_int_from_format_string@?$output_processor@DV?$string_output_adapter@D@__crt_stdio_output@@V?$standard_base@DV?$string_output_adapter@D@__crt_stdio_output@@@2@@__crt_stdio_output@@AAE_NQAH@Z 10068d90 f i libucrtd:output.obj
 0001:00067e50       ?parse_int_from_format_string@?$output_processor@_WV?$stream_output_adapter@_W@__crt_stdio_output@@V?$format_validation_base@_WV?$stream_output_adapter@_W@__crt_stdio_output@@@2@@__crt_stdio_output@@AAE_NQAH@Z 10068e50 f i libucrtd:output.obj
 0001:00067f10       ?parse_int_from_format_string@?$output_processor@_WV?$stream_output_adapter@_W@__crt_stdio_output@@V?$positional_parameter_base@_WV?$stream_output_adapter@_W@__crt_stdio_output@@@2@@__crt_stdio_output@@AAE_NQAH@Z 10068f10 f i libucrtd:output.obj
 0001:00067fd0       ?parse_int_from_format_string@?$output_processor@_WV?$stream_output_adapter@_W@__crt_stdio_output@@V?$standard_base@_WV?$stream_output_adapter@_W@__crt_stdio_output@@@2@@__crt_stdio_output@@AAE_NQAH@Z 10068fd0 f i libucrtd:output.obj
 0001:00068090       ?parse_int_from_format_string@?$output_processor@_WV?$string_output_adapter@_W@__crt_stdio_output@@V?$format_validation_base@_WV?$string_output_adapter@_W@__crt_stdio_output@@@2@@__crt_stdio_output@@AAE_NQAH@Z 10069090 f i libucrtd:output.obj
 0001:00068150       ?parse_int_from_format_string@?$output_processor@_WV?$string_output_adapter@_W@__crt_stdio_output@@V?$positional_parameter_base@_WV?$string_output_adapter@_W@__crt_stdio_output@@@2@@__crt_stdio_output@@AAE_NQAH@Z 10069150 f i libucrtd:output.obj
 0001:00068210       ?parse_int_from_format_string@?$output_processor@_WV?$string_output_adapter@_W@__crt_stdio_output@@V?$standard_base@_WV?$string_output_adapter@_W@__crt_stdio_output@@@2@@__crt_stdio_output@@AAE_NQAH@Z 10069210 f i libucrtd:output.obj
 0001:000682d0       ?process@?$output_processor@DV?$stream_output_adapter@D@__crt_stdio_output@@V?$format_validation_base@DV?$stream_output_adapter@D@__crt_stdio_output@@@2@@__crt_stdio_output@@QAEHXZ 100692d0 f i libucrtd:output.obj
 0001:00068580       ?process@?$output_processor@DV?$stream_output_adapter@D@__crt_stdio_output@@V?$positional_parameter_base@DV?$stream_output_adapter@D@__crt_stdio_output@@@2@@__crt_stdio_output@@QAEHXZ 10069580 f i libucrtd:output.obj
 0001:00068830       ?process@?$output_processor@DV?$stream_output_adapter@D@__crt_stdio_output@@V?$standard_base@DV?$stream_output_adapter@D@__crt_stdio_output@@@2@@__crt_stdio_output@@QAEHXZ 10069830 f i libucrtd:output.obj
 0001:00068ae0       ?process@?$output_processor@DV?$string_output_adapter@D@__crt_stdio_output@@V?$format_validation_base@DV?$string_output_adapter@D@__crt_stdio_output@@@2@@__crt_stdio_output@@QAEHXZ 10069ae0 f i libucrtd:output.obj
 0001:00068d90       ?process@?$output_processor@DV?$string_output_adapter@D@__crt_stdio_output@@V?$positional_parameter_base@DV?$string_output_adapter@D@__crt_stdio_output@@@2@@__crt_stdio_output@@QAEHXZ 10069d90 f i libucrtd:output.obj
 0001:00069040       ?process@?$output_processor@DV?$string_output_adapter@D@__crt_stdio_output@@V?$standard_base@DV?$string_output_adapter@D@__crt_stdio_output@@@2@@__crt_stdio_output@@QAEHXZ 1006a040 f i libucrtd:output.obj
 0001:000692f0       ?process@?$output_processor@_WV?$stream_output_adapter@_W@__crt_stdio_output@@V?$format_validation_base@_WV?$stream_output_adapter@_W@__crt_stdio_output@@@2@@__crt_stdio_output@@QAEHXZ 1006a2f0 f i libucrtd:output.obj
 0001:000695a0       ?process@?$output_processor@_WV?$stream_output_adapter@_W@__crt_stdio_output@@V?$positional_parameter_base@_WV?$stream_output_adapter@_W@__crt_stdio_output@@@2@@__crt_stdio_output@@QAEHXZ 1006a5a0 f i libucrtd:output.obj
 0001:00069850       ?process@?$output_processor@_WV?$stream_output_adapter@_W@__crt_stdio_output@@V?$standard_base@_WV?$stream_output_adapter@_W@__crt_stdio_output@@@2@@__crt_stdio_output@@QAEHXZ 1006a850 f i libucrtd:output.obj
 0001:00069b00       ?process@?$output_processor@_WV?$string_output_adapter@_W@__crt_stdio_output@@V?$format_validation_base@_WV?$string_output_adapter@_W@__crt_stdio_output@@@2@@__crt_stdio_output@@QAEHXZ 1006ab00 f i libucrtd:output.obj
 0001:00069db0       ?process@?$output_processor@_WV?$string_output_adapter@_W@__crt_stdio_output@@V?$positional_parameter_base@_WV?$string_output_adapter@_W@__crt_stdio_output@@@2@@__crt_stdio_output@@QAEHXZ 1006adb0 f i libucrtd:output.obj
 0001:0006a060       ?process@?$output_processor@_WV?$string_output_adapter@_W@__crt_stdio_output@@V?$standard_base@_WV?$string_output_adapter@_W@__crt_stdio_output@@@2@@__crt_stdio_output@@QAEHXZ 1006b060 f i libucrtd:output.obj
 0001:0006a310       ?public_stream@__crt_stdio_stream@@QBEPAU_iobuf@@XZ 1006b310 f i libucrtd:output.obj
 0001:0006a330       ?set_flag@?$output_processor@DV?$stream_output_adapter@D@__crt_stdio_output@@V?$format_validation_base@DV?$stream_output_adapter@D@__crt_stdio_output@@@2@@__crt_stdio_output@@AAEXI@Z 1006b330 f i libucrtd:output.obj
 0001:0006a350       ?set_flag@?$output_processor@DV?$stream_output_adapter@D@__crt_stdio_output@@V?$positional_parameter_base@DV?$stream_output_adapter@D@__crt_stdio_output@@@2@@__crt_stdio_output@@AAEXI@Z 1006b350 f i libucrtd:output.obj
 0001:0006a370       ?set_flag@?$output_processor@DV?$stream_output_adapter@D@__crt_stdio_output@@V?$standard_base@DV?$stream_output_adapter@D@__crt_stdio_output@@@2@@__crt_stdio_output@@AAEXI@Z 1006b370 f i libucrtd:output.obj
 0001:0006a390       ?set_flag@?$output_processor@DV?$string_output_adapter@D@__crt_stdio_output@@V?$format_validation_base@DV?$string_output_adapter@D@__crt_stdio_output@@@2@@__crt_stdio_output@@AAEXI@Z 1006b390 f i libucrtd:output.obj
 0001:0006a3b0       ?set_flag@?$output_processor@DV?$string_output_adapter@D@__crt_stdio_output@@V?$positional_parameter_base@DV?$string_output_adapter@D@__crt_stdio_output@@@2@@__crt_stdio_output@@AAEXI@Z 1006b3b0 f i libucrtd:output.obj
 0001:0006a3d0       ?set_flag@?$output_processor@DV?$string_output_adapter@D@__crt_stdio_output@@V?$standard_base@DV?$string_output_adapter@D@__crt_stdio_output@@@2@@__crt_stdio_output@@AAEXI@Z 1006b3d0 f i libucrtd:output.obj
 0001:0006a3f0       ?set_flag@?$output_processor@_WV?$stream_output_adapter@_W@__crt_stdio_output@@V?$format_validation_base@_WV?$stream_output_adapter@_W@__crt_stdio_output@@@2@@__crt_stdio_output@@AAEXI@Z 1006b3f0 f i libucrtd:output.obj
 0001:0006a410       ?set_flag@?$output_processor@_WV?$stream_output_adapter@_W@__crt_stdio_output@@V?$positional_parameter_base@_WV?$stream_output_adapter@_W@__crt_stdio_output@@@2@@__crt_stdio_output@@AAEXI@Z 1006b410 f i libucrtd:output.obj
 0001:0006a430       ?set_flag@?$output_processor@_WV?$stream_output_adapter@_W@__crt_stdio_output@@V?$standard_base@_WV?$stream_output_adapter@_W@__crt_stdio_output@@@2@@__crt_stdio_output@@AAEXI@Z 1006b430 f i libucrtd:output.obj
 0001:0006a450       ?set_flag@?$output_processor@_WV?$string_output_adapter@_W@__crt_stdio_output@@V?$format_validation_base@_WV?$string_output_adapter@_W@__crt_stdio_output@@@2@@__crt_stdio_output@@AAEXI@Z 1006b450 f i libucrtd:output.obj
 0001:0006a470       ?set_flag@?$output_processor@_WV?$string_output_adapter@_W@__crt_stdio_output@@V?$positional_parameter_base@_WV?$string_output_adapter@_W@__crt_stdio_output@@@2@@__crt_stdio_output@@AAEXI@Z 1006b470 f i libucrtd:output.obj
 0001:0006a490       ?set_flag@?$output_processor@_WV?$string_output_adapter@_W@__crt_stdio_output@@V?$standard_base@_WV?$string_output_adapter@_W@__crt_stdio_output@@@2@@__crt_stdio_output@@AAEXI@Z 1006b490 f i libucrtd:output.obj
 0001:0006a4b0       ?should_format@?$positional_parameter_base@DV?$stream_output_adapter@D@__crt_stdio_output@@@__crt_stdio_output@@IAE_NXZ 1006b4b0 f i libucrtd:output.obj
 0001:0006a4f0       ?should_format@?$positional_parameter_base@DV?$string_output_adapter@D@__crt_stdio_output@@@__crt_stdio_output@@IAE_NXZ 1006b4f0 f i libucrtd:output.obj
 0001:0006a530       ?should_format@?$positional_parameter_base@_WV?$stream_output_adapter@_W@__crt_stdio_output@@@__crt_stdio_output@@IAE_NXZ 1006b530 f i libucrtd:output.obj
 0001:0006a570       ?should_format@?$positional_parameter_base@_WV?$string_output_adapter@_W@__crt_stdio_output@@@__crt_stdio_output@@IAE_NXZ 1006b570 f i libucrtd:output.obj
 0001:0006a5b0       ?should_format@?$standard_base@DV?$stream_output_adapter@D@__crt_stdio_output@@@__crt_stdio_output@@IAE_NXZ 1006b5b0 f i libucrtd:output.obj
 0001:0006a5c0       ?should_format@?$standard_base@DV?$string_output_adapter@D@__crt_stdio_output@@@__crt_stdio_output@@IAE_NXZ 1006b5c0 f i libucrtd:output.obj
 0001:0006a5d0       ?should_format@?$standard_base@_WV?$stream_output_adapter@_W@__crt_stdio_output@@@__crt_stdio_output@@IAE_NXZ 1006b5d0 f i libucrtd:output.obj
 0001:0006a5e0       ?should_format@?$standard_base@_WV?$string_output_adapter@_W@__crt_stdio_output@@@__crt_stdio_output@@IAE_NXZ 1006b5e0 f i libucrtd:output.obj
 0001:0006a5f0       ?should_skip_normal_state_processing@?$positional_parameter_base@DV?$stream_output_adapter@D@__crt_stdio_output@@@__crt_stdio_output@@IAE_NXZ 1006b5f0 f i libucrtd:output.obj
 0001:0006a640       ?should_skip_normal_state_processing@?$positional_parameter_base@DV?$string_output_adapter@D@__crt_stdio_output@@@__crt_stdio_output@@IAE_NXZ 1006b640 f i libucrtd:output.obj
 0001:0006a690       ?should_skip_normal_state_processing@?$positional_parameter_base@_WV?$stream_output_adapter@_W@__crt_stdio_output@@@__crt_stdio_output@@IAE_NXZ 1006b690 f i libucrtd:output.obj
 0001:0006a6e0       ?should_skip_normal_state_processing@?$positional_parameter_base@_WV?$string_output_adapter@_W@__crt_stdio_output@@@__crt_stdio_output@@IAE_NXZ 1006b6e0 f i libucrtd:output.obj
 0001:0006a730       ?should_skip_normal_state_processing@?$standard_base@DV?$stream_output_adapter@D@__crt_stdio_output@@@__crt_stdio_output@@IAE_NXZ 1006b730 f i libucrtd:output.obj
 0001:0006a740       ?should_skip_normal_state_processing@?$standard_base@DV?$string_output_adapter@D@__crt_stdio_output@@@__crt_stdio_output@@IAE_NXZ 1006b740 f i libucrtd:output.obj
 0001:0006a750       ?should_skip_normal_state_processing@?$standard_base@_WV?$stream_output_adapter@_W@__crt_stdio_output@@@__crt_stdio_output@@IAE_NXZ 1006b750 f i libucrtd:output.obj
 0001:0006a760       ?should_skip_normal_state_processing@?$standard_base@_WV?$string_output_adapter@_W@__crt_stdio_output@@@__crt_stdio_output@@IAE_NXZ 1006b760 f i libucrtd:output.obj
 0001:0006a770       ?should_skip_type_state_output@?$positional_parameter_base@DV?$stream_output_adapter@D@__crt_stdio_output@@@__crt_stdio_output@@IBE_NXZ 1006b770 f i libucrtd:output.obj
 0001:0006a7b0       ?should_skip_type_state_output@?$positional_parameter_base@DV?$string_output_adapter@D@__crt_stdio_output@@@__crt_stdio_output@@IBE_NXZ 1006b7b0 f i libucrtd:output.obj
 0001:0006a7f0       ?should_skip_type_state_output@?$positional_parameter_base@_WV?$stream_output_adapter@_W@__crt_stdio_output@@@__crt_stdio_output@@IBE_NXZ 1006b7f0 f i libucrtd:output.obj
 0001:0006a830       ?should_skip_type_state_output@?$positional_parameter_base@_WV?$string_output_adapter@_W@__crt_stdio_output@@@__crt_stdio_output@@IBE_NXZ 1006b830 f i libucrtd:output.obj
 0001:0006a870       ?should_skip_type_state_output@?$standard_base@DV?$stream_output_adapter@D@__crt_stdio_output@@@__crt_stdio_output@@IBE_NXZ 1006b870 f i libucrtd:output.obj
 0001:0006a880       ?should_skip_type_state_output@?$standard_base@DV?$string_output_adapter@D@__crt_stdio_output@@@__crt_stdio_output@@IBE_NXZ 1006b880 f i libucrtd:output.obj
 0001:0006a890       ?should_skip_type_state_output@?$standard_base@_WV?$stream_output_adapter@_W@__crt_stdio_output@@@__crt_stdio_output@@IBE_NXZ 1006b890 f i libucrtd:output.obj
 0001:0006a8a0       ?should_skip_type_state_output@?$standard_base@_WV?$string_output_adapter@_W@__crt_stdio_output@@@__crt_stdio_output@@IBE_NXZ 1006b8a0 f i libucrtd:output.obj
 0001:0006a8b0       ?state_case_dot@?$output_processor@DV?$stream_output_adapter@D@__crt_stdio_output@@V?$format_validation_base@DV?$stream_output_adapter@D@__crt_stdio_output@@@2@@__crt_stdio_output@@AAE_NXZ 1006b8b0 f i libucrtd:output.obj
 0001:0006a8d0       ?state_case_dot@?$output_processor@DV?$stream_output_adapter@D@__crt_stdio_output@@V?$positional_parameter_base@DV?$stream_output_adapter@D@__crt_stdio_output@@@2@@__crt_stdio_output@@AAE_NXZ 1006b8d0 f i libucrtd:output.obj
 0001:0006a8f0       ?state_case_dot@?$output_processor@DV?$stream_output_adapter@D@__crt_stdio_output@@V?$standard_base@DV?$stream_output_adapter@D@__crt_stdio_output@@@2@@__crt_stdio_output@@AAE_NXZ 1006b8f0 f i libucrtd:output.obj
 0001:0006a910       ?state_case_dot@?$output_processor@DV?$string_output_adapter@D@__crt_stdio_output@@V?$format_validation_base@DV?$string_output_adapter@D@__crt_stdio_output@@@2@@__crt_stdio_output@@AAE_NXZ 1006b910 f i libucrtd:output.obj
 0001:0006a930       ?state_case_dot@?$output_processor@DV?$string_output_adapter@D@__crt_stdio_output@@V?$positional_parameter_base@DV?$string_output_adapter@D@__crt_stdio_output@@@2@@__crt_stdio_output@@AAE_NXZ 1006b930 f i libucrtd:output.obj
 0001:0006a950       ?state_case_dot@?$output_processor@DV?$string_output_adapter@D@__crt_stdio_output@@V?$standard_base@DV?$string_output_adapter@D@__crt_stdio_output@@@2@@__crt_stdio_output@@AAE_NXZ 1006b950 f i libucrtd:output.obj
 0001:0006a970       ?state_case_dot@?$output_processor@_WV?$stream_output_adapter@_W@__crt_stdio_output@@V?$format_validation_base@_WV?$stream_output_adapter@_W@__crt_stdio_output@@@2@@__crt_stdio_output@@AAE_NXZ 1006b970 f i libucrtd:output.obj
 0001:0006a990       ?state_case_dot@?$output_processor@_WV?$stream_output_adapter@_W@__crt_stdio_output@@V?$positional_parameter_base@_WV?$stream_output_adapter@_W@__crt_stdio_output@@@2@@__crt_stdio_output@@AAE_NXZ 1006b990 f i libucrtd:output.obj
 0001:0006a9b0       ?state_case_dot@?$output_processor@_WV?$stream_output_adapter@_W@__crt_stdio_output@@V?$standard_base@_WV?$stream_output_adapter@_W@__crt_stdio_output@@@2@@__crt_stdio_output@@AAE_NXZ 1006b9b0 f i libucrtd:output.obj
 0001:0006a9d0       ?state_case_dot@?$output_processor@_WV?$string_output_adapter@_W@__crt_stdio_output@@V?$format_validation_base@_WV?$string_output_adapter@_W@__crt_stdio_output@@@2@@__crt_stdio_output@@AAE_NXZ 1006b9d0 f i libucrtd:output.obj
 0001:0006a9f0       ?state_case_dot@?$output_processor@_WV?$string_output_adapter@_W@__crt_stdio_output@@V?$positional_parameter_base@_WV?$string_output_adapter@_W@__crt_stdio_output@@@2@@__crt_stdio_output@@AAE_NXZ 1006b9f0 f i libucrtd:output.obj
 0001:0006aa10       ?state_case_dot@?$output_processor@_WV?$string_output_adapter@_W@__crt_stdio_output@@V?$standard_base@_WV?$string_output_adapter@_W@__crt_stdio_output@@@2@@__crt_stdio_output@@AAE_NXZ 1006ba10 f i libucrtd:output.obj
 0001:0006aa30       ?state_case_flag@?$output_processor@DV?$stream_output_adapter@D@__crt_stdio_output@@V?$format_validation_base@DV?$stream_output_adapter@D@__crt_stdio_output@@@2@@__crt_stdio_output@@AAE_NXZ 1006ba30 f i libucrtd:output.obj
 0001:0006aae0       ?state_case_flag@?$output_processor@DV?$stream_output_adapter@D@__crt_stdio_output@@V?$positional_parameter_base@DV?$stream_output_adapter@D@__crt_stdio_output@@@2@@__crt_stdio_output@@AAE_NXZ 1006bae0 f i libucrtd:output.obj
 0001:0006ab90       ?state_case_flag@?$output_processor@DV?$stream_output_adapter@D@__crt_stdio_output@@V?$standard_base@DV?$stream_output_adapter@D@__crt_stdio_output@@@2@@__crt_stdio_output@@AAE_NXZ 1006bb90 f i libucrtd:output.obj
 0001:0006ac40       ?state_case_flag@?$output_processor@DV?$string_output_adapter@D@__crt_stdio_output@@V?$format_validation_base@DV?$string_output_adapter@D@__crt_stdio_output@@@2@@__crt_stdio_output@@AAE_NXZ 1006bc40 f i libucrtd:output.obj
 0001:0006acf0       ?state_case_flag@?$output_processor@DV?$string_output_adapter@D@__crt_stdio_output@@V?$positional_parameter_base@DV?$string_output_adapter@D@__crt_stdio_output@@@2@@__crt_stdio_output@@AAE_NXZ 1006bcf0 f i libucrtd:output.obj
 0001:0006ada0       ?state_case_flag@?$output_processor@DV?$string_output_adapter@D@__crt_stdio_output@@V?$standard_base@DV?$string_output_adapter@D@__crt_stdio_output@@@2@@__crt_stdio_output@@AAE_NXZ 1006bda0 f i libucrtd:output.obj
 0001:0006ae50       ?state_case_flag@?$output_processor@_WV?$stream_output_adapter@_W@__crt_stdio_output@@V?$format_validation_base@_WV?$stream_output_adapter@_W@__crt_stdio_output@@@2@@__crt_stdio_output@@AAE_NXZ 1006be50 f i libucrtd:output.obj
 0001:0006af00       ?state_case_flag@?$output_processor@_WV?$stream_output_adapter@_W@__crt_stdio_output@@V?$positional_parameter_base@_WV?$stream_output_adapter@_W@__crt_stdio_output@@@2@@__crt_stdio_output@@AAE_NXZ 1006bf00 f i libucrtd:output.obj
 0001:0006afb0       ?state_case_flag@?$output_processor@_WV?$stream_output_adapter@_W@__crt_stdio_output@@V?$standard_base@_WV?$stream_output_adapter@_W@__crt_stdio_output@@@2@@__crt_stdio_output@@AAE_NXZ 1006bfb0 f i libucrtd:output.obj
 0001:0006b060       ?state_case_flag@?$output_processor@_WV?$string_output_adapter@_W@__crt_stdio_output@@V?$format_validation_base@_WV?$string_output_adapter@_W@__crt_stdio_output@@@2@@__crt_stdio_output@@AAE_NXZ 1006c060 f i libucrtd:output.obj
 0001:0006b110       ?state_case_flag@?$output_processor@_WV?$string_output_adapter@_W@__crt_stdio_output@@V?$positional_parameter_base@_WV?$string_output_adapter@_W@__crt_stdio_output@@@2@@__crt_stdio_output@@AAE_NXZ 1006c110 f i libucrtd:output.obj
 0001:0006b1c0       ?state_case_flag@?$output_processor@_WV?$string_output_adapter@_W@__crt_stdio_output@@V?$standard_base@_WV?$string_output_adapter@_W@__crt_stdio_output@@@2@@__crt_stdio_output@@AAE_NXZ 1006c1c0 f i libucrtd:output.obj
 0001:0006b270       ?state_case_normal@?$output_processor@DV?$stream_output_adapter@D@__crt_stdio_output@@V?$format_validation_base@DV?$stream_output_adapter@D@__crt_stdio_output@@@2@@__crt_stdio_output@@AAE_NXZ 1006c270 f i libucrtd:output.obj
 0001:0006b320       ?state_case_normal@?$output_processor@DV?$stream_output_adapter@D@__crt_stdio_output@@V?$positional_parameter_base@DV?$stream_output_adapter@D@__crt_stdio_output@@@2@@__crt_stdio_output@@AAE_NXZ 1006c320 f i libucrtd:output.obj
 0001:0006b3d0       ?state_case_normal@?$output_processor@DV?$stream_output_adapter@D@__crt_stdio_output@@V?$standard_base@DV?$stream_output_adapter@D@__crt_stdio_output@@@2@@__crt_stdio_output@@AAE_NXZ 1006c3d0 f i libucrtd:output.obj
 0001:0006b480       ?state_case_normal@?$output_processor@DV?$string_output_adapter@D@__crt_stdio_output@@V?$format_validation_base@DV?$string_output_adapter@D@__crt_stdio_output@@@2@@__crt_stdio_output@@AAE_NXZ 1006c480 f i libucrtd:output.obj
 0001:0006b530       ?state_case_normal@?$output_processor@DV?$string_output_adapter@D@__crt_stdio_output@@V?$positional_parameter_base@DV?$string_output_adapter@D@__crt_stdio_output@@@2@@__crt_stdio_output@@AAE_NXZ 1006c530 f i libucrtd:output.obj
 0001:0006b5e0       ?state_case_normal@?$output_processor@DV?$string_output_adapter@D@__crt_stdio_output@@V?$standard_base@DV?$string_output_adapter@D@__crt_stdio_output@@@2@@__crt_stdio_output@@AAE_NXZ 1006c5e0 f i libucrtd:output.obj
 0001:0006b690       ?state_case_normal@?$output_processor@_WV?$stream_output_adapter@_W@__crt_stdio_output@@V?$format_validation_base@_WV?$stream_output_adapter@_W@__crt_stdio_output@@@2@@__crt_stdio_output@@AAE_NXZ 1006c690 f i libucrtd:output.obj
 0001:0006b740       ?state_case_normal@?$output_processor@_WV?$stream_output_adapter@_W@__crt_stdio_output@@V?$positional_parameter_base@_WV?$stream_output_adapter@_W@__crt_stdio_output@@@2@@__crt_stdio_output@@AAE_NXZ 1006c740 f i libucrtd:output.obj
 0001:0006b7f0       ?state_case_normal@?$output_processor@_WV?$stream_output_adapter@_W@__crt_stdio_output@@V?$standard_base@_WV?$stream_output_adapter@_W@__crt_stdio_output@@@2@@__crt_stdio_output@@AAE_NXZ 1006c7f0 f i libucrtd:output.obj
 0001:0006b8a0       ?state_case_normal@?$output_processor@_WV?$string_output_adapter@_W@__crt_stdio_output@@V?$format_validation_base@_WV?$string_output_adapter@_W@__crt_stdio_output@@@2@@__crt_stdio_output@@AAE_NXZ 1006c8a0 f i libucrtd:output.obj
 0001:0006b950       ?state_case_normal@?$output_processor@_WV?$string_output_adapter@_W@__crt_stdio_output@@V?$positional_parameter_base@_WV?$string_output_adapter@_W@__crt_stdio_output@@@2@@__crt_stdio_output@@AAE_NXZ 1006c950 f i libucrtd:output.obj
 0001:0006ba00       ?state_case_normal@?$output_processor@_WV?$string_output_adapter@_W@__crt_stdio_output@@V?$standard_base@_WV?$string_output_adapter@_W@__crt_stdio_output@@@2@@__crt_stdio_output@@AAE_NXZ 1006ca00 f i libucrtd:output.obj
 0001:0006bab0       ?state_case_normal_common@?$output_processor@DV?$stream_output_adapter@D@__crt_stdio_output@@V?$format_validation_base@DV?$stream_output_adapter@D@__crt_stdio_output@@@2@@__crt_stdio_output@@AAE_NXZ 1006cab0 f i libucrtd:output.obj
 0001:0006bb00       ?state_case_normal_common@?$output_processor@DV?$stream_output_adapter@D@__crt_stdio_output@@V?$positional_parameter_base@DV?$stream_output_adapter@D@__crt_stdio_output@@@2@@__crt_stdio_output@@AAE_NXZ 1006cb00 f i libucrtd:output.obj
 0001:0006bb50       ?state_case_normal_common@?$output_processor@DV?$stream_output_adapter@D@__crt_stdio_output@@V?$standard_base@DV?$stream_output_adapter@D@__crt_stdio_output@@@2@@__crt_stdio_output@@AAE_NXZ 1006cb50 f i libucrtd:output.obj
 0001:0006bba0       ?state_case_normal_common@?$output_processor@DV?$string_output_adapter@D@__crt_stdio_output@@V?$format_validation_base@DV?$string_output_adapter@D@__crt_stdio_output@@@2@@__crt_stdio_output@@AAE_NXZ 1006cba0 f i libucrtd:output.obj
 0001:0006bbf0       ?state_case_normal_common@?$output_processor@DV?$string_output_adapter@D@__crt_stdio_output@@V?$positional_parameter_base@DV?$string_output_adapter@D@__crt_stdio_output@@@2@@__crt_stdio_output@@AAE_NXZ 1006cbf0 f i libucrtd:output.obj
 0001:0006bc40       ?state_case_normal_common@?$output_processor@DV?$string_output_adapter@D@__crt_stdio_output@@V?$standard_base@DV?$string_output_adapter@D@__crt_stdio_output@@@2@@__crt_stdio_output@@AAE_NXZ 1006cc40 f i libucrtd:output.obj
 0001:0006bc90       ?state_case_normal_common@?$output_processor@_WV?$stream_output_adapter@_W@__crt_stdio_output@@V?$format_validation_base@_WV?$stream_output_adapter@_W@__crt_stdio_output@@@2@@__crt_stdio_output@@AAE_NXZ 1006cc90 f i libucrtd:output.obj
 0001:0006bce0       ?state_case_normal_common@?$output_processor@_WV?$stream_output_adapter@_W@__crt_stdio_output@@V?$positional_parameter_base@_WV?$stream_output_adapter@_W@__crt_stdio_output@@@2@@__crt_stdio_output@@AAE_NXZ 1006cce0 f i libucrtd:output.obj
 0001:0006bd30       ?state_case_normal_common@?$output_processor@_WV?$stream_output_adapter@_W@__crt_stdio_output@@V?$standard_base@_WV?$stream_output_adapter@_W@__crt_stdio_output@@@2@@__crt_stdio_output@@AAE_NXZ 1006cd30 f i libucrtd:output.obj
 0001:0006bd80       ?state_case_normal_common@?$output_processor@_WV?$string_output_adapter@_W@__crt_stdio_output@@V?$format_validation_base@_WV?$string_output_adapter@_W@__crt_stdio_output@@@2@@__crt_stdio_output@@AAE_NXZ 1006cd80 f i libucrtd:output.obj
 0001:0006bdd0       ?state_case_normal_common@?$output_processor@_WV?$string_output_adapter@_W@__crt_stdio_output@@V?$positional_parameter_base@_WV?$string_output_adapter@_W@__crt_stdio_output@@@2@@__crt_stdio_output@@AAE_NXZ 1006cdd0 f i libucrtd:output.obj
 0001:0006be20       ?state_case_normal_common@?$output_processor@_WV?$string_output_adapter@_W@__crt_stdio_output@@V?$standard_base@_WV?$string_output_adapter@_W@__crt_stdio_output@@@2@@__crt_stdio_output@@AAE_NXZ 1006ce20 f i libucrtd:output.obj
 0001:0006be70       ?state_case_normal_tchar@?$output_processor@DV?$stream_output_adapter@D@__crt_stdio_output@@V?$format_validation_base@DV?$stream_output_adapter@D@__crt_stdio_output@@@2@@__crt_stdio_output@@AAE_ND@Z 1006ce70 f i libucrtd:output.obj
 0001:0006bf70       ?state_case_normal_tchar@?$output_processor@DV?$stream_output_adapter@D@__crt_stdio_output@@V?$positional_parameter_base@DV?$stream_output_adapter@D@__crt_stdio_output@@@2@@__crt_stdio_output@@AAE_ND@Z 1006cf70 f i libucrtd:output.obj
 0001:0006c070       ?state_case_normal_tchar@?$output_processor@DV?$stream_output_adapter@D@__crt_stdio_output@@V?$standard_base@DV?$stream_output_adapter@D@__crt_stdio_output@@@2@@__crt_stdio_output@@AAE_ND@Z 1006d070 f i libucrtd:output.obj
 0001:0006c170       ?state_case_normal_tchar@?$output_processor@DV?$string_output_adapter@D@__crt_stdio_output@@V?$format_validation_base@DV?$string_output_adapter@D@__crt_stdio_output@@@2@@__crt_stdio_output@@AAE_ND@Z 1006d170 f i libucrtd:output.obj
 0001:0006c270       ?state_case_normal_tchar@?$output_processor@DV?$string_output_adapter@D@__crt_stdio_output@@V?$positional_parameter_base@DV?$string_output_adapter@D@__crt_stdio_output@@@2@@__crt_stdio_output@@AAE_ND@Z 1006d270 f i libucrtd:output.obj
 0001:0006c370       ?state_case_normal_tchar@?$output_processor@DV?$string_output_adapter@D@__crt_stdio_output@@V?$standard_base@DV?$string_output_adapter@D@__crt_stdio_output@@@2@@__crt_stdio_output@@AAE_ND@Z 1006d370 f i libucrtd:output.obj
 0001:0006c470       ?state_case_normal_tchar@?$output_processor@_WV?$stream_output_adapter@_W@__crt_stdio_output@@V?$format_validation_base@_WV?$stream_output_adapter@_W@__crt_stdio_output@@@2@@__crt_stdio_output@@AAE_N_W@Z 1006d470 f i libucrtd:output.obj
 0001:0006c490       ?state_case_normal_tchar@?$output_processor@_WV?$stream_output_adapter@_W@__crt_stdio_output@@V?$positional_parameter_base@_WV?$stream_output_adapter@_W@__crt_stdio_output@@@2@@__crt_stdio_output@@AAE_N_W@Z 1006d490 f i libucrtd:output.obj
 0001:0006c4b0       ?state_case_normal_tchar@?$output_processor@_WV?$stream_output_adapter@_W@__crt_stdio_output@@V?$standard_base@_WV?$stream_output_adapter@_W@__crt_stdio_output@@@2@@__crt_stdio_output@@AAE_N_W@Z 1006d4b0 f i libucrtd:output.obj
 0001:0006c4d0       ?state_case_normal_tchar@?$output_processor@_WV?$string_output_adapter@_W@__crt_stdio_output@@V?$format_validation_base@_WV?$string_output_adapter@_W@__crt_stdio_output@@@2@@__crt_stdio_output@@AAE_N_W@Z 1006d4d0 f i libucrtd:output.obj
 0001:0006c4f0       ?state_case_normal_tchar@?$output_processor@_WV?$string_output_adapter@_W@__crt_stdio_output@@V?$positional_parameter_base@_WV?$string_output_adapter@_W@__crt_stdio_output@@@2@@__crt_stdio_output@@AAE_N_W@Z 1006d4f0 f i libucrtd:output.obj
 0001:0006c510       ?state_case_normal_tchar@?$output_processor@_WV?$string_output_adapter@_W@__crt_stdio_output@@V?$standard_base@_WV?$string_output_adapter@_W@__crt_stdio_output@@@2@@__crt_stdio_output@@AAE_N_W@Z 1006d510 f i libucrtd:output.obj
 0001:0006c530       ?state_case_percent@?$output_processor@DV?$stream_output_adapter@D@__crt_stdio_output@@V?$format_validation_base@DV?$stream_output_adapter@D@__crt_stdio_output@@@2@@__crt_stdio_output@@AAE_NXZ 1006d530 f i libucrtd:output.obj
 0001:0006c580       ?state_case_percent@?$output_processor@DV?$stream_output_adapter@D@__crt_stdio_output@@V?$positional_parameter_base@DV?$stream_output_adapter@D@__crt_stdio_output@@@2@@__crt_stdio_output@@AAE_NXZ 1006d580 f i libucrtd:output.obj
 0001:0006c5d0       ?state_case_percent@?$output_processor@DV?$stream_output_adapter@D@__crt_stdio_output@@V?$standard_base@DV?$stream_output_adapter@D@__crt_stdio_output@@@2@@__crt_stdio_output@@AAE_NXZ 1006d5d0 f i libucrtd:output.obj
 0001:0006c620       ?state_case_percent@?$output_processor@DV?$string_output_adapter@D@__crt_stdio_output@@V?$format_validation_base@DV?$string_output_adapter@D@__crt_stdio_output@@@2@@__crt_stdio_output@@AAE_NXZ 1006d620 f i libucrtd:output.obj
 0001:0006c670       ?state_case_percent@?$output_processor@DV?$string_output_adapter@D@__crt_stdio_output@@V?$positional_parameter_base@DV?$string_output_adapter@D@__crt_stdio_output@@@2@@__crt_stdio_output@@AAE_NXZ 1006d670 f i libucrtd:output.obj
 0001:0006c6c0       ?state_case_percent@?$output_processor@DV?$string_output_adapter@D@__crt_stdio_output@@V?$standard_base@DV?$string_output_adapter@D@__crt_stdio_output@@@2@@__crt_stdio_output@@AAE_NXZ 1006d6c0 f i libucrtd:output.obj
 0001:0006c710       ?state_case_percent@?$output_processor@_WV?$stream_output_adapter@_W@__crt_stdio_output@@V?$format_validation_base@_WV?$stream_output_adapter@_W@__crt_stdio_output@@@2@@__crt_stdio_output@@AAE_NXZ 1006d710 f i libucrtd:output.obj
 0001:0006c760       ?state_case_percent@?$output_processor@_WV?$stream_output_adapter@_W@__crt_stdio_output@@V?$positional_parameter_base@_WV?$stream_output_adapter@_W@__crt_stdio_output@@@2@@__crt_stdio_output@@AAE_NXZ 1006d760 f i libucrtd:output.obj
 0001:0006c7b0       ?state_case_percent@?$output_processor@_WV?$stream_output_adapter@_W@__crt_stdio_output@@V?$standard_base@_WV?$stream_output_adapter@_W@__crt_stdio_output@@@2@@__crt_stdio_output@@AAE_NXZ 1006d7b0 f i libucrtd:output.obj
 0001:0006c800       ?state_case_percent@?$output_processor@_WV?$string_output_adapter@_W@__crt_stdio_output@@V?$format_validation_base@_WV?$string_output_adapter@_W@__crt_stdio_output@@@2@@__crt_stdio_output@@AAE_NXZ 1006d800 f i libucrtd:output.obj
 0001:0006c850       ?state_case_percent@?$output_processor@_WV?$string_output_adapter@_W@__crt_stdio_output@@V?$positional_parameter_base@_WV?$string_output_adapter@_W@__crt_stdio_output@@@2@@__crt_stdio_output@@AAE_NXZ 1006d850 f i libucrtd:output.obj
 0001:0006c8a0       ?state_case_percent@?$output_processor@_WV?$string_output_adapter@_W@__crt_stdio_output@@V?$standard_base@_WV?$string_output_adapter@_W@__crt_stdio_output@@@2@@__crt_stdio_output@@AAE_NXZ 1006d8a0 f i libucrtd:output.obj
 0001:0006c8f0       ?state_case_precision@?$output_processor@DV?$stream_output_adapter@D@__crt_stdio_output@@V?$format_validation_base@DV?$stream_output_adapter@D@__crt_stdio_output@@@2@@__crt_stdio_output@@AAE_NXZ 1006d8f0 f i libucrtd:output.obj
 0001:0006c960       ?state_case_precision@?$output_processor@DV?$stream_output_adapter@D@__crt_stdio_output@@V?$positional_parameter_base@DV?$stream_output_adapter@D@__crt_stdio_output@@@2@@__crt_stdio_output@@AAE_NXZ 1006d960 f i libucrtd:output.obj
 0001:0006c9d0       ?state_case_precision@?$output_processor@DV?$stream_output_adapter@D@__crt_stdio_output@@V?$standard_base@DV?$stream_output_adapter@D@__crt_stdio_output@@@2@@__crt_stdio_output@@AAE_NXZ 1006d9d0 f i libucrtd:output.obj
 0001:0006ca40       ?state_case_precision@?$output_processor@DV?$string_output_adapter@D@__crt_stdio_output@@V?$format_validation_base@DV?$string_output_adapter@D@__crt_stdio_output@@@2@@__crt_stdio_output@@AAE_NXZ 1006da40 f i libucrtd:output.obj
 0001:0006cab0       ?state_case_precision@?$output_processor@DV?$string_output_adapter@D@__crt_stdio_output@@V?$positional_parameter_base@DV?$string_output_adapter@D@__crt_stdio_output@@@2@@__crt_stdio_output@@AAE_NXZ 1006dab0 f i libucrtd:output.obj
 0001:0006cb20       ?state_case_precision@?$output_processor@DV?$string_output_adapter@D@__crt_stdio_output@@V?$standard_base@DV?$string_output_adapter@D@__crt_stdio_output@@@2@@__crt_stdio_output@@AAE_NXZ 1006db20 f i libucrtd:output.obj
 0001:0006cb90       ?state_case_precision@?$output_processor@_WV?$stream_output_adapter@_W@__crt_stdio_output@@V?$format_validation_base@_WV?$stream_output_adapter@_W@__crt_stdio_output@@@2@@__crt_stdio_output@@AAE_NXZ 1006db90 f i libucrtd:output.obj
 0001:0006cc00       ?state_case_precision@?$output_processor@_WV?$stream_output_adapter@_W@__crt_stdio_output@@V?$positional_parameter_base@_WV?$stream_output_adapter@_W@__crt_stdio_output@@@2@@__crt_stdio_output@@AAE_NXZ 1006dc00 f i libucrtd:output.obj
 0001:0006cc70       ?state_case_precision@?$output_processor@_WV?$stream_output_adapter@_W@__crt_stdio_output@@V?$standard_base@_WV?$stream_output_adapter@_W@__crt_stdio_output@@@2@@__crt_stdio_output@@AAE_NXZ 1006dc70 f i libucrtd:output.obj
 0001:0006cce0       ?state_case_precision@?$output_processor@_WV?$string_output_adapter@_W@__crt_stdio_output@@V?$format_validation_base@_WV?$string_output_adapter@_W@__crt_stdio_output@@@2@@__crt_stdio_output@@AAE_NXZ 1006dce0 f i libucrtd:output.obj
 0001:0006cd50       ?state_case_precision@?$output_processor@_WV?$string_output_adapter@_W@__crt_stdio_output@@V?$positional_parameter_base@_WV?$string_output_adapter@_W@__crt_stdio_output@@@2@@__crt_stdio_output@@AAE_NXZ 1006dd50 f i libucrtd:output.obj
 0001:0006cdc0       ?state_case_precision@?$output_processor@_WV?$string_output_adapter@_W@__crt_stdio_output@@V?$standard_base@_WV?$string_output_adapter@_W@__crt_stdio_output@@@2@@__crt_stdio_output@@AAE_NXZ 1006ddc0 f i libucrtd:output.obj
 0001:0006ce30       ?state_case_size@?$output_processor@DV?$stream_output_adapter@D@__crt_stdio_output@@V?$format_validation_base@DV?$stream_output_adapter@D@__crt_stdio_output@@@2@@__crt_stdio_output@@AAE_NXZ 1006de30 f i libucrtd:output.obj
 0001:0006d200       ?state_case_size@?$output_processor@DV?$stream_output_adapter@D@__crt_stdio_output@@V?$positional_parameter_base@DV?$stream_output_adapter@D@__crt_stdio_output@@@2@@__crt_stdio_output@@AAE_NXZ 1006e200 f i libucrtd:output.obj
 0001:0006d5d0       ?state_case_size@?$output_processor@DV?$stream_output_adapter@D@__crt_stdio_output@@V?$standard_base@DV?$stream_output_adapter@D@__crt_stdio_output@@@2@@__crt_stdio_output@@AAE_NXZ 1006e5d0 f i libucrtd:output.obj
 0001:0006d9a0       ?state_case_size@?$output_processor@DV?$string_output_adapter@D@__crt_stdio_output@@V?$format_validation_base@DV?$string_output_adapter@D@__crt_stdio_output@@@2@@__crt_stdio_output@@AAE_NXZ 1006e9a0 f i libucrtd:output.obj
 0001:0006dd70       ?state_case_size@?$output_processor@DV?$string_output_adapter@D@__crt_stdio_output@@V?$positional_parameter_base@DV?$string_output_adapter@D@__crt_stdio_output@@@2@@__crt_stdio_output@@AAE_NXZ 1006ed70 f i libucrtd:output.obj
 0001:0006e140       ?state_case_size@?$output_processor@DV?$string_output_adapter@D@__crt_stdio_output@@V?$standard_base@DV?$string_output_adapter@D@__crt_stdio_output@@@2@@__crt_stdio_output@@AAE_NXZ 1006f140 f i libucrtd:output.obj
 0001:0006e510       ?state_case_size@?$output_processor@_WV?$stream_output_adapter@_W@__crt_stdio_output@@V?$format_validation_base@_WV?$stream_output_adapter@_W@__crt_stdio_output@@@2@@__crt_stdio_output@@AAE_NXZ 1006f510 f i libucrtd:output.obj
 0001:0006e8e0       ?state_case_size@?$output_processor@_WV?$stream_output_adapter@_W@__crt_stdio_output@@V?$positional_parameter_base@_WV?$stream_output_adapter@_W@__crt_stdio_output@@@2@@__crt_stdio_output@@AAE_NXZ 1006f8e0 f i libucrtd:output.obj
 0001:0006ecb0       ?state_case_size@?$output_processor@_WV?$stream_output_adapter@_W@__crt_stdio_output@@V?$standard_base@_WV?$stream_output_adapter@_W@__crt_stdio_output@@@2@@__crt_stdio_output@@AAE_NXZ 1006fcb0 f i libucrtd:output.obj
 0001:0006f080       ?state_case_size@?$output_processor@_WV?$string_output_adapter@_W@__crt_stdio_output@@V?$format_validation_base@_WV?$string_output_adapter@_W@__crt_stdio_output@@@2@@__crt_stdio_output@@AAE_NXZ 10070080 f i libucrtd:output.obj
 0001:0006f450       ?state_case_size@?$output_processor@_WV?$string_output_adapter@_W@__crt_stdio_output@@V?$positional_parameter_base@_WV?$string_output_adapter@_W@__crt_stdio_output@@@2@@__crt_stdio_output@@AAE_NXZ 10070450 f i libucrtd:output.obj
 0001:0006f820       ?state_case_size@?$output_processor@_WV?$string_output_adapter@_W@__crt_stdio_output@@V?$standard_base@_WV?$string_output_adapter@_W@__crt_stdio_output@@@2@@__crt_stdio_output@@AAE_NXZ 10070820 f i libucrtd:output.obj
 0001:0006fbf0       ?state_case_type@?$output_processor@DV?$stream_output_adapter@D@__crt_stdio_output@@V?$format_validation_base@DV?$stream_output_adapter@D@__crt_stdio_output@@@2@@__crt_stdio_output@@AAE_NXZ 10070bf0 f i libucrtd:output.obj
 0001:0006ffa0       ?state_case_type@?$output_processor@DV?$stream_output_adapter@D@__crt_stdio_output@@V?$positional_parameter_base@DV?$stream_output_adapter@D@__crt_stdio_output@@@2@@__crt_stdio_output@@AAE_NXZ 10070fa0 f i libucrtd:output.obj
 0001:00070350       ?state_case_type@?$output_processor@DV?$stream_output_adapter@D@__crt_stdio_output@@V?$standard_base@DV?$stream_output_adapter@D@__crt_stdio_output@@@2@@__crt_stdio_output@@AAE_NXZ 10071350 f i libucrtd:output.obj
 0001:00070700       ?state_case_type@?$output_processor@DV?$string_output_adapter@D@__crt_stdio_output@@V?$format_validation_base@DV?$string_output_adapter@D@__crt_stdio_output@@@2@@__crt_stdio_output@@AAE_NXZ 10071700 f i libucrtd:output.obj
 0001:00070ab0       ?state_case_type@?$output_processor@DV?$string_output_adapter@D@__crt_stdio_output@@V?$positional_parameter_base@DV?$string_output_adapter@D@__crt_stdio_output@@@2@@__crt_stdio_output@@AAE_NXZ 10071ab0 f i libucrtd:output.obj
 0001:00070e60       ?state_case_type@?$output_processor@DV?$string_output_adapter@D@__crt_stdio_output@@V?$standard_base@DV?$string_output_adapter@D@__crt_stdio_output@@@2@@__crt_stdio_output@@AAE_NXZ 10071e60 f i libucrtd:output.obj
 0001:00071210       ?state_case_type@?$output_processor@_WV?$stream_output_adapter@_W@__crt_stdio_output@@V?$format_validation_base@_WV?$stream_output_adapter@_W@__crt_stdio_output@@@2@@__crt_stdio_output@@AAE_NXZ 10072210 f i libucrtd:output.obj
 0001:000715f0       ?state_case_type@?$output_processor@_WV?$stream_output_adapter@_W@__crt_stdio_output@@V?$positional_parameter_base@_WV?$stream_output_adapter@_W@__crt_stdio_output@@@2@@__crt_stdio_output@@AAE_NXZ 100725f0 f i libucrtd:output.obj
 0001:000719d0       ?state_case_type@?$output_processor@_WV?$stream_output_adapter@_W@__crt_stdio_output@@V?$standard_base@_WV?$stream_output_adapter@_W@__crt_stdio_output@@@2@@__crt_stdio_output@@AAE_NXZ 100729d0 f i libucrtd:output.obj
 0001:00071db0       ?state_case_type@?$output_processor@_WV?$string_output_adapter@_W@__crt_stdio_output@@V?$format_validation_base@_WV?$string_output_adapter@_W@__crt_stdio_output@@@2@@__crt_stdio_output@@AAE_NXZ 10072db0 f i libucrtd:output.obj
 0001:00072190       ?state_case_type@?$output_processor@_WV?$string_output_adapter@_W@__crt_stdio_output@@V?$positional_parameter_base@_WV?$string_output_adapter@_W@__crt_stdio_output@@@2@@__crt_stdio_output@@AAE_NXZ 10073190 f i libucrtd:output.obj
 0001:00072570       ?state_case_type@?$output_processor@_WV?$string_output_adapter@_W@__crt_stdio_output@@V?$standard_base@_WV?$string_output_adapter@_W@__crt_stdio_output@@@2@@__crt_stdio_output@@AAE_NXZ 10073570 f i libucrtd:output.obj
 0001:00072950       ?state_case_width@?$output_processor@DV?$stream_output_adapter@D@__crt_stdio_output@@V?$format_validation_base@DV?$stream_output_adapter@D@__crt_stdio_output@@@2@@__crt_stdio_output@@AAE_NXZ 10073950 f i libucrtd:output.obj
 0001:000729d0       ?state_case_width@?$output_processor@DV?$stream_output_adapter@D@__crt_stdio_output@@V?$positional_parameter_base@DV?$stream_output_adapter@D@__crt_stdio_output@@@2@@__crt_stdio_output@@AAE_NXZ 100739d0 f i libucrtd:output.obj
 0001:00072a50       ?state_case_width@?$output_processor@DV?$stream_output_adapter@D@__crt_stdio_output@@V?$standard_base@DV?$stream_output_adapter@D@__crt_stdio_output@@@2@@__crt_stdio_output@@AAE_NXZ 10073a50 f i libucrtd:output.obj
 0001:00072ad0       ?state_case_width@?$output_processor@DV?$string_output_adapter@D@__crt_stdio_output@@V?$format_validation_base@DV?$string_output_adapter@D@__crt_stdio_output@@@2@@__crt_stdio_output@@AAE_NXZ 10073ad0 f i libucrtd:output.obj
 0001:00072b50       ?state_case_width@?$output_processor@DV?$string_output_adapter@D@__crt_stdio_output@@V?$positional_parameter_base@DV?$string_output_adapter@D@__crt_stdio_output@@@2@@__crt_stdio_output@@AAE_NXZ 10073b50 f i libucrtd:output.obj
 0001:00072bd0       ?state_case_width@?$output_processor@DV?$string_output_adapter@D@__crt_stdio_output@@V?$standard_base@DV?$string_output_adapter@D@__crt_stdio_output@@@2@@__crt_stdio_output@@AAE_NXZ 10073bd0 f i libucrtd:output.obj
 0001:00072c50       ?state_case_width@?$output_processor@_WV?$stream_output_adapter@_W@__crt_stdio_output@@V?$format_validation_base@_WV?$stream_output_adapter@_W@__crt_stdio_output@@@2@@__crt_stdio_output@@AAE_NXZ 10073c50 f i libucrtd:output.obj
 0001:00072cd0       ?state_case_width@?$output_processor@_WV?$stream_output_adapter@_W@__crt_stdio_output@@V?$positional_parameter_base@_WV?$stream_output_adapter@_W@__crt_stdio_output@@@2@@__crt_stdio_output@@AAE_NXZ 10073cd0 f i libucrtd:output.obj
 0001:00072d50       ?state_case_width@?$output_processor@_WV?$stream_output_adapter@_W@__crt_stdio_output@@V?$standard_base@_WV?$stream_output_adapter@_W@__crt_stdio_output@@@2@@__crt_stdio_output@@AAE_NXZ 10073d50 f i libucrtd:output.obj
 0001:00072dd0       ?state_case_width@?$output_processor@_WV?$string_output_adapter@_W@__crt_stdio_output@@V?$format_validation_base@_WV?$string_output_adapter@_W@__crt_stdio_output@@@2@@__crt_stdio_output@@AAE_NXZ 10073dd0 f i libucrtd:output.obj
 0001:00072e50       ?state_case_width@?$output_processor@_WV?$string_output_adapter@_W@__crt_stdio_output@@V?$positional_parameter_base@_WV?$string_output_adapter@_W@__crt_stdio_output@@@2@@__crt_stdio_output@@AAE_NXZ 10073e50 f i libucrtd:output.obj
 0001:00072ed0       ?state_case_width@?$output_processor@_WV?$string_output_adapter@_W@__crt_stdio_output@@V?$standard_base@_WV?$string_output_adapter@_W@__crt_stdio_output@@@2@@__crt_stdio_output@@AAE_NXZ 10073ed0 f i libucrtd:output.obj
 0001:00072f50       ?state_count@?$format_validation_base@DV?$stream_output_adapter@D@__crt_stdio_output@@@__crt_stdio_output@@KAIXZ 10073f50 f i libucrtd:output.obj
 0001:00072f60       ?state_count@?$format_validation_base@DV?$string_output_adapter@D@__crt_stdio_output@@@__crt_stdio_output@@KAIXZ 10073f60 f i libucrtd:output.obj
 0001:00072f70       ?state_count@?$format_validation_base@_WV?$stream_output_adapter@_W@__crt_stdio_output@@@__crt_stdio_output@@KAIXZ 10073f70 f i libucrtd:output.obj
 0001:00072f80       ?state_count@?$format_validation_base@_WV?$string_output_adapter@_W@__crt_stdio_output@@@__crt_stdio_output@@KAIXZ 10073f80 f i libucrtd:output.obj
 0001:00072f90       ?state_count@?$standard_base@DV?$stream_output_adapter@D@__crt_stdio_output@@@__crt_stdio_output@@KAIXZ 10073f90 f i libucrtd:output.obj
 0001:00072fa0       ?state_count@?$standard_base@DV?$string_output_adapter@D@__crt_stdio_output@@@__crt_stdio_output@@KAIXZ 10073fa0 f i libucrtd:output.obj
 0001:00072fb0       ?state_count@?$standard_base@_WV?$stream_output_adapter@_W@__crt_stdio_output@@@__crt_stdio_output@@KAIXZ 10073fb0 f i libucrtd:output.obj
 0001:00072fc0       ?state_count@?$standard_base@_WV?$string_output_adapter@_W@__crt_stdio_output@@@__crt_stdio_output@@KAIXZ 10073fc0 f i libucrtd:output.obj
 0001:00072fd0       ?state_transition_table@?$format_validation_base@DV?$stream_output_adapter@D@__crt_stdio_output@@@__crt_stdio_output@@KAPBEXZ 10073fd0 f i libucrtd:output.obj
 0001:00072fe0       ?state_transition_table@?$format_validation_base@DV?$string_output_adapter@D@__crt_stdio_output@@@__crt_stdio_output@@KAPBEXZ 10073fe0 f i libucrtd:output.obj
 0001:00072ff0       ?state_transition_table@?$format_validation_base@_WV?$stream_output_adapter@_W@__crt_stdio_output@@@__crt_stdio_output@@KAPBEXZ 10073ff0 f i libucrtd:output.obj
 0001:00073000       ?state_transition_table@?$format_validation_base@_WV?$string_output_adapter@_W@__crt_stdio_output@@@__crt_stdio_output@@KAPBEXZ 10074000 f i libucrtd:output.obj
 0001:00073010       ?state_transition_table@?$standard_base@DV?$stream_output_adapter@D@__crt_stdio_output@@@__crt_stdio_output@@KAPBEXZ 10074010 f i libucrtd:output.obj
 0001:00073020       ?state_transition_table@?$standard_base@DV?$string_output_adapter@D@__crt_stdio_output@@@__crt_stdio_output@@KAPBEXZ 10074020 f i libucrtd:output.obj
 0001:00073030       ?state_transition_table@?$standard_base@_WV?$stream_output_adapter@_W@__crt_stdio_output@@@__crt_stdio_output@@KAPBEXZ 10074030 f i libucrtd:output.obj
 0001:00073040       ?state_transition_table@?$standard_base@_WV?$string_output_adapter@_W@__crt_stdio_output@@@__crt_stdio_output@@KAPBEXZ 10074040 f i libucrtd:output.obj
 0001:00073050       ?tchar_string@?$common_data@D@__crt_stdio_output@@IAEAAPADD@Z 10074050 f i libucrtd:output.obj
 0001:00073070       ?tchar_string@?$common_data@D@__crt_stdio_output@@IAEAAPADXZ 10074070 f i libucrtd:output.obj
 0001:00073090       ?tchar_string@?$common_data@_W@__crt_stdio_output@@IAEAAPA_WXZ 10074090 f i libucrtd:output.obj
 0001:000730b0       ?tchar_string@?$common_data@_W@__crt_stdio_output@@IAEAAPA_W_W@Z 100740b0 f i libucrtd:output.obj
 0001:000730d0       ?to_integer_size@__crt_stdio_output@@YAIW4length_modifier@1@@Z 100740d0 f i libucrtd:output.obj
 0001:00073170       ?type_case_X@?$output_processor@DV?$stream_output_adapter@D@__crt_stdio_output@@V?$format_validation_base@DV?$stream_output_adapter@D@__crt_stdio_output@@@2@@__crt_stdio_output@@AAE_NXZ 10074170 f i libucrtd:output.obj
 0001:00073190       ?type_case_X@?$output_processor@DV?$stream_output_adapter@D@__crt_stdio_output@@V?$positional_parameter_base@DV?$stream_output_adapter@D@__crt_stdio_output@@@2@@__crt_stdio_output@@AAE_NXZ 10074190 f i libucrtd:output.obj
 0001:000731b0       ?type_case_X@?$output_processor@DV?$stream_output_adapter@D@__crt_stdio_output@@V?$standard_base@DV?$stream_output_adapter@D@__crt_stdio_output@@@2@@__crt_stdio_output@@AAE_NXZ 100741b0 f i libucrtd:output.obj
 0001:000731d0       ?type_case_X@?$output_processor@DV?$string_output_adapter@D@__crt_stdio_output@@V?$format_validation_base@DV?$string_output_adapter@D@__crt_stdio_output@@@2@@__crt_stdio_output@@AAE_NXZ 100741d0 f i libucrtd:output.obj
 0001:000731f0       ?type_case_X@?$output_processor@DV?$string_output_adapter@D@__crt_stdio_output@@V?$positional_parameter_base@DV?$string_output_adapter@D@__crt_stdio_output@@@2@@__crt_stdio_output@@AAE_NXZ 100741f0 f i libucrtd:output.obj
 0001:00073210       ?type_case_X@?$output_processor@DV?$string_output_adapter@D@__crt_stdio_output@@V?$standard_base@DV?$string_output_adapter@D@__crt_stdio_output@@@2@@__crt_stdio_output@@AAE_NXZ 10074210 f i libucrtd:output.obj
 0001:00073230       ?type_case_X@?$output_processor@_WV?$stream_output_adapter@_W@__crt_stdio_output@@V?$format_validation_base@_WV?$stream_output_adapter@_W@__crt_stdio_output@@@2@@__crt_stdio_output@@AAE_NXZ 10074230 f i libucrtd:output.obj
 0001:00073250       ?type_case_X@?$output_processor@_WV?$stream_output_adapter@_W@__crt_stdio_output@@V?$positional_parameter_base@_WV?$stream_output_adapter@_W@__crt_stdio_output@@@2@@__crt_stdio_output@@AAE_NXZ 10074250 f i libucrtd:output.obj
 0001:00073270       ?type_case_X@?$output_processor@_WV?$stream_output_adapter@_W@__crt_stdio_output@@V?$standard_base@_WV?$stream_output_adapter@_W@__crt_stdio_output@@@2@@__crt_stdio_output@@AAE_NXZ 10074270 f i libucrtd:output.obj
 0001:00073290       ?type_case_X@?$output_processor@_WV?$string_output_adapter@_W@__crt_stdio_output@@V?$format_validation_base@_WV?$string_output_adapter@_W@__crt_stdio_output@@@2@@__crt_stdio_output@@AAE_NXZ 10074290 f i libucrtd:output.obj
 0001:000732b0       ?type_case_X@?$output_processor@_WV?$string_output_adapter@_W@__crt_stdio_output@@V?$positional_parameter_base@_WV?$string_output_adapter@_W@__crt_stdio_output@@@2@@__crt_stdio_output@@AAE_NXZ 100742b0 f i libucrtd:output.obj
 0001:000732d0       ?type_case_X@?$output_processor@_WV?$string_output_adapter@_W@__crt_stdio_output@@V?$standard_base@_WV?$string_output_adapter@_W@__crt_stdio_output@@@2@@__crt_stdio_output@@AAE_NXZ 100742d0 f i libucrtd:output.obj
 0001:000732f0       ?type_case_Z@?$output_processor@DV?$stream_output_adapter@D@__crt_stdio_output@@V?$format_validation_base@DV?$stream_output_adapter@D@__crt_stdio_output@@@2@@__crt_stdio_output@@AAE_NXZ 100742f0 f i libucrtd:output.obj
 0001:000733e0       ?type_case_Z@?$output_processor@DV?$stream_output_adapter@D@__crt_stdio_output@@V?$positional_parameter_base@DV?$stream_output_adapter@D@__crt_stdio_output@@@2@@__crt_stdio_output@@AAE_NXZ 100743e0 f i libucrtd:output.obj
 0001:000734d0       ?type_case_Z@?$output_processor@DV?$stream_output_adapter@D@__crt_stdio_output@@V?$standard_base@DV?$stream_output_adapter@D@__crt_stdio_output@@@2@@__crt_stdio_output@@AAE_NXZ 100744d0 f i libucrtd:output.obj
 0001:000735c0       ?type_case_Z@?$output_processor@DV?$string_output_adapter@D@__crt_stdio_output@@V?$format_validation_base@DV?$string_output_adapter@D@__crt_stdio_output@@@2@@__crt_stdio_output@@AAE_NXZ 100745c0 f i libucrtd:output.obj
 0001:000736b0       ?type_case_Z@?$output_processor@DV?$string_output_adapter@D@__crt_stdio_output@@V?$positional_parameter_base@DV?$string_output_adapter@D@__crt_stdio_output@@@2@@__crt_stdio_output@@AAE_NXZ 100746b0 f i libucrtd:output.obj
 0001:000737a0       ?type_case_Z@?$output_processor@DV?$string_output_adapter@D@__crt_stdio_output@@V?$standard_base@DV?$string_output_adapter@D@__crt_stdio_output@@@2@@__crt_stdio_output@@AAE_NXZ 100747a0 f i libucrtd:output.obj
 0001:00073890       ?type_case_Z@?$output_processor@_WV?$stream_output_adapter@_W@__crt_stdio_output@@V?$format_validation_base@_WV?$stream_output_adapter@_W@__crt_stdio_output@@@2@@__crt_stdio_output@@AAE_NXZ 10074890 f i libucrtd:output.obj
 0001:00073980       ?type_case_Z@?$output_processor@_WV?$stream_output_adapter@_W@__crt_stdio_output@@V?$positional_parameter_base@_WV?$stream_output_adapter@_W@__crt_stdio_output@@@2@@__crt_stdio_output@@AAE_NXZ 10074980 f i libucrtd:output.obj
 0001:00073a70       ?type_case_Z@?$output_processor@_WV?$stream_output_adapter@_W@__crt_stdio_output@@V?$standard_base@_WV?$stream_output_adapter@_W@__crt_stdio_output@@@2@@__crt_stdio_output@@AAE_NXZ 10074a70 f i libucrtd:output.obj
 0001:00073b60       ?type_case_Z@?$output_processor@_WV?$string_output_adapter@_W@__crt_stdio_output@@V?$format_validation_base@_WV?$string_output_adapter@_W@__crt_stdio_output@@@2@@__crt_stdio_output@@AAE_NXZ 10074b60 f i libucrtd:output.obj
 0001:00073c50       ?type_case_Z@?$output_processor@_WV?$string_output_adapter@_W@__crt_stdio_output@@V?$positional_parameter_base@_WV?$string_output_adapter@_W@__crt_stdio_output@@@2@@__crt_stdio_output@@AAE_NXZ 10074c50 f i libucrtd:output.obj
 0001:00073d40       ?type_case_Z@?$output_processor@_WV?$string_output_adapter@_W@__crt_stdio_output@@V?$standard_base@_WV?$string_output_adapter@_W@__crt_stdio_output@@@2@@__crt_stdio_output@@AAE_NXZ 10074d40 f i libucrtd:output.obj
 0001:00073e30       ?type_case_a@?$output_processor@DV?$stream_output_adapter@D@__crt_stdio_output@@V?$format_validation_base@DV?$stream_output_adapter@D@__crt_stdio_output@@@2@@__crt_stdio_output@@AAE_NXZ 10074e30 f i libucrtd:output.obj
 0001:000740a0       ?type_case_a@?$output_processor@DV?$stream_output_adapter@D@__crt_stdio_output@@V?$positional_parameter_base@DV?$stream_output_adapter@D@__crt_stdio_output@@@2@@__crt_stdio_output@@AAE_NXZ 100750a0 f i libucrtd:output.obj
 0001:00074310       ?type_case_a@?$output_processor@DV?$stream_output_adapter@D@__crt_stdio_output@@V?$standard_base@DV?$stream_output_adapter@D@__crt_stdio_output@@@2@@__crt_stdio_output@@AAE_NXZ 10075310 f i libucrtd:output.obj
 0001:00074580       ?type_case_a@?$output_processor@DV?$string_output_adapter@D@__crt_stdio_output@@V?$format_validation_base@DV?$string_output_adapter@D@__crt_stdio_output@@@2@@__crt_stdio_output@@AAE_NXZ 10075580 f i libucrtd:output.obj
 0001:000747f0       ?type_case_a@?$output_processor@DV?$string_output_adapter@D@__crt_stdio_output@@V?$positional_parameter_base@DV?$string_output_adapter@D@__crt_stdio_output@@@2@@__crt_stdio_output@@AAE_NXZ 100757f0 f i libucrtd:output.obj
 0001:00074a60       ?type_case_a@?$output_processor@DV?$string_output_adapter@D@__crt_stdio_output@@V?$standard_base@DV?$string_output_adapter@D@__crt_stdio_output@@@2@@__crt_stdio_output@@AAE_NXZ 10075a60 f i libucrtd:output.obj
 0001:00074cd0       ?type_case_a@?$output_processor@_WV?$stream_output_adapter@_W@__crt_stdio_output@@V?$format_validation_base@_WV?$stream_output_adapter@_W@__crt_stdio_output@@@2@@__crt_stdio_output@@AAE_NXZ 10075cd0 f i libucrtd:output.obj
 0001:00074f40       ?type_case_a@?$output_processor@_WV?$stream_output_adapter@_W@__crt_stdio_output@@V?$positional_parameter_base@_WV?$stream_output_adapter@_W@__crt_stdio_output@@@2@@__crt_stdio_output@@AAE_NXZ 10075f40 f i libucrtd:output.obj
 0001:000751b0       ?type_case_a@?$output_processor@_WV?$stream_output_adapter@_W@__crt_stdio_output@@V?$standard_base@_WV?$stream_output_adapter@_W@__crt_stdio_output@@@2@@__crt_stdio_output@@AAE_NXZ 100761b0 f i libucrtd:output.obj
 0001:00075420       ?type_case_a@?$output_processor@_WV?$string_output_adapter@_W@__crt_stdio_output@@V?$format_validation_base@_WV?$string_output_adapter@_W@__crt_stdio_output@@@2@@__crt_stdio_output@@AAE_NXZ 10076420 f i libucrtd:output.obj
 0001:00075690       ?type_case_a@?$output_processor@_WV?$string_output_adapter@_W@__crt_stdio_output@@V?$positional_parameter_base@_WV?$string_output_adapter@_W@__crt_stdio_output@@@2@@__crt_stdio_output@@AAE_NXZ 10076690 f i libucrtd:output.obj
 0001:00075900       ?type_case_a@?$output_processor@_WV?$string_output_adapter@_W@__crt_stdio_output@@V?$standard_base@_WV?$string_output_adapter@_W@__crt_stdio_output@@@2@@__crt_stdio_output@@AAE_NXZ 10076900 f i libucrtd:output.obj
 0001:00075b70       ?type_case_c@?$output_processor@DV?$stream_output_adapter@D@__crt_stdio_output@@V?$format_validation_base@DV?$stream_output_adapter@D@__crt_stdio_output@@@2@@__crt_stdio_output@@AAE_NXZ 10076b70 f i libucrtd:output.obj
 0001:00075b90       ?type_case_c@?$output_processor@DV?$stream_output_adapter@D@__crt_stdio_output@@V?$positional_parameter_base@DV?$stream_output_adapter@D@__crt_stdio_output@@@2@@__crt_stdio_output@@AAE_NXZ 10076b90 f i libucrtd:output.obj
 0001:00075bb0       ?type_case_c@?$output_processor@DV?$stream_output_adapter@D@__crt_stdio_output@@V?$standard_base@DV?$stream_output_adapter@D@__crt_stdio_output@@@2@@__crt_stdio_output@@AAE_NXZ 10076bb0 f i libucrtd:output.obj
 0001:00075bd0       ?type_case_c@?$output_processor@DV?$string_output_adapter@D@__crt_stdio_output@@V?$format_validation_base@DV?$string_output_adapter@D@__crt_stdio_output@@@2@@__crt_stdio_output@@AAE_NXZ 10076bd0 f i libucrtd:output.obj
 0001:00075bf0       ?type_case_c@?$output_processor@DV?$string_output_adapter@D@__crt_stdio_output@@V?$positional_parameter_base@DV?$string_output_adapter@D@__crt_stdio_output@@@2@@__crt_stdio_output@@AAE_NXZ 10076bf0 f i libucrtd:output.obj
 0001:00075c10       ?type_case_c@?$output_processor@DV?$string_output_adapter@D@__crt_stdio_output@@V?$standard_base@DV?$string_output_adapter@D@__crt_stdio_output@@@2@@__crt_stdio_output@@AAE_NXZ 10076c10 f i libucrtd:output.obj
 0001:00075c30       ?type_case_c@?$output_processor@_WV?$stream_output_adapter@_W@__crt_stdio_output@@V?$format_validation_base@_WV?$stream_output_adapter@_W@__crt_stdio_output@@@2@@__crt_stdio_output@@AAE_NXZ 10076c30 f i libucrtd:output.obj
 0001:00075c50       ?type_case_c@?$output_processor@_WV?$stream_output_adapter@_W@__crt_stdio_output@@V?$positional_parameter_base@_WV?$stream_output_adapter@_W@__crt_stdio_output@@@2@@__crt_stdio_output@@AAE_NXZ 10076c50 f i libucrtd:output.obj
 0001:00075c70       ?type_case_c@?$output_processor@_WV?$stream_output_adapter@_W@__crt_stdio_output@@V?$standard_base@_WV?$stream_output_adapter@_W@__crt_stdio_output@@@2@@__crt_stdio_output@@AAE_NXZ 10076c70 f i libucrtd:output.obj
 0001:00075c90       ?type_case_c@?$output_processor@_WV?$string_output_adapter@_W@__crt_stdio_output@@V?$format_validation_base@_WV?$string_output_adapter@_W@__crt_stdio_output@@@2@@__crt_stdio_output@@AAE_NXZ 10076c90 f i libucrtd:output.obj
 0001:00075cb0       ?type_case_c@?$output_processor@_WV?$string_output_adapter@_W@__crt_stdio_output@@V?$positional_parameter_base@_WV?$string_output_adapter@_W@__crt_stdio_output@@@2@@__crt_stdio_output@@AAE_NXZ 10076cb0 f i libucrtd:output.obj
 0001:00075cd0       ?type_case_c@?$output_processor@_WV?$string_output_adapter@_W@__crt_stdio_output@@V?$standard_base@_WV?$string_output_adapter@_W@__crt_stdio_output@@@2@@__crt_stdio_output@@AAE_NXZ 10076cd0 f i libucrtd:output.obj
 0001:00075cf0       ?type_case_c_tchar@?$output_processor@DV?$stream_output_adapter@D@__crt_stdio_output@@V?$format_validation_base@DV?$stream_output_adapter@D@__crt_stdio_output@@@2@@__crt_stdio_output@@AAE_ND@Z 10076cf0 f i libucrtd:output.obj
 0001:00075e00       ?type_case_c_tchar@?$output_processor@DV?$stream_output_adapter@D@__crt_stdio_output@@V?$positional_parameter_base@DV?$stream_output_adapter@D@__crt_stdio_output@@@2@@__crt_stdio_output@@AAE_ND@Z 10076e00 f i libucrtd:output.obj
 0001:00075f10       ?type_case_c_tchar@?$output_processor@DV?$stream_output_adapter@D@__crt_stdio_output@@V?$standard_base@DV?$stream_output_adapter@D@__crt_stdio_output@@@2@@__crt_stdio_output@@AAE_ND@Z 10076f10 f i libucrtd:output.obj
 0001:00076020       ?type_case_c_tchar@?$output_processor@DV?$string_output_adapter@D@__crt_stdio_output@@V?$format_validation_base@DV?$string_output_adapter@D@__crt_stdio_output@@@2@@__crt_stdio_output@@AAE_ND@Z 10077020 f i libucrtd:output.obj
 0001:00076130       ?type_case_c_tchar@?$output_processor@DV?$string_output_adapter@D@__crt_stdio_output@@V?$positional_parameter_base@DV?$string_output_adapter@D@__crt_stdio_output@@@2@@__crt_stdio_output@@AAE_ND@Z 10077130 f i libucrtd:output.obj
 0001:00076240       ?type_case_c_tchar@?$output_processor@DV?$string_output_adapter@D@__crt_stdio_output@@V?$standard_base@DV?$string_output_adapter@D@__crt_stdio_output@@@2@@__crt_stdio_output@@AAE_ND@Z 10077240 f i libucrtd:output.obj
 0001:00076350       ?type_case_c_tchar@?$output_processor@_WV?$stream_output_adapter@_W@__crt_stdio_output@@V?$format_validation_base@_WV?$stream_output_adapter@_W@__crt_stdio_output@@@2@@__crt_stdio_output@@AAE_N_W@Z 10077350 f i libucrtd:output.obj
 0001:00076450       ?type_case_c_tchar@?$output_processor@_WV?$stream_output_adapter@_W@__crt_stdio_output@@V?$positional_parameter_base@_WV?$stream_output_adapter@_W@__crt_stdio_output@@@2@@__crt_stdio_output@@AAE_N_W@Z 10077450 f i libucrtd:output.obj
 0001:00076550       ?type_case_c_tchar@?$output_processor@_WV?$stream_output_adapter@_W@__crt_stdio_output@@V?$standard_base@_WV?$stream_output_adapter@_W@__crt_stdio_output@@@2@@__crt_stdio_output@@AAE_N_W@Z 10077550 f i libucrtd:output.obj
 0001:00076650       ?type_case_c_tchar@?$output_processor@_WV?$string_output_adapter@_W@__crt_stdio_output@@V?$format_validation_base@_WV?$string_output_adapter@_W@__crt_stdio_output@@@2@@__crt_stdio_output@@AAE_N_W@Z 10077650 f i libucrtd:output.obj
 0001:00076750       ?type_case_c_tchar@?$output_processor@_WV?$string_output_adapter@_W@__crt_stdio_output@@V?$positional_parameter_base@_WV?$string_output_adapter@_W@__crt_stdio_output@@@2@@__crt_stdio_output@@AAE_N_W@Z 10077750 f i libucrtd:output.obj
 0001:00076850       ?type_case_c_tchar@?$output_processor@_WV?$string_output_adapter@_W@__crt_stdio_output@@V?$standard_base@_WV?$string_output_adapter@_W@__crt_stdio_output@@@2@@__crt_stdio_output@@AAE_N_W@Z 10077850 f i libucrtd:output.obj
 0001:00076950       ?type_case_d@?$output_processor@DV?$stream_output_adapter@D@__crt_stdio_output@@V?$format_validation_base@DV?$stream_output_adapter@D@__crt_stdio_output@@@2@@__crt_stdio_output@@AAE_NXZ 10077950 f i libucrtd:output.obj
 0001:00076980       ?type_case_d@?$output_processor@DV?$stream_output_adapter@D@__crt_stdio_output@@V?$positional_parameter_base@DV?$stream_output_adapter@D@__crt_stdio_output@@@2@@__crt_stdio_output@@AAE_NXZ 10077980 f i libucrtd:output.obj
 0001:000769b0       ?type_case_d@?$output_processor@DV?$stream_output_adapter@D@__crt_stdio_output@@V?$standard_base@DV?$stream_output_adapter@D@__crt_stdio_output@@@2@@__crt_stdio_output@@AAE_NXZ 100779b0 f i libucrtd:output.obj
 0001:000769e0       ?type_case_d@?$output_processor@DV?$string_output_adapter@D@__crt_stdio_output@@V?$format_validation_base@DV?$string_output_adapter@D@__crt_stdio_output@@@2@@__crt_stdio_output@@AAE_NXZ 100779e0 f i libucrtd:output.obj
 0001:00076a10       ?type_case_d@?$output_processor@DV?$string_output_adapter@D@__crt_stdio_output@@V?$positional_parameter_base@DV?$string_output_adapter@D@__crt_stdio_output@@@2@@__crt_stdio_output@@AAE_NXZ 10077a10 f i libucrtd:output.obj
 0001:00076a40       ?type_case_d@?$output_processor@DV?$string_output_adapter@D@__crt_stdio_output@@V?$standard_base@DV?$string_output_adapter@D@__crt_stdio_output@@@2@@__crt_stdio_output@@AAE_NXZ 10077a40 f i libucrtd:output.obj
 0001:00076a70       ?type_case_d@?$output_processor@_WV?$stream_output_adapter@_W@__crt_stdio_output@@V?$format_validation_base@_WV?$stream_output_adapter@_W@__crt_stdio_output@@@2@@__crt_stdio_output@@AAE_NXZ 10077a70 f i libucrtd:output.obj
 0001:00076aa0       ?type_case_d@?$output_processor@_WV?$stream_output_adapter@_W@__crt_stdio_output@@V?$positional_parameter_base@_WV?$stream_output_adapter@_W@__crt_stdio_output@@@2@@__crt_stdio_output@@AAE_NXZ 10077aa0 f i libucrtd:output.obj
 0001:00076ad0       ?type_case_d@?$output_processor@_WV?$stream_output_adapter@_W@__crt_stdio_output@@V?$standard_base@_WV?$stream_output_adapter@_W@__crt_stdio_output@@@2@@__crt_stdio_output@@AAE_NXZ 10077ad0 f i libucrtd:output.obj
 0001:00076b00       ?type_case_d@?$output_processor@_WV?$string_output_adapter@_W@__crt_stdio_output@@V?$format_validation_base@_WV?$string_output_adapter@_W@__crt_stdio_output@@@2@@__crt_stdio_output@@AAE_NXZ 10077b00 f i libucrtd:output.obj
 0001:00076b30       ?type_case_d@?$output_processor@_WV?$string_output_adapter@_W@__crt_stdio_output@@V?$positional_parameter_base@_WV?$string_output_adapter@_W@__crt_stdio_output@@@2@@__crt_stdio_output@@AAE_NXZ 10077b30 f i libucrtd:output.obj
 0001:00076b60       ?type_case_d@?$output_processor@_WV?$string_output_adapter@_W@__crt_stdio_output@@V?$standard_base@_WV?$string_output_adapter@_W@__crt_stdio_output@@@2@@__crt_stdio_output@@AAE_NXZ 10077b60 f i libucrtd:output.obj
 0001:00076b90       ?type_case_integer@?$output_processor@DV?$stream_output_adapter@D@__crt_stdio_output@@V?$format_validation_base@DV?$stream_output_adapter@D@__crt_stdio_output@@@2@@__crt_stdio_output@@AAE_NI_N@Z 10077b90 f i libucrtd:output.obj
 0001:00076ee0       ?type_case_integer@?$output_processor@DV?$stream_output_adapter@D@__crt_stdio_output@@V?$positional_parameter_base@DV?$stream_output_adapter@D@__crt_stdio_output@@@2@@__crt_stdio_output@@AAE_NI_N@Z 10077ee0 f i libucrtd:output.obj
 0001:00077230       ?type_case_integer@?$output_processor@DV?$stream_output_adapter@D@__crt_stdio_output@@V?$standard_base@DV?$stream_output_adapter@D@__crt_stdio_output@@@2@@__crt_stdio_output@@AAE_NI_N@Z 10078230 f i libucrtd:output.obj
 0001:00077580       ?type_case_integer@?$output_processor@DV?$string_output_adapter@D@__crt_stdio_output@@V?$format_validation_base@DV?$string_output_adapter@D@__crt_stdio_output@@@2@@__crt_stdio_output@@AAE_NI_N@Z 10078580 f i libucrtd:output.obj
 0001:000778d0       ?type_case_integer@?$output_processor@DV?$string_output_adapter@D@__crt_stdio_output@@V?$positional_parameter_base@DV?$string_output_adapter@D@__crt_stdio_output@@@2@@__crt_stdio_output@@AAE_NI_N@Z 100788d0 f i libucrtd:output.obj
 0001:00077c20       ?type_case_integer@?$output_processor@DV?$string_output_adapter@D@__crt_stdio_output@@V?$standard_base@DV?$string_output_adapter@D@__crt_stdio_output@@@2@@__crt_stdio_output@@AAE_NI_N@Z 10078c20 f i libucrtd:output.obj
 0001:00077f70       ?type_case_integer@?$output_processor@_WV?$stream_output_adapter@_W@__crt_stdio_output@@V?$format_validation_base@_WV?$stream_output_adapter@_W@__crt_stdio_output@@@2@@__crt_stdio_output@@AAE_NI_N@Z 10078f70 f i libucrtd:output.obj
 0001:000782c0       ?type_case_integer@?$output_processor@_WV?$stream_output_adapter@_W@__crt_stdio_output@@V?$positional_parameter_base@_WV?$stream_output_adapter@_W@__crt_stdio_output@@@2@@__crt_stdio_output@@AAE_NI_N@Z 100792c0 f i libucrtd:output.obj
 0001:00078610       ?type_case_integer@?$output_processor@_WV?$stream_output_adapter@_W@__crt_stdio_output@@V?$standard_base@_WV?$stream_output_adapter@_W@__crt_stdio_output@@@2@@__crt_stdio_output@@AAE_NI_N@Z 10079610 f i libucrtd:output.obj
 0001:00078960       ?type_case_integer@?$output_processor@_WV?$string_output_adapter@_W@__crt_stdio_output@@V?$format_validation_base@_WV?$string_output_adapter@_W@__crt_stdio_output@@@2@@__crt_stdio_output@@AAE_NI_N@Z 10079960 f i libucrtd:output.obj
 0001:00078cb0       ?type_case_integer@?$output_processor@_WV?$string_output_adapter@_W@__crt_stdio_output@@V?$positional_parameter_base@_WV?$string_output_adapter@_W@__crt_stdio_output@@@2@@__crt_stdio_output@@AAE_NI_N@Z 10079cb0 f i libucrtd:output.obj
 0001:00079000       ?type_case_integer@?$output_processor@_WV?$string_output_adapter@_W@__crt_stdio_output@@V?$standard_base@_WV?$string_output_adapter@_W@__crt_stdio_output@@@2@@__crt_stdio_output@@AAE_NI_N@Z 1007a000 f i libucrtd:output.obj
 0001:00079350       ?type_case_n@?$output_processor@DV?$stream_output_adapter@D@__crt_stdio_output@@V?$format_validation_base@DV?$stream_output_adapter@D@__crt_stdio_output@@@2@@__crt_stdio_output@@AAE_NXZ 1007a350 f i libucrtd:output.obj
 0001:00079540       ?type_case_n@?$output_processor@DV?$stream_output_adapter@D@__crt_stdio_output@@V?$positional_parameter_base@DV?$stream_output_adapter@D@__crt_stdio_output@@@2@@__crt_stdio_output@@AAE_NXZ 1007a540 f i libucrtd:output.obj
 0001:00079730       ?type_case_n@?$output_processor@DV?$stream_output_adapter@D@__crt_stdio_output@@V?$standard_base@DV?$stream_output_adapter@D@__crt_stdio_output@@@2@@__crt_stdio_output@@AAE_NXZ 1007a730 f i libucrtd:output.obj
 0001:00079920       ?type_case_n@?$output_processor@DV?$string_output_adapter@D@__crt_stdio_output@@V?$format_validation_base@DV?$string_output_adapter@D@__crt_stdio_output@@@2@@__crt_stdio_output@@AAE_NXZ 1007a920 f i libucrtd:output.obj
 0001:00079b10       ?type_case_n@?$output_processor@DV?$string_output_adapter@D@__crt_stdio_output@@V?$positional_parameter_base@DV?$string_output_adapter@D@__crt_stdio_output@@@2@@__crt_stdio_output@@AAE_NXZ 1007ab10 f i libucrtd:output.obj
 0001:00079d00       ?type_case_n@?$output_processor@DV?$string_output_adapter@D@__crt_stdio_output@@V?$standard_base@DV?$string_output_adapter@D@__crt_stdio_output@@@2@@__crt_stdio_output@@AAE_NXZ 1007ad00 f i libucrtd:output.obj
 0001:00079ef0       ?type_case_n@?$output_processor@_WV?$stream_output_adapter@_W@__crt_stdio_output@@V?$format_validation_base@_WV?$stream_output_adapter@_W@__crt_stdio_output@@@2@@__crt_stdio_output@@AAE_NXZ 1007aef0 f i libucrtd:output.obj
 0001:0007a0e0       ?type_case_n@?$output_processor@_WV?$stream_output_adapter@_W@__crt_stdio_output@@V?$positional_parameter_base@_WV?$stream_output_adapter@_W@__crt_stdio_output@@@2@@__crt_stdio_output@@AAE_NXZ 1007b0e0 f i libucrtd:output.obj
 0001:0007a2d0       ?type_case_n@?$output_processor@_WV?$stream_output_adapter@_W@__crt_stdio_output@@V?$standard_base@_WV?$stream_output_adapter@_W@__crt_stdio_output@@@2@@__crt_stdio_output@@AAE_NXZ 1007b2d0 f i libucrtd:output.obj
 0001:0007a4c0       ?type_case_n@?$output_processor@_WV?$string_output_adapter@_W@__crt_stdio_output@@V?$format_validation_base@_WV?$string_output_adapter@_W@__crt_stdio_output@@@2@@__crt_stdio_output@@AAE_NXZ 1007b4c0 f i libucrtd:output.obj
 0001:0007a6b0       ?type_case_n@?$output_processor@_WV?$string_output_adapter@_W@__crt_stdio_output@@V?$positional_parameter_base@_WV?$string_output_adapter@_W@__crt_stdio_output@@@2@@__crt_stdio_output@@AAE_NXZ 1007b6b0 f i libucrtd:output.obj
 0001:0007a8a0       ?type_case_n@?$output_processor@_WV?$string_output_adapter@_W@__crt_stdio_output@@V?$standard_base@_WV?$string_output_adapter@_W@__crt_stdio_output@@@2@@__crt_stdio_output@@AAE_NXZ 1007b8a0 f i libucrtd:output.obj
 0001:0007aa90       ?type_case_o@?$output_processor@DV?$stream_output_adapter@D@__crt_stdio_output@@V?$format_validation_base@DV?$stream_output_adapter@D@__crt_stdio_output@@@2@@__crt_stdio_output@@AAE_NXZ 1007ba90 f i libucrtd:output.obj
 0001:0007aad0       ?type_case_o@?$output_processor@DV?$stream_output_adapter@D@__crt_stdio_output@@V?$positional_parameter_base@DV?$stream_output_adapter@D@__crt_stdio_output@@@2@@__crt_stdio_output@@AAE_NXZ 1007bad0 f i libucrtd:output.obj
 0001:0007ab10       ?type_case_o@?$output_processor@DV?$stream_output_adapter@D@__crt_stdio_output@@V?$standard_base@DV?$stream_output_adapter@D@__crt_stdio_output@@@2@@__crt_stdio_output@@AAE_NXZ 1007bb10 f i libucrtd:output.obj
 0001:0007ab50       ?type_case_o@?$output_processor@DV?$string_output_adapter@D@__crt_stdio_output@@V?$format_validation_base@DV?$string_output_adapter@D@__crt_stdio_output@@@2@@__crt_stdio_output@@AAE_NXZ 1007bb50 f i libucrtd:output.obj
 0001:0007ab90       ?type_case_o@?$output_processor@DV?$string_output_adapter@D@__crt_stdio_output@@V?$positional_parameter_base@DV?$string_output_adapter@D@__crt_stdio_output@@@2@@__crt_stdio_output@@AAE_NXZ 1007bb90 f i libucrtd:output.obj
 0001:0007abd0       ?type_case_o@?$output_processor@DV?$string_output_adapter@D@__crt_stdio_output@@V?$standard_base@DV?$string_output_adapter@D@__crt_stdio_output@@@2@@__crt_stdio_output@@AAE_NXZ 1007bbd0 f i libucrtd:output.obj
 0001:0007ac10       ?type_case_o@?$output_processor@_WV?$stream_output_adapter@_W@__crt_stdio_output@@V?$format_validation_base@_WV?$stream_output_adapter@_W@__crt_stdio_output@@@2@@__crt_stdio_output@@AAE_NXZ 1007bc10 f i libucrtd:output.obj
 0001:0007ac50       ?type_case_o@?$output_processor@_WV?$stream_output_adapter@_W@__crt_stdio_output@@V?$positional_parameter_base@_WV?$stream_output_adapter@_W@__crt_stdio_output@@@2@@__crt_stdio_output@@AAE_NXZ 1007bc50 f i libucrtd:output.obj
 0001:0007ac90       ?type_case_o@?$output_processor@_WV?$stream_output_adapter@_W@__crt_stdio_output@@V?$standard_base@_WV?$stream_output_adapter@_W@__crt_stdio_output@@@2@@__crt_stdio_output@@AAE_NXZ 1007bc90 f i libucrtd:output.obj
 0001:0007acd0       ?type_case_o@?$output_processor@_WV?$string_output_adapter@_W@__crt_stdio_output@@V?$format_validation_base@_WV?$string_output_adapter@_W@__crt_stdio_output@@@2@@__crt_stdio_output@@AAE_NXZ 1007bcd0 f i libucrtd:output.obj
 0001:0007ad10       ?type_case_o@?$output_processor@_WV?$string_output_adapter@_W@__crt_stdio_output@@V?$positional_parameter_base@_WV?$string_output_adapter@_W@__crt_stdio_output@@@2@@__crt_stdio_output@@AAE_NXZ 1007bd10 f i libucrtd:output.obj
 0001:0007ad50       ?type_case_o@?$output_processor@_WV?$string_output_adapter@_W@__crt_stdio_output@@V?$standard_base@_WV?$string_output_adapter@_W@__crt_stdio_output@@@2@@__crt_stdio_output@@AAE_NXZ 1007bd50 f i libucrtd:output.obj
 0001:0007ad90       ?type_case_p@?$output_processor@DV?$stream_output_adapter@D@__crt_stdio_output@@V?$format_validation_base@DV?$stream_output_adapter@D@__crt_stdio_output@@@2@@__crt_stdio_output@@AAE_NXZ 1007bd90 f i libucrtd:output.obj
 0001:0007adc0       ?type_case_p@?$output_processor@DV?$stream_output_adapter@D@__crt_stdio_output@@V?$positional_parameter_base@DV?$stream_output_adapter@D@__crt_stdio_output@@@2@@__crt_stdio_output@@AAE_NXZ 1007bdc0 f i libucrtd:output.obj
 0001:0007adf0       ?type_case_p@?$output_processor@DV?$stream_output_adapter@D@__crt_stdio_output@@V?$standard_base@DV?$stream_output_adapter@D@__crt_stdio_output@@@2@@__crt_stdio_output@@AAE_NXZ 1007bdf0 f i libucrtd:output.obj
 0001:0007ae20       ?type_case_p@?$output_processor@DV?$string_output_adapter@D@__crt_stdio_output@@V?$format_validation_base@DV?$string_output_adapter@D@__crt_stdio_output@@@2@@__crt_stdio_output@@AAE_NXZ 1007be20 f i libucrtd:output.obj
 0001:0007ae50       ?type_case_p@?$output_processor@DV?$string_output_adapter@D@__crt_stdio_output@@V?$positional_parameter_base@DV?$string_output_adapter@D@__crt_stdio_output@@@2@@__crt_stdio_output@@AAE_NXZ 1007be50 f i libucrtd:output.obj
 0001:0007ae80       ?type_case_p@?$output_processor@DV?$string_output_adapter@D@__crt_stdio_output@@V?$standard_base@DV?$string_output_adapter@D@__crt_stdio_output@@@2@@__crt_stdio_output@@AAE_NXZ 1007be80 f i libucrtd:output.obj
 0001:0007aeb0       ?type_case_p@?$output_processor@_WV?$stream_output_adapter@_W@__crt_stdio_output@@V?$format_validation_base@_WV?$stream_output_adapter@_W@__crt_stdio_output@@@2@@__crt_stdio_output@@AAE_NXZ 1007beb0 f i libucrtd:output.obj
 0001:0007aee0       ?type_case_p@?$output_processor@_WV?$stream_output_adapter@_W@__crt_stdio_output@@V?$positional_parameter_base@_WV?$stream_output_adapter@_W@__crt_stdio_output@@@2@@__crt_stdio_output@@AAE_NXZ 1007bee0 f i libucrtd:output.obj
 0001:0007af10       ?type_case_p@?$output_processor@_WV?$stream_output_adapter@_W@__crt_stdio_output@@V?$standard_base@_WV?$stream_output_adapter@_W@__crt_stdio_output@@@2@@__crt_stdio_output@@AAE_NXZ 1007bf10 f i libucrtd:output.obj
 0001:0007af40       ?type_case_p@?$output_processor@_WV?$string_output_adapter@_W@__crt_stdio_output@@V?$format_validation_base@_WV?$string_output_adapter@_W@__crt_stdio_output@@@2@@__crt_stdio_output@@AAE_NXZ 1007bf40 f i libucrtd:output.obj
 0001:0007af70       ?type_case_p@?$output_processor@_WV?$string_output_adapter@_W@__crt_stdio_output@@V?$positional_parameter_base@_WV?$string_output_adapter@_W@__crt_stdio_output@@@2@@__crt_stdio_output@@AAE_NXZ 1007bf70 f i libucrtd:output.obj
 0001:0007afa0       ?type_case_p@?$output_processor@_WV?$string_output_adapter@_W@__crt_stdio_output@@V?$standard_base@_WV?$string_output_adapter@_W@__crt_stdio_output@@@2@@__crt_stdio_output@@AAE_NXZ 1007bfa0 f i libucrtd:output.obj
 0001:0007afd0       ?type_case_s@?$output_processor@DV?$stream_output_adapter@D@__crt_stdio_output@@V?$format_validation_base@DV?$stream_output_adapter@D@__crt_stdio_output@@@2@@__crt_stdio_output@@AAE_NXZ 1007bfd0 f i libucrtd:output.obj
 0001:0007b0c0       ?type_case_s@?$output_processor@DV?$stream_output_adapter@D@__crt_stdio_output@@V?$positional_parameter_base@DV?$stream_output_adapter@D@__crt_stdio_output@@@2@@__crt_stdio_output@@AAE_NXZ 1007c0c0 f i libucrtd:output.obj
 0001:0007b1b0       ?type_case_s@?$output_processor@DV?$stream_output_adapter@D@__crt_stdio_output@@V?$standard_base@DV?$stream_output_adapter@D@__crt_stdio_output@@@2@@__crt_stdio_output@@AAE_NXZ 1007c1b0 f i libucrtd:output.obj
 0001:0007b2a0       ?type_case_s@?$output_processor@DV?$string_output_adapter@D@__crt_stdio_output@@V?$format_validation_base@DV?$string_output_adapter@D@__crt_stdio_output@@@2@@__crt_stdio_output@@AAE_NXZ 1007c2a0 f i libucrtd:output.obj
 0001:0007b390       ?type_case_s@?$output_processor@DV?$string_output_adapter@D@__crt_stdio_output@@V?$positional_parameter_base@DV?$string_output_adapter@D@__crt_stdio_output@@@2@@__crt_stdio_output@@AAE_NXZ 1007c390 f i libucrtd:output.obj
 0001:0007b480       ?type_case_s@?$output_processor@DV?$string_output_adapter@D@__crt_stdio_output@@V?$standard_base@DV?$string_output_adapter@D@__crt_stdio_output@@@2@@__crt_stdio_output@@AAE_NXZ 1007c480 f i libucrtd:output.obj
 0001:0007b570       ?type_case_s@?$output_processor@_WV?$stream_output_adapter@_W@__crt_stdio_output@@V?$format_validation_base@_WV?$stream_output_adapter@_W@__crt_stdio_output@@@2@@__crt_stdio_output@@AAE_NXZ 1007c570 f i libucrtd:output.obj
 0001:0007b660       ?type_case_s@?$output_processor@_WV?$stream_output_adapter@_W@__crt_stdio_output@@V?$positional_parameter_base@_WV?$stream_output_adapter@_W@__crt_stdio_output@@@2@@__crt_stdio_output@@AAE_NXZ 1007c660 f i libucrtd:output.obj
 0001:0007b750       ?type_case_s@?$output_processor@_WV?$stream_output_adapter@_W@__crt_stdio_output@@V?$standard_base@_WV?$stream_output_adapter@_W@__crt_stdio_output@@@2@@__crt_stdio_output@@AAE_NXZ 1007c750 f i libucrtd:output.obj
 0001:0007b840       ?type_case_s@?$output_processor@_WV?$string_output_adapter@_W@__crt_stdio_output@@V?$format_validation_base@_WV?$string_output_adapter@_W@__crt_stdio_output@@@2@@__crt_stdio_output@@AAE_NXZ 1007c840 f i libucrtd:output.obj
 0001:0007b930       ?type_case_s@?$output_processor@_WV?$string_output_adapter@_W@__crt_stdio_output@@V?$positional_parameter_base@_WV?$string_output_adapter@_W@__crt_stdio_output@@@2@@__crt_stdio_output@@AAE_NXZ 1007c930 f i libucrtd:output.obj
 0001:0007ba20       ?type_case_s@?$output_processor@_WV?$string_output_adapter@_W@__crt_stdio_output@@V?$standard_base@_WV?$string_output_adapter@_W@__crt_stdio_output@@@2@@__crt_stdio_output@@AAE_NXZ 1007ca20 f i libucrtd:output.obj
 0001:0007bb10       ?type_case_s_compute_narrow_string_length@?$output_processor@DV?$stream_output_adapter@D@__crt_stdio_output@@V?$format_validation_base@DV?$stream_output_adapter@D@__crt_stdio_output@@@2@@__crt_stdio_output@@ABEHHD@Z 1007cb10 f i libucrtd:output.obj
 0001:0007bb40       ?type_case_s_compute_narrow_string_length@?$output_processor@DV?$stream_output_adapter@D@__crt_stdio_output@@V?$positional_parameter_base@DV?$stream_output_adapter@D@__crt_stdio_output@@@2@@__crt_stdio_output@@ABEHHD@Z 1007cb40 f i libucrtd:output.obj
 0001:0007bb70       ?type_case_s_compute_narrow_string_length@?$output_processor@DV?$stream_output_adapter@D@__crt_stdio_output@@V?$standard_base@DV?$stream_output_adapter@D@__crt_stdio_output@@@2@@__crt_stdio_output@@ABEHHD@Z 1007cb70 f i libucrtd:output.obj
 0001:0007bba0       ?type_case_s_compute_narrow_string_length@?$output_processor@DV?$string_output_adapter@D@__crt_stdio_output@@V?$format_validation_base@DV?$string_output_adapter@D@__crt_stdio_output@@@2@@__crt_stdio_output@@ABEHHD@Z 1007cba0 f i libucrtd:output.obj
 0001:0007bbd0       ?type_case_s_compute_narrow_string_length@?$output_processor@DV?$string_output_adapter@D@__crt_stdio_output@@V?$positional_parameter_base@DV?$string_output_adapter@D@__crt_stdio_output@@@2@@__crt_stdio_output@@ABEHHD@Z 1007cbd0 f i libucrtd:output.obj
 0001:0007bc00       ?type_case_s_compute_narrow_string_length@?$output_processor@DV?$string_output_adapter@D@__crt_stdio_output@@V?$standard_base@DV?$string_output_adapter@D@__crt_stdio_output@@@2@@__crt_stdio_output@@ABEHHD@Z 1007cc00 f i libucrtd:output.obj
 0001:0007bc30       ?type_case_s_compute_narrow_string_length@?$output_processor@_WV?$stream_output_adapter@_W@__crt_stdio_output@@V?$format_validation_base@_WV?$stream_output_adapter@_W@__crt_stdio_output@@@2@@__crt_stdio_output@@ABEHH_W@Z 1007cc30 f i libucrtd:output.obj
 0001:0007bca0       ?type_case_s_compute_narrow_string_length@?$output_processor@_WV?$stream_output_adapter@_W@__crt_stdio_output@@V?$positional_parameter_base@_WV?$stream_output_adapter@_W@__crt_stdio_output@@@2@@__crt_stdio_output@@ABEHH_W@Z 1007cca0 f i libucrtd:output.obj
 0001:0007bd10       ?type_case_s_compute_narrow_string_length@?$output_processor@_WV?$stream_output_adapter@_W@__crt_stdio_output@@V?$standard_base@_WV?$stream_output_adapter@_W@__crt_stdio_output@@@2@@__crt_stdio_output@@ABEHH_W@Z 1007cd10 f i libucrtd:output.obj
 0001:0007bd80       ?type_case_s_compute_narrow_string_length@?$output_processor@_WV?$string_output_adapter@_W@__crt_stdio_output@@V?$format_validation_base@_WV?$string_output_adapter@_W@__crt_stdio_output@@@2@@__crt_stdio_output@@ABEHH_W@Z 1007cd80 f i libucrtd:output.obj
 0001:0007bdf0       ?type_case_s_compute_narrow_string_length@?$output_processor@_WV?$string_output_adapter@_W@__crt_stdio_output@@V?$positional_parameter_base@_WV?$string_output_adapter@_W@__crt_stdio_output@@@2@@__crt_stdio_output@@ABEHH_W@Z 1007cdf0 f i libucrtd:output.obj
 0001:0007be60       ?type_case_s_compute_narrow_string_length@?$output_processor@_WV?$string_output_adapter@_W@__crt_stdio_output@@V?$standard_base@_WV?$string_output_adapter@_W@__crt_stdio_output@@@2@@__crt_stdio_output@@ABEHH_W@Z 1007ce60 f i libucrtd:output.obj
 0001:0007bed0       ?type_case_u@?$output_processor@DV?$stream_output_adapter@D@__crt_stdio_output@@V?$format_validation_base@DV?$stream_output_adapter@D@__crt_stdio_output@@@2@@__crt_stdio_output@@AAE_NXZ 1007ced0 f i libucrtd:output.obj
 0001:0007bef0       ?type_case_u@?$output_processor@DV?$stream_output_adapter@D@__crt_stdio_output@@V?$positional_parameter_base@DV?$stream_output_adapter@D@__crt_stdio_output@@@2@@__crt_stdio_output@@AAE_NXZ 1007cef0 f i libucrtd:output.obj
 0001:0007bf10       ?type_case_u@?$output_processor@DV?$stream_output_adapter@D@__crt_stdio_output@@V?$standard_base@DV?$stream_output_adapter@D@__crt_stdio_output@@@2@@__crt_stdio_output@@AAE_NXZ 1007cf10 f i libucrtd:output.obj
 0001:0007bf30       ?type_case_u@?$output_processor@DV?$string_output_adapter@D@__crt_stdio_output@@V?$format_validation_base@DV?$string_output_adapter@D@__crt_stdio_output@@@2@@__crt_stdio_output@@AAE_NXZ 1007cf30 f i libucrtd:output.obj
 0001:0007bf50       ?type_case_u@?$output_processor@DV?$string_output_adapter@D@__crt_stdio_output@@V?$positional_parameter_base@DV?$string_output_adapter@D@__crt_stdio_output@@@2@@__crt_stdio_output@@AAE_NXZ 1007cf50 f i libucrtd:output.obj
 0001:0007bf70       ?type_case_u@?$output_processor@DV?$string_output_adapter@D@__crt_stdio_output@@V?$standard_base@DV?$string_output_adapter@D@__crt_stdio_output@@@2@@__crt_stdio_output@@AAE_NXZ 1007cf70 f i libucrtd:output.obj
 0001:0007bf90       ?type_case_u@?$output_processor@_WV?$stream_output_adapter@_W@__crt_stdio_output@@V?$format_validation_base@_WV?$stream_output_adapter@_W@__crt_stdio_output@@@2@@__crt_stdio_output@@AAE_NXZ 1007cf90 f i libucrtd:output.obj
 0001:0007bfb0       ?type_case_u@?$output_processor@_WV?$stream_output_adapter@_W@__crt_stdio_output@@V?$positional_parameter_base@_WV?$stream_output_adapter@_W@__crt_stdio_output@@@2@@__crt_stdio_output@@AAE_NXZ 1007cfb0 f i libucrtd:output.obj
 0001:0007bfd0       ?type_case_u@?$output_processor@_WV?$stream_output_adapter@_W@__crt_stdio_output@@V?$standard_base@_WV?$stream_output_adapter@_W@__crt_stdio_output@@@2@@__crt_stdio_output@@AAE_NXZ 1007cfd0 f i libucrtd:output.obj
 0001:0007bff0       ?type_case_u@?$output_processor@_WV?$string_output_adapter@_W@__crt_stdio_output@@V?$format_validation_base@_WV?$string_output_adapter@_W@__crt_stdio_output@@@2@@__crt_stdio_output@@AAE_NXZ 1007cff0 f i libucrtd:output.obj
 0001:0007c010       ?type_case_u@?$output_processor@_WV?$string_output_adapter@_W@__crt_stdio_output@@V?$positional_parameter_base@_WV?$string_output_adapter@_W@__crt_stdio_output@@@2@@__crt_stdio_output@@AAE_NXZ 1007d010 f i libucrtd:output.obj
 0001:0007c030       ?type_case_u@?$output_processor@_WV?$string_output_adapter@_W@__crt_stdio_output@@V?$standard_base@_WV?$string_output_adapter@_W@__crt_stdio_output@@@2@@__crt_stdio_output@@AAE_NXZ 1007d030 f i libucrtd:output.obj
 0001:0007c050       ?type_case_x@?$output_processor@DV?$stream_output_adapter@D@__crt_stdio_output@@V?$format_validation_base@DV?$stream_output_adapter@D@__crt_stdio_output@@@2@@__crt_stdio_output@@AAE_NXZ 1007d050 f i libucrtd:output.obj
 0001:0007c070       ?type_case_x@?$output_processor@DV?$stream_output_adapter@D@__crt_stdio_output@@V?$positional_parameter_base@DV?$stream_output_adapter@D@__crt_stdio_output@@@2@@__crt_stdio_output@@AAE_NXZ 1007d070 f i libucrtd:output.obj
 0001:0007c090       ?type_case_x@?$output_processor@DV?$stream_output_adapter@D@__crt_stdio_output@@V?$standard_base@DV?$stream_output_adapter@D@__crt_stdio_output@@@2@@__crt_stdio_output@@AAE_NXZ 1007d090 f i libucrtd:output.obj
 0001:0007c0b0       ?type_case_x@?$output_processor@DV?$string_output_adapter@D@__crt_stdio_output@@V?$format_validation_base@DV?$string_output_adapter@D@__crt_stdio_output@@@2@@__crt_stdio_output@@AAE_NXZ 1007d0b0 f i libucrtd:output.obj
 0001:0007c0d0       ?type_case_x@?$output_processor@DV?$string_output_adapter@D@__crt_stdio_output@@V?$positional_parameter_base@DV?$string_output_adapter@D@__crt_stdio_output@@@2@@__crt_stdio_output@@AAE_NXZ 1007d0d0 f i libucrtd:output.obj
 0001:0007c0f0       ?type_case_x@?$output_processor@DV?$string_output_adapter@D@__crt_stdio_output@@V?$standard_base@DV?$string_output_adapter@D@__crt_stdio_output@@@2@@__crt_stdio_output@@AAE_NXZ 1007d0f0 f i libucrtd:output.obj
 0001:0007c110       ?type_case_x@?$output_processor@_WV?$stream_output_adapter@_W@__crt_stdio_output@@V?$format_validation_base@_WV?$stream_output_adapter@_W@__crt_stdio_output@@@2@@__crt_stdio_output@@AAE_NXZ 1007d110 f i libucrtd:output.obj
 0001:0007c130       ?type_case_x@?$output_processor@_WV?$stream_output_adapter@_W@__crt_stdio_output@@V?$positional_parameter_base@_WV?$stream_output_adapter@_W@__crt_stdio_output@@@2@@__crt_stdio_output@@AAE_NXZ 1007d130 f i libucrtd:output.obj
 0001:0007c150       ?type_case_x@?$output_processor@_WV?$stream_output_adapter@_W@__crt_stdio_output@@V?$standard_base@_WV?$stream_output_adapter@_W@__crt_stdio_output@@@2@@__crt_stdio_output@@AAE_NXZ 1007d150 f i libucrtd:output.obj
 0001:0007c170       ?type_case_x@?$output_processor@_WV?$string_output_adapter@_W@__crt_stdio_output@@V?$format_validation_base@_WV?$string_output_adapter@_W@__crt_stdio_output@@@2@@__crt_stdio_output@@AAE_NXZ 1007d170 f i libucrtd:output.obj
 0001:0007c190       ?type_case_x@?$output_processor@_WV?$string_output_adapter@_W@__crt_stdio_output@@V?$positional_parameter_base@_WV?$string_output_adapter@_W@__crt_stdio_output@@@2@@__crt_stdio_output@@AAE_NXZ 1007d190 f i libucrtd:output.obj
 0001:0007c1b0       ?type_case_x@?$output_processor@_WV?$string_output_adapter@_W@__crt_stdio_output@@V?$standard_base@_WV?$string_output_adapter@_W@__crt_stdio_output@@@2@@__crt_stdio_output@@AAE_NXZ 1007d1b0 f i libucrtd:output.obj
 0001:0007c1d0       ?unset_flag@?$output_processor@DV?$stream_output_adapter@D@__crt_stdio_output@@V?$format_validation_base@DV?$stream_output_adapter@D@__crt_stdio_output@@@2@@__crt_stdio_output@@AAEXI@Z 1007d1d0 f i libucrtd:output.obj
 0001:0007c1f0       ?unset_flag@?$output_processor@DV?$stream_output_adapter@D@__crt_stdio_output@@V?$positional_parameter_base@DV?$stream_output_adapter@D@__crt_stdio_output@@@2@@__crt_stdio_output@@AAEXI@Z 1007d1f0 f i libucrtd:output.obj
 0001:0007c210       ?unset_flag@?$output_processor@DV?$stream_output_adapter@D@__crt_stdio_output@@V?$standard_base@DV?$stream_output_adapter@D@__crt_stdio_output@@@2@@__crt_stdio_output@@AAEXI@Z 1007d210 f i libucrtd:output.obj
 0001:0007c230       ?unset_flag@?$output_processor@DV?$string_output_adapter@D@__crt_stdio_output@@V?$format_validation_base@DV?$string_output_adapter@D@__crt_stdio_output@@@2@@__crt_stdio_output@@AAEXI@Z 1007d230 f i libucrtd:output.obj
 0001:0007c250       ?unset_flag@?$output_processor@DV?$string_output_adapter@D@__crt_stdio_output@@V?$positional_parameter_base@DV?$string_output_adapter@D@__crt_stdio_output@@@2@@__crt_stdio_output@@AAEXI@Z 1007d250 f i libucrtd:output.obj
 0001:0007c270       ?unset_flag@?$output_processor@DV?$string_output_adapter@D@__crt_stdio_output@@V?$standard_base@DV?$string_output_adapter@D@__crt_stdio_output@@@2@@__crt_stdio_output@@AAEXI@Z 1007d270 f i libucrtd:output.obj
 0001:0007c290       ?unset_flag@?$output_processor@_WV?$stream_output_adapter@_W@__crt_stdio_output@@V?$format_validation_base@_WV?$stream_output_adapter@_W@__crt_stdio_output@@@2@@__crt_stdio_output@@AAEXI@Z 1007d290 f i libucrtd:output.obj
 0001:0007c2b0       ?unset_flag@?$output_processor@_WV?$stream_output_adapter@_W@__crt_stdio_output@@V?$positional_parameter_base@_WV?$stream_output_adapter@_W@__crt_stdio_output@@@2@@__crt_stdio_output@@AAEXI@Z 1007d2b0 f i libucrtd:output.obj
 0001:0007c2d0       ?unset_flag@?$output_processor@_WV?$stream_output_adapter@_W@__crt_stdio_output@@V?$standard_base@_WV?$stream_output_adapter@_W@__crt_stdio_output@@@2@@__crt_stdio_output@@AAEXI@Z 1007d2d0 f i libucrtd:output.obj
 0001:0007c2f0       ?unset_flag@?$output_processor@_WV?$string_output_adapter@_W@__crt_stdio_output@@V?$format_validation_base@_WV?$string_output_adapter@_W@__crt_stdio_output@@@2@@__crt_stdio_output@@AAEXI@Z 1007d2f0 f i libucrtd:output.obj
 0001:0007c310       ?unset_flag@?$output_processor@_WV?$string_output_adapter@_W@__crt_stdio_output@@V?$positional_parameter_base@_WV?$string_output_adapter@_W@__crt_stdio_output@@@2@@__crt_stdio_output@@AAEXI@Z 1007d310 f i libucrtd:output.obj
 0001:0007c330       ?unset_flag@?$output_processor@_WV?$string_output_adapter@_W@__crt_stdio_output@@V?$standard_base@_WV?$string_output_adapter@_W@__crt_stdio_output@@@2@@__crt_stdio_output@@AAEXI@Z 1007d330 f i libucrtd:output.obj
 0001:0007c350       ?update_field_width@?$positional_parameter_base@DV?$stream_output_adapter@D@__crt_stdio_output@@@__crt_stdio_output@@IAE_NXZ 1007d350 f i libucrtd:output.obj
 0001:0007c4d0       ?update_field_width@?$positional_parameter_base@DV?$string_output_adapter@D@__crt_stdio_output@@@__crt_stdio_output@@IAE_NXZ 1007d4d0 f i libucrtd:output.obj
 0001:0007c650       ?update_field_width@?$positional_parameter_base@_WV?$stream_output_adapter@_W@__crt_stdio_output@@@__crt_stdio_output@@IAE_NXZ 1007d650 f i libucrtd:output.obj
 0001:0007c7d0       ?update_field_width@?$positional_parameter_base@_WV?$string_output_adapter@_W@__crt_stdio_output@@@__crt_stdio_output@@IAE_NXZ 1007d7d0 f i libucrtd:output.obj
 0001:0007c950       ?update_field_width@?$standard_base@DV?$stream_output_adapter@D@__crt_stdio_output@@@__crt_stdio_output@@IAE_NXZ 1007d950 f i libucrtd:output.obj
 0001:0007c980       ?update_field_width@?$standard_base@DV?$string_output_adapter@D@__crt_stdio_output@@@__crt_stdio_output@@IAE_NXZ 1007d980 f i libucrtd:output.obj
 0001:0007c9b0       ?update_field_width@?$standard_base@_WV?$stream_output_adapter@_W@__crt_stdio_output@@@__crt_stdio_output@@IAE_NXZ 1007d9b0 f i libucrtd:output.obj
 0001:0007c9e0       ?update_field_width@?$standard_base@_WV?$string_output_adapter@_W@__crt_stdio_output@@@__crt_stdio_output@@IAE_NXZ 1007d9e0 f i libucrtd:output.obj
 0001:0007ca10       ?update_precision@?$positional_parameter_base@DV?$stream_output_adapter@D@__crt_stdio_output@@@__crt_stdio_output@@IAE_NXZ 1007da10 f i libucrtd:output.obj
 0001:0007cb90       ?update_precision@?$positional_parameter_base@DV?$string_output_adapter@D@__crt_stdio_output@@@__crt_stdio_output@@IAE_NXZ 1007db90 f i libucrtd:output.obj
 0001:0007cd10       ?update_precision@?$positional_parameter_base@_WV?$stream_output_adapter@_W@__crt_stdio_output@@@__crt_stdio_output@@IAE_NXZ 1007dd10 f i libucrtd:output.obj
 0001:0007ce90       ?update_precision@?$positional_parameter_base@_WV?$string_output_adapter@_W@__crt_stdio_output@@@__crt_stdio_output@@IAE_NXZ 1007de90 f i libucrtd:output.obj
 0001:0007d010       ?update_precision@?$standard_base@DV?$stream_output_adapter@D@__crt_stdio_output@@@__crt_stdio_output@@IAE_NXZ 1007e010 f i libucrtd:output.obj
 0001:0007d040       ?update_precision@?$standard_base@DV?$string_output_adapter@D@__crt_stdio_output@@@__crt_stdio_output@@IAE_NXZ 1007e040 f i libucrtd:output.obj
 0001:0007d070       ?update_precision@?$standard_base@_WV?$stream_output_adapter@_W@__crt_stdio_output@@@__crt_stdio_output@@IAE_NXZ 1007e070 f i libucrtd:output.obj
 0001:0007d0a0       ?update_precision@?$standard_base@_WV?$string_output_adapter@_W@__crt_stdio_output@@@__crt_stdio_output@@IAE_NXZ 1007e0a0 f i libucrtd:output.obj
 0001:0007d0d0       ?valid@__crt_stdio_stream@@QBE_NXZ 1007e0d0 f i libucrtd:output.obj
 0001:0007d100       ?validate@?$stream_output_adapter@D@__crt_stdio_output@@QBE_NXZ 1007e100 f i libucrtd:output.obj
 0001:0007d1b0       ?validate@?$stream_output_adapter@_W@__crt_stdio_output@@QBE_NXZ 1007e1b0 f i libucrtd:output.obj
 0001:0007d260       ?validate@?$string_output_adapter@D@__crt_stdio_output@@QBE_NXZ 1007e260 f i libucrtd:output.obj
 0001:0007d2f0       ?validate@?$string_output_adapter@_W@__crt_stdio_output@@QBE_NXZ 1007e2f0 f i libucrtd:output.obj
 0001:0007d380       ?validate_and_store_parameter_data@?$positional_parameter_base@DV?$stream_output_adapter@D@__crt_stdio_output@@@__crt_stdio_output@@AAE_NAAUparameter_data@12@W4parameter_type@12@DW4length_modifier@2@@Z 1007e380 f i libucrtd:output.obj
 0001:0007d450       ?validate_and_store_parameter_data@?$positional_parameter_base@DV?$string_output_adapter@D@__crt_stdio_output@@@__crt_stdio_output@@AAE_NAAUparameter_data@12@W4parameter_type@12@DW4length_modifier@2@@Z 1007e450 f i libucrtd:output.obj
 0001:0007d520       ?validate_and_store_parameter_data@?$positional_parameter_base@_WV?$stream_output_adapter@_W@__crt_stdio_output@@@__crt_stdio_output@@AAE_NAAUparameter_data@12@W4parameter_type@12@_WW4length_modifier@2@@Z 1007e520 f i libucrtd:output.obj
 0001:0007d600       ?validate_and_store_parameter_data@?$positional_parameter_base@_WV?$string_output_adapter@_W@__crt_stdio_output@@@__crt_stdio_output@@AAE_NAAUparameter_data@12@W4parameter_type@12@_WW4length_modifier@2@@Z 1007e600 f i libucrtd:output.obj
 0001:0007d6e0       ?validate_and_update_state_at_beginning_of_format_character@?$positional_parameter_base@DV?$stream_output_adapter@D@__crt_stdio_output@@@__crt_stdio_output@@IAE_NXZ 1007e6e0 f i libucrtd:output.obj
 0001:0007d900       ?validate_and_update_state_at_beginning_of_format_character@?$positional_parameter_base@DV?$string_output_adapter@D@__crt_stdio_output@@@__crt_stdio_output@@IAE_NXZ 1007e900 f i libucrtd:output.obj
 0001:0007db20       ?validate_and_update_state_at_beginning_of_format_character@?$positional_parameter_base@_WV?$stream_output_adapter@_W@__crt_stdio_output@@@__crt_stdio_output@@IAE_NXZ 1007eb20 f i libucrtd:output.obj
 0001:0007dd40       ?validate_and_update_state_at_beginning_of_format_character@?$positional_parameter_base@_WV?$string_output_adapter@_W@__crt_stdio_output@@@__crt_stdio_output@@IAE_NXZ 1007ed40 f i libucrtd:output.obj
 0001:0007df60       ?validate_and_update_state_at_beginning_of_format_character@?$standard_base@DV?$stream_output_adapter@D@__crt_stdio_output@@@__crt_stdio_output@@IAE_NXZ 1007ef60 f i libucrtd:output.obj
 0001:0007df70       ?validate_and_update_state_at_beginning_of_format_character@?$standard_base@DV?$string_output_adapter@D@__crt_stdio_output@@@__crt_stdio_output@@IAE_NXZ 1007ef70 f i libucrtd:output.obj
 0001:0007df80       ?validate_and_update_state_at_beginning_of_format_character@?$standard_base@_WV?$stream_output_adapter@_W@__crt_stdio_output@@@__crt_stdio_output@@IAE_NXZ 1007ef80 f i libucrtd:output.obj
 0001:0007df90       ?validate_and_update_state_at_beginning_of_format_character@?$standard_base@_WV?$string_output_adapter@_W@__crt_stdio_output@@@__crt_stdio_output@@IAE_NXZ 1007ef90 f i libucrtd:output.obj
 0001:0007dfa0       ?validate_and_update_state_at_end_of_format_string@?$format_validation_base@DV?$stream_output_adapter@D@__crt_stdio_output@@@__crt_stdio_output@@IBE_NXZ 1007efa0 f i libucrtd:output.obj
 0001:0007e040       ?validate_and_update_state_at_end_of_format_string@?$format_validation_base@DV?$string_output_adapter@D@__crt_stdio_output@@@__crt_stdio_output@@IBE_NXZ 1007f040 f i libucrtd:output.obj
 0001:0007e0e0       ?validate_and_update_state_at_end_of_format_string@?$format_validation_base@_WV?$stream_output_adapter@_W@__crt_stdio_output@@@__crt_stdio_output@@IBE_NXZ 1007f0e0 f i libucrtd:output.obj
 0001:0007e180       ?validate_and_update_state_at_end_of_format_string@?$format_validation_base@_WV?$string_output_adapter@_W@__crt_stdio_output@@@__crt_stdio_output@@IBE_NXZ 1007f180 f i libucrtd:output.obj
 0001:0007e220       ?validate_and_update_state_at_end_of_format_string@?$positional_parameter_base@DV?$stream_output_adapter@D@__crt_stdio_output@@@__crt_stdio_output@@IAE_NXZ 1007f220 f i libucrtd:output.obj
 0001:0007e3c0       ?validate_and_update_state_at_end_of_format_string@?$positional_parameter_base@DV?$string_output_adapter@D@__crt_stdio_output@@@__crt_stdio_output@@IAE_NXZ 1007f3c0 f i libucrtd:output.obj
 0001:0007e560       ?validate_and_update_state_at_end_of_format_string@?$positional_parameter_base@_WV?$stream_output_adapter@_W@__crt_stdio_output@@@__crt_stdio_output@@IAE_NXZ 1007f560 f i libucrtd:output.obj
 0001:0007e700       ?validate_and_update_state_at_end_of_format_string@?$positional_parameter_base@_WV?$string_output_adapter@_W@__crt_stdio_output@@@__crt_stdio_output@@IAE_NXZ 1007f700 f i libucrtd:output.obj
 0001:0007e8a0       ?validate_and_update_state_at_end_of_format_string@?$standard_base@DV?$stream_output_adapter@D@__crt_stdio_output@@@__crt_stdio_output@@IBE_NXZ 1007f8a0 f i libucrtd:output.obj
 0001:0007e8b0       ?validate_and_update_state_at_end_of_format_string@?$standard_base@DV?$string_output_adapter@D@__crt_stdio_output@@@__crt_stdio_output@@IBE_NXZ 1007f8b0 f i libucrtd:output.obj
 0001:0007e8c0       ?validate_and_update_state_at_end_of_format_string@?$standard_base@_WV?$stream_output_adapter@_W@__crt_stdio_output@@@__crt_stdio_output@@IBE_NXZ 1007f8c0 f i libucrtd:output.obj
 0001:0007e8d0       ?validate_and_update_state_at_end_of_format_string@?$standard_base@_WV?$string_output_adapter@_W@__crt_stdio_output@@@__crt_stdio_output@@IBE_NXZ 1007f8d0 f i libucrtd:output.obj
 0001:0007e8e0       ?validate_state_for_type_case_a@?$positional_parameter_base@DV?$stream_output_adapter@D@__crt_stdio_output@@@__crt_stdio_output@@IAE_NXZ 1007f8e0 f i libucrtd:output.obj
 0001:0007e9d0       ?validate_state_for_type_case_a@?$positional_parameter_base@DV?$string_output_adapter@D@__crt_stdio_output@@@__crt_stdio_output@@IAE_NXZ 1007f9d0 f i libucrtd:output.obj
 0001:0007eac0       ?validate_state_for_type_case_a@?$positional_parameter_base@_WV?$stream_output_adapter@_W@__crt_stdio_output@@@__crt_stdio_output@@IAE_NXZ 1007fac0 f i libucrtd:output.obj
 0001:0007ebb0       ?validate_state_for_type_case_a@?$positional_parameter_base@_WV?$string_output_adapter@_W@__crt_stdio_output@@@__crt_stdio_output@@IAE_NXZ 1007fbb0 f i libucrtd:output.obj
 0001:0007eca0       ?validate_state_for_type_case_a@?$standard_base@DV?$stream_output_adapter@D@__crt_stdio_output@@@__crt_stdio_output@@IBE_NXZ 1007fca0 f i libucrtd:output.obj
 0001:0007ecb0       ?validate_state_for_type_case_a@?$standard_base@DV?$string_output_adapter@D@__crt_stdio_output@@@__crt_stdio_output@@IBE_NXZ 1007fcb0 f i libucrtd:output.obj
 0001:0007ecc0       ?validate_state_for_type_case_a@?$standard_base@_WV?$stream_output_adapter@_W@__crt_stdio_output@@@__crt_stdio_output@@IBE_NXZ 1007fcc0 f i libucrtd:output.obj
 0001:0007ecd0       ?validate_state_for_type_case_a@?$standard_base@_WV?$string_output_adapter@_W@__crt_stdio_output@@@__crt_stdio_output@@IBE_NXZ 1007fcd0 f i libucrtd:output.obj
 0001:0007ece0       ?validate_stream_is_ansi_if_required@?$__acrt_stdio_char_traits@D@@SA_NQAU_iobuf@@@Z 1007fce0 f i libucrtd:output.obj
 0001:0007ee10       ?validate_stream_is_ansi_if_required@?$__acrt_stdio_char_traits@_W@@SA_NQAU_iobuf@@@Z 1007fe10 f i libucrtd:output.obj
 0001:0007ee20       ?wide_null_string@?$output_processor@DV?$stream_output_adapter@D@__crt_stdio_output@@V?$format_validation_base@DV?$stream_output_adapter@D@__crt_stdio_output@@@2@@__crt_stdio_output@@CAPA_WXZ 1007fe20 f i libucrtd:output.obj
 0001:0007ee30       ?wide_null_string@?$output_processor@DV?$stream_output_adapter@D@__crt_stdio_output@@V?$positional_parameter_base@DV?$stream_output_adapter@D@__crt_stdio_output@@@2@@__crt_stdio_output@@CAPA_WXZ 1007fe30 f i libucrtd:output.obj
 0001:0007ee40       ?wide_null_string@?$output_processor@DV?$stream_output_adapter@D@__crt_stdio_output@@V?$standard_base@DV?$stream_output_adapter@D@__crt_stdio_output@@@2@@__crt_stdio_output@@CAPA_WXZ 1007fe40 f i libucrtd:output.obj
 0001:0007ee50       ?wide_null_string@?$output_processor@DV?$string_output_adapter@D@__crt_stdio_output@@V?$format_validation_base@DV?$string_output_adapter@D@__crt_stdio_output@@@2@@__crt_stdio_output@@CAPA_WXZ 1007fe50 f i libucrtd:output.obj
 0001:0007ee60       ?wide_null_string@?$output_processor@DV?$string_output_adapter@D@__crt_stdio_output@@V?$positional_parameter_base@DV?$string_output_adapter@D@__crt_stdio_output@@@2@@__crt_stdio_output@@CAPA_WXZ 1007fe60 f i libucrtd:output.obj
 0001:0007ee70       ?wide_null_string@?$output_processor@DV?$string_output_adapter@D@__crt_stdio_output@@V?$standard_base@DV?$string_output_adapter@D@__crt_stdio_output@@@2@@__crt_stdio_output@@CAPA_WXZ 1007fe70 f i libucrtd:output.obj
 0001:0007ee80       ?wide_null_string@?$output_processor@_WV?$stream_output_adapter@_W@__crt_stdio_output@@V?$format_validation_base@_WV?$stream_output_adapter@_W@__crt_stdio_output@@@2@@__crt_stdio_output@@CAPA_WXZ 1007fe80 f i libucrtd:output.obj
 0001:0007ee90       ?wide_null_string@?$output_processor@_WV?$stream_output_adapter@_W@__crt_stdio_output@@V?$positional_parameter_base@_WV?$stream_output_adapter@_W@__crt_stdio_output@@@2@@__crt_stdio_output@@CAPA_WXZ 1007fe90 f i libucrtd:output.obj
 0001:0007eea0       ?wide_null_string@?$output_processor@_WV?$stream_output_adapter@_W@__crt_stdio_output@@V?$standard_base@_WV?$stream_output_adapter@_W@__crt_stdio_output@@@2@@__crt_stdio_output@@CAPA_WXZ 1007fea0 f i libucrtd:output.obj
 0001:0007eeb0       ?wide_null_string@?$output_processor@_WV?$string_output_adapter@_W@__crt_stdio_output@@V?$format_validation_base@_WV?$string_output_adapter@_W@__crt_stdio_output@@@2@@__crt_stdio_output@@CAPA_WXZ 1007feb0 f i libucrtd:output.obj
 0001:0007eec0       ?wide_null_string@?$output_processor@_WV?$string_output_adapter@_W@__crt_stdio_output@@V?$positional_parameter_base@_WV?$string_output_adapter@_W@__crt_stdio_output@@@2@@__crt_stdio_output@@CAPA_WXZ 1007fec0 f i libucrtd:output.obj
 0001:0007eed0       ?wide_null_string@?$output_processor@_WV?$string_output_adapter@_W@__crt_stdio_output@@V?$standard_base@_WV?$string_output_adapter@_W@__crt_stdio_output@@@2@@__crt_stdio_output@@CAPA_WXZ 1007fed0 f i libucrtd:output.obj
 0001:0007eee0       ?write_character@?$output_adapter_common@DV?$stream_output_adapter@D@__crt_stdio_output@@@__crt_stdio_output@@QBEXDQAH@Z 1007fee0 f i libucrtd:output.obj
 0001:0007ef20       ?write_character@?$output_adapter_common@_WV?$stream_output_adapter@_W@__crt_stdio_output@@@__crt_stdio_output@@QBEX_WQAH@Z 1007ff20 f i libucrtd:output.obj
 0001:0007ef60       ?write_character@?$string_output_adapter@D@__crt_stdio_output@@QBE_NDQAH@Z 1007ff60 f i libucrtd:output.obj
 0001:0007eff0       ?write_character@?$string_output_adapter@_W@__crt_stdio_output@@QBE_N_WQAH@Z 1007fff0 f i libucrtd:output.obj
 0001:0007f090       ?write_character_without_count_update@?$stream_output_adapter@D@__crt_stdio_output@@QBE_ND@Z 10080090 f i libucrtd:output.obj
 0001:0007f100       ?write_character_without_count_update@?$stream_output_adapter@_W@__crt_stdio_output@@QBE_N_W@Z 10080100 f i libucrtd:output.obj
 0001:0007f170       ?write_stored_string_tchar@?$output_processor@DV?$stream_output_adapter@D@__crt_stdio_output@@V?$format_validation_base@DV?$stream_output_adapter@D@__crt_stdio_output@@@2@@__crt_stdio_output@@AAE_ND@Z 10080170 f i libucrtd:output.obj
 0001:0007f280       ?write_stored_string_tchar@?$output_processor@DV?$stream_output_adapter@D@__crt_stdio_output@@V?$positional_parameter_base@DV?$stream_output_adapter@D@__crt_stdio_output@@@2@@__crt_stdio_output@@AAE_ND@Z 10080280 f i libucrtd:output.obj
 0001:0007f390       ?write_stored_string_tchar@?$output_processor@DV?$stream_output_adapter@D@__crt_stdio_output@@V?$standard_base@DV?$stream_output_adapter@D@__crt_stdio_output@@@2@@__crt_stdio_output@@AAE_ND@Z 10080390 f i libucrtd:output.obj
 0001:0007f4a0       ?write_stored_string_tchar@?$output_processor@DV?$string_output_adapter@D@__crt_stdio_output@@V?$format_validation_base@DV?$string_output_adapter@D@__crt_stdio_output@@@2@@__crt_stdio_output@@AAE_ND@Z 100804a0 f i libucrtd:output.obj
 0001:0007f5b0       ?write_stored_string_tchar@?$output_processor@DV?$string_output_adapter@D@__crt_stdio_output@@V?$positional_parameter_base@DV?$string_output_adapter@D@__crt_stdio_output@@@2@@__crt_stdio_output@@AAE_ND@Z 100805b0 f i libucrtd:output.obj
 0001:0007f6c0       ?write_stored_string_tchar@?$output_processor@DV?$string_output_adapter@D@__crt_stdio_output@@V?$standard_base@DV?$string_output_adapter@D@__crt_stdio_output@@@2@@__crt_stdio_output@@AAE_ND@Z 100806c0 f i libucrtd:output.obj
 0001:0007f7d0       ?write_stored_string_tchar@?$output_processor@_WV?$stream_output_adapter@_W@__crt_stdio_output@@V?$format_validation_base@_WV?$stream_output_adapter@_W@__crt_stdio_output@@@2@@__crt_stdio_output@@AAE_N_W@Z 100807d0 f i libucrtd:output.obj
 0001:0007f8c0       ?write_stored_string_tchar@?$output_processor@_WV?$stream_output_adapter@_W@__crt_stdio_output@@V?$positional_parameter_base@_WV?$stream_output_adapter@_W@__crt_stdio_output@@@2@@__crt_stdio_output@@AAE_N_W@Z 100808c0 f i libucrtd:output.obj
 0001:0007f9b0       ?write_stored_string_tchar@?$output_processor@_WV?$stream_output_adapter@_W@__crt_stdio_output@@V?$standard_base@_WV?$stream_output_adapter@_W@__crt_stdio_output@@@2@@__crt_stdio_output@@AAE_N_W@Z 100809b0 f i libucrtd:output.obj
 0001:0007faa0       ?write_stored_string_tchar@?$output_processor@_WV?$string_output_adapter@_W@__crt_stdio_output@@V?$format_validation_base@_WV?$string_output_adapter@_W@__crt_stdio_output@@@2@@__crt_stdio_output@@AAE_N_W@Z 10080aa0 f i libucrtd:output.obj
 0001:0007fb90       ?write_stored_string_tchar@?$output_processor@_WV?$string_output_adapter@_W@__crt_stdio_output@@V?$positional_parameter_base@_WV?$string_output_adapter@_W@__crt_stdio_output@@@2@@__crt_stdio_output@@AAE_N_W@Z 10080b90 f i libucrtd:output.obj
 0001:0007fc80       ?write_stored_string_tchar@?$output_processor@_WV?$string_output_adapter@_W@__crt_stdio_output@@V?$standard_base@_WV?$string_output_adapter@_W@__crt_stdio_output@@@2@@__crt_stdio_output@@AAE_N_W@Z 10080c80 f i libucrtd:output.obj
 0001:0007fd70       ?write_string@?$stream_output_adapter@D@__crt_stdio_output@@QBEXQBDHQAHAAV__crt_deferred_errno_cache@@@Z 10080d70 f i libucrtd:output.obj
 0001:0007fdd0       ?write_string@?$stream_output_adapter@_W@__crt_stdio_output@@QBEXQB_WHQAHAAV__crt_deferred_errno_cache@@@Z 10080dd0 f i libucrtd:output.obj
 0001:0007fe30       ?write_string@?$string_output_adapter@D@__crt_stdio_output@@QBEXQBDHQAHAAV__crt_deferred_errno_cache@@@Z 10080e30 f i libucrtd:output.obj
 0001:0007ff30       ?write_string@?$string_output_adapter@_W@__crt_stdio_output@@QBEXQB_WHQAHAAV__crt_deferred_errno_cache@@@Z 10080f30 f i libucrtd:output.obj
 0001:00080040       ?write_string_impl@?$output_adapter_common@DV?$stream_output_adapter@D@__crt_stdio_output@@@__crt_stdio_output@@IBEXQBDHQAHAAV__crt_deferred_errno_cache@@@Z 10081040 f i libucrtd:output.obj
 0001:000800e0       ?write_string_impl@?$output_adapter_common@_WV?$stream_output_adapter@_W@__crt_stdio_output@@@__crt_stdio_output@@IBEXQB_WHQAHAAV__crt_deferred_errno_cache@@@Z 100810e0 f i libucrtd:output.obj
 0001:00080180       ___acrt_isleadbyte_l_noupdate 10081180 f i libucrtd:output.obj
 0001:000801a0       ___acrt_locale_get_ctype_array_value 100811a0 f i libucrtd:output.obj
 0001:000801d0       ___stdio_common_vfprintf   100811d0 f   libucrtd:output.obj
 0001:00080200       ___stdio_common_vfprintf_p 10081200 f   libucrtd:output.obj
 0001:00080230       ___stdio_common_vfprintf_s 10081230 f   libucrtd:output.obj
 0001:00080260       ___stdio_common_vfwprintf  10081260 f   libucrtd:output.obj
 0001:00080290       ___stdio_common_vfwprintf_p 10081290 f   libucrtd:output.obj
 0001:000802c0       ___stdio_common_vfwprintf_s 100812c0 f   libucrtd:output.obj
 0001:000802f0       ___stdio_common_vsnprintf_s 100812f0 f   libucrtd:output.obj
 0001:00080320       ___stdio_common_vsnwprintf_s 10081320 f   libucrtd:output.obj
 0001:00080350       ___stdio_common_vsprintf   10081350 f   libucrtd:output.obj
 0001:00080380       ___stdio_common_vsprintf_p 10081380 f   libucrtd:output.obj
 0001:000803b0       ___stdio_common_vsprintf_s 100813b0 f   libucrtd:output.obj
 0001:000803e0       ___stdio_common_vswprintf  100813e0 f   libucrtd:output.obj
 0001:00080410       ___stdio_common_vswprintf_p 10081410 f   libucrtd:output.obj
 0001:00080440       ___stdio_common_vswprintf_s 10081440 f   libucrtd:output.obj
 0001:00080470       __ctype_fast_check_internal 10081470 f i libucrtd:output.obj
 0001:00080490       __isdigit_fast_internal    10081490 f i libucrtd:output.obj
 0001:000804b0       __tolower_fast_internal    100814b0 f i libucrtd:output.obj
 0001:00080e10       __makepath                 10081e10 f   libucrtd:makepath.obj
 0001:00080e40       __makepath_s               10081e40 f   libucrtd:makepath.obj
 0001:00080e70       __wmakepath                10081e70 f   libucrtd:makepath.obj
 0001:00080ea0       __wmakepath_s              10081ea0 f   libucrtd:makepath.obj
 0001:000827f0       ??$tcsncpy_s@AAPADIAAPBDABI@?$__crt_char_traits@D@@SAHAAPAD$$QAIAAPBDABI@Z 100837f0 f i libucrtd:splitpath.obj
 0001:00082820       ??$tcsncpy_s@AAPADIAAPBDH@?$__crt_char_traits@D@@SAHAAPAD$$QAIAAPBD$$QAH@Z 10083820 f i libucrtd:splitpath.obj
 0001:00082850       ??$tcsncpy_s@AAPA_WIAAPB_WABI@?$__crt_char_traits@_W@@SAHAAPA_W$$QAIAAPB_WABI@Z 10083850 f i libucrtd:splitpath.obj
 0001:00082880       ??$tcsncpy_s@AAPA_WIAAPB_WH@?$__crt_char_traits@_W@@SAHAAPA_W$$QAIAAPB_W$$QAH@Z 10083880 f i libucrtd:splitpath.obj
 0001:00082ac0       __splitpath                10083ac0 f   libucrtd:splitpath.obj
 0001:00082af0       __splitpath_s              10083af0 f   libucrtd:splitpath.obj
 0001:00082b40       __wsplitpath               10083b40 f   libucrtd:splitpath.obj
 0001:00082b70       __wsplitpath_s             10083b70 f   libucrtd:splitpath.obj
 0001:00082ee0       _wcscpy_s                  10083ee0 f   libucrtd:wcscpy_s.obj
 0001:00082f00       __set_abort_behavior       10083f00 f   libucrtd:abort.obj
 0001:00082f30       _abort                     10083f30 f   libucrtd:abort.obj
 0001:00082fa0       _strlen                    10083fa0 f   libucrtd:strlen.obj
 0001:00083030       ??$is_overflow_condition@K@__crt_strtox@@YA_NIK@Z 10084030 f i libucrtd:atox.obj
 0001:00083090       ??$is_overflow_condition@_K@__crt_strtox@@YA_NI_K@Z 10084090 f i libucrtd:atox.obj
 0001:00083120       ??$make_c_string_character_source@D$$T@__crt_strtox@@YA?AV?$c_string_character_source@D@0@QBD$$T@Z 10084120 f i libucrtd:atox.obj
 0001:00083140       ??$make_c_string_character_source@_W$$T@__crt_strtox@@YA?AV?$c_string_character_source@_W@0@QB_W$$T@Z 10084140 f i libucrtd:atox.obj
 0001:00083160       ??$parse_integer@KV?$c_string_character_source@D@__crt_strtox@@@__crt_strtox@@YAKQAU__crt_locale_pointers@@V?$c_string_character_source@D@0@H_N@Z 10084160 f i libucrtd:atox.obj
 0001:000834d0       ??$parse_integer@KV?$c_string_character_source@_W@__crt_strtox@@@__crt_strtox@@YAKQAU__crt_locale_pointers@@V?$c_string_character_source@_W@0@H_N@Z 100844d0 f i libucrtd:atox.obj
 0001:00083840       ??$parse_integer@_KV?$c_string_character_source@D@__crt_strtox@@@__crt_strtox@@YA_KQAU__crt_locale_pointers@@V?$c_string_character_source@D@0@H_N@Z 10084840 f i libucrtd:atox.obj
 0001:00083c60       ??$parse_integer@_KV?$c_string_character_source@_W@__crt_strtox@@@__crt_strtox@@YA_KQAU__crt_locale_pointers@@V?$c_string_character_source@_W@0@H_N@Z 10084c60 f i libucrtd:atox.obj
 0001:00084090       ??$parse_integer_from_string@JD$$T@__crt_strtox@@YAJQBD$$THQAU__crt_locale_pointers@@@Z 10085090 f i libucrtd:atox.obj
 0001:000840d0       ??$parse_integer_from_string@J_W$$T@__crt_strtox@@YAJQB_W$$THQAU__crt_locale_pointers@@@Z 100850d0 f i libucrtd:atox.obj
 0001:00084110       ??$parse_integer_from_string@_JD$$T@__crt_strtox@@YA_JQBD$$THQAU__crt_locale_pointers@@@Z 10085110 f i libucrtd:atox.obj
 0001:00084150       ??$parse_integer_from_string@_J_W$$T@__crt_strtox@@YA_JQB_W$$THQAU__crt_locale_pointers@@@Z 10085150 f i libucrtd:atox.obj
 0001:00084190       ??0?$c_string_character_source@D@__crt_strtox@@QAE@QBDQAPBD@Z 10085190 f i libucrtd:atox.obj
 0001:000841d0       ??0?$c_string_character_source@_W@__crt_strtox@@QAE@QB_WQAPB_W@Z 100851d0 f i libucrtd:atox.obj
 0001:00084210       ??1?$c_string_character_source@D@__crt_strtox@@QAE@XZ 10085210 f i libucrtd:atox.obj
 0001:00084240       ??1?$c_string_character_source@_W@__crt_strtox@@QAE@XZ 10085240 f i libucrtd:atox.obj
 0001:00084270       ?get@?$c_string_character_source@D@__crt_strtox@@QAEDXZ 10085270 f i libucrtd:atox.obj
 0001:000842a0       ?get@?$c_string_character_source@_W@__crt_strtox@@QAE_WXZ 100852a0 f i libucrtd:atox.obj
 0001:000842d0       ?is_space@__crt_strtox@@YA_NDQAU__crt_locale_pointers@@@Z 100852d0 f i libucrtd:atox.obj
 0001:00084310       ?is_space@__crt_strtox@@YA_N_WPAU__crt_locale_pointers@@@Z 10085310 f i libucrtd:atox.obj
 0001:00084340       ?maximum_signed_value@__crt_strtox@@YAJK@Z 10085340 f i libucrtd:atox.obj
 0001:00084350       ?maximum_signed_value@__crt_strtox@@YA_J_K@Z 10085350 f i libucrtd:atox.obj
 0001:00084360       ?minimum_signed_value@__crt_strtox@@YAJK@Z 10085360 f i libucrtd:atox.obj
 0001:00084370       ?minimum_signed_value@__crt_strtox@@YA_J_K@Z 10085370 f i libucrtd:atox.obj
 0001:00084380       ?parse_digit@__crt_strtox@@YAID@Z 10085380 f i libucrtd:atox.obj
 0001:000843e0       ?parse_digit@__crt_strtox@@YAI_W@Z 100853e0 f i libucrtd:atox.obj
 0001:00084430       ?restore_state@?$c_string_character_source@D@__crt_strtox@@QAE_NQBD@Z 10085430 f i libucrtd:atox.obj
 0001:00084450       ?restore_state@?$c_string_character_source@_W@__crt_strtox@@QAE_NQB_W@Z 10085450 f i libucrtd:atox.obj
 0001:00084470       ?save_state@?$c_string_character_source@D@__crt_strtox@@QBEPBDXZ 10085470 f i libucrtd:atox.obj
 0001:00084490       ?save_state@?$c_string_character_source@_W@__crt_strtox@@QBEPB_WXZ 10085490 f i libucrtd:atox.obj
 0001:000844b0       ?unget@?$c_string_character_source@D@__crt_strtox@@QAEXD@Z 100854b0 f i libucrtd:atox.obj
 0001:00084560       ?unget@?$c_string_character_source@_W@__crt_strtox@@QAEX_W@Z 10085560 f i libucrtd:atox.obj
 0001:00084610       ?validate@?$c_string_character_source@D@__crt_strtox@@QBE_NXZ 10085610 f i libucrtd:atox.obj
 0001:000846a0       ?validate@?$c_string_character_source@_W@__crt_strtox@@QBE_NXZ 100856a0 f i libucrtd:atox.obj
 0001:00084730       ?wide_character_to_digit@__crt_strtox@@YAH_W@Z 10085730 f i libucrtd:atox.obj
 0001:00084a60       ___ascii_iswalpha          10085a60 f i libucrtd:atox.obj
 0001:00084aa0       ___ascii_toupper           10085aa0 f i libucrtd:atox.obj
 0001:00084ac0       ___ascii_towupper          10085ac0 f i libucrtd:atox.obj
 0001:00084ae0       __atoi64                   10085ae0 f   libucrtd:atox.obj
 0001:00084b00       __atoi64_l                 10085b00 f   libucrtd:atox.obj
 0001:00084b20       __atoi_l                   10085b20 f   libucrtd:atox.obj
 0001:00084b40       __atol_l                   10085b40 f   libucrtd:atox.obj
 0001:00084b60       __atoll_l                  10085b60 f   libucrtd:atox.obj
 0001:00084b80       __wtoi                     10085b80 f   libucrtd:atox.obj
 0001:00084ba0       __wtoi64                   10085ba0 f   libucrtd:atox.obj
 0001:00084bc0       __wtoi64_l                 10085bc0 f   libucrtd:atox.obj
 0001:00084be0       __wtoi_l                   10085be0 f   libucrtd:atox.obj
 0001:00084c00       __wtol                     10085c00 f   libucrtd:atox.obj
 0001:00084c20       __wtol_l                   10085c20 f   libucrtd:atox.obj
 0001:00084c40       __wtoll                    10085c40 f   libucrtd:atox.obj
 0001:00084c60       __wtoll_l                  10085c60 f   libucrtd:atox.obj
 0001:00084c80       _atoi                      10085c80 f   libucrtd:atox.obj
 0001:00084ca0       _atol                      10085ca0 f   libucrtd:atox.obj
 0001:00084cc0       _atoll                     10085cc0 f   libucrtd:atox.obj
 0001:00084ce0       _strncmp                   10085ce0 f   libucrtd:strncmp.obj
 0001:00084d60       _wcsncmp                   10085d60 f   libucrtd:wcsncmp.obj
 0001:00084dc0       _free                      10085dc0 f   libucrtd:free.obj
 0001:00084df0       _malloc                    10085df0 f   libucrtd:malloc.obj
 0001:00084e30       __fFATN2                   10085e30 f   libucrtd:87triga.obj
 0001:00084e80       __rtpiby2                  10085e80     libucrtd:87triga.obj
 0001:00084e90       __rtforatn20               10085e90 f   libucrtd:87triga.obj
 0001:00084ec0       __rtforatnby0              10085ec0 f   libucrtd:87triga.obj
 0001:00084ed0       __cintrindisp2             10085ed0 f   libucrtd:87cdisp.obj
 0001:00084f20       __cintrindisp1             10085f20 f   libucrtd:87cdisp.obj
 0001:00084f69       __ctrandisp2               10085f69 f   libucrtd:87cdisp.obj
 0001:000850f8       __ctrandisp1               100860f8 f   libucrtd:87cdisp.obj
 0001:0008512b       __fload                    1008612b f   libucrtd:87cdisp.obj
 0001:00085170       __twoToTOS                 10086170 f   libucrtd:common.obj
 0001:00085185       __load_CW                  10086185 f   libucrtd:common.obj
 0001:0008519c       __convertTOStoQNaN         1008619c f   libucrtd:common.obj
 0001:000851b5       __fload_withFB             100861b5 f   libucrtd:common.obj
 0001:000851f8       __checkTOS_withFB          100861f8 f   libucrtd:common.obj
 0001:0008520e       __fast_exit                1008620e f   libucrtd:common.obj
 0001:0008521b       __math_exit                1008621b f   libucrtd:common.obj
 0001:00085245       __check_overflow_exit      10086245 f   libucrtd:common.obj
 0001:00085259       __check_range_exit         10086259 f   libucrtd:common.obj
 0001:00085300       __CIsqrt                   10086300 f   libucrtd:sqrt_impl.obj
 0001:00085314       __sqrt_common              10086314     libucrtd:sqrt_impl.obj
 0001:000853c0       ___libm_error_support      100863c0 f   libucrtd:libm_error.obj
 0001:00085980       ___libm_setusermatherr     10086980 f   libucrtd:libm_error.obj
 0001:000859c0       ___acrt_initialize_sse2    100869c0 f   libucrtd:mathfcns.obj
 0001:000859e0       __set_SSE2_enable          100869e0 f   libucrtd:mathfcns.obj
 0001:00085a30       __floor_default            10086a30 f   libucrtd:floor.obj
 0001:00085b50       __add_exp                  10086b50 f   libucrtd:util.obj
 0001:00085b90       __decomp                   10086b90 f   libucrtd:util.obj
 0001:00085cc0       __get_exp                  10086cc0 f   libucrtd:util.obj
 0001:00085cf0       __set_bexp                 10086cf0 f   libucrtd:util.obj
 0001:00085d20       __set_exp                  10086d20 f   libucrtd:util.obj
 0001:00085d60       __sptype                   10086d60 f   libucrtd:util.obj
 0001:00085de0       ___clrfp_sse2              10086de0 f   libucrtd:fpctrl.obj
 0001:00085e20       ___ctrlfp_sse2             10086e20 f   libucrtd:fpctrl.obj
 0001:00085e80       ___fclrf_sse2              10086e80 f   libucrtd:fpctrl.obj
 0001:00085ea0       ___get_fpsr_sse2           10086ea0 f   libucrtd:fpctrl.obj
 0001:00085ed0       ___set_fpsr_sse2           10086ed0 f   libucrtd:fpctrl.obj
 0001:00085fb0       ___set_statfp_sse2         10086fb0 f   libucrtd:fpctrl.obj
 0001:00085fe0       ___statfp_sse2             10086fe0 f   libucrtd:fpctrl.obj
 0001:00086010       __clrfp                    10087010 f   libucrtd:fpctrl.obj
 0001:00086030       __ctrlfp                   10087030 f   libucrtd:fpctrl.obj
 0001:00086060       __set_statfp               10087060 f   libucrtd:fpctrl.obj
 0001:000860d0       __statfp                   100870d0 f   libucrtd:fpctrl.obj
 0001:000860f0       _ldexp                     100870f0 f   libucrtd:ldexp.obj
 0001:000863f0       _nextafter                 100873f0 f   libucrtd:nextafter.obj
 0001:00086420       ??$__crt_fast_decode_pointer@P6AXPB_W00II@Z@@YAP6AXPB_W00II@ZQ6AX000II@Z@Z 10087420 f i libucrtd:invalid_parameter.obj
 0001:00086450       ??$__crt_fast_encode_pointer@P6AXPB_W00II@Z@@YAP6AXPB_W00II@ZQ6AX000II@Z@Z 10087450 f i libucrtd:invalid_parameter.obj
 0001:00086480       ??$initialize_from_array@$$BY00Q6AXPB_W00II@Z@?$dual_state_global@P6AXPB_W00II@Z@__crt_state_management@@QAAXAAY00Q6AXPB_W00II@Z@Z 10087480 f i libucrtd:invalid_parameter.obj
 0001:000864d0       ?dangerous_get_state_array@?$dual_state_global@P6AXPB_W00II@Z@__crt_state_management@@QAEPAP6AXPB_W00II@ZXZ 100874d0 f i libucrtd:invalid_parameter.obj
 0001:000864e0       ?value@?$dual_state_global@P6AXPB_W00II@Z@__crt_state_management@@QAEAAP6AXPB_W00II@ZXZ 100874e0 f i libucrtd:invalid_parameter.obj
 0001:00086500       ___acrt_call_reportfault   10087500 f   libucrtd:invalid_parameter.obj
 0001:00086660       ___acrt_initialize_invalid_parameter_handler 10087660 f   libucrtd:invalid_parameter.obj
 0001:00086690       __get_invalid_parameter_handler 10087690 f   libucrtd:invalid_parameter.obj
 0001:000866b0       __get_thread_local_invalid_parameter_handler 100876b0 f   libucrtd:invalid_parameter.obj
 0001:000866e0       __invalid_parameter        100876e0 f   libucrtd:invalid_parameter.obj
 0001:000867a0       __invalid_parameter_noinfo 100877a0 f   libucrtd:invalid_parameter.obj
 0001:000867c0       __invalid_parameter_noinfo_noreturn 100877c0 f   libucrtd:invalid_parameter.obj
 0001:000867f0       __invoke_watson            100877f0 f   libucrtd:invalid_parameter.obj
 0001:00086830       __set_invalid_parameter_handler 10087830 f   libucrtd:invalid_parameter.obj
 0001:00086880       __set_thread_local_invalid_parameter_handler 10087880 f   libucrtd:invalid_parameter.obj
 0001:00086a60       ___acrt_report_runtime_error 10087a60 f   libucrtd:report_runtime_error.obj
 0001:00086c50       __query_app_type           10087c50 f   libucrtd:report_runtime_error.obj
 0001:00086c60       __set_app_type             10087c60 f   libucrtd:report_runtime_error.obj
 0001:00086c70       ___acrt_errno_from_os_error 10087c70 f   libucrtd:errno.obj
 0001:00086cf0       ___acrt_errno_map_os_error 10087cf0 f   libucrtd:errno.obj
 0001:00086d20       ___doserrno                10087d20 f   libucrtd:errno.obj
 0001:00086d50       __errno                    10087d50 f   libucrtd:errno.obj
 0001:00086d80       __get_doserrno             10087d80 f   libucrtd:errno.obj
 0001:00086e10       __get_errno                10087e10 f   libucrtd:errno.obj
 0001:00086ea0       __set_doserrno             10087ea0 f   libucrtd:errno.obj
 0001:00086ed0       __set_errno                10087ed0 f   libucrtd:errno.obj
 0001:00088010       __i64toa                   10089010 f   libucrtd:xtoa.obj
 0001:00088060       __i64toa_s                 10089060 f   libucrtd:xtoa.obj
 0001:000880b0       __i64tow                   100890b0 f   libucrtd:xtoa.obj
 0001:00088100       __i64tow_s                 10089100 f   libucrtd:xtoa.obj
 0001:00088150       __itoa                     10089150 f   libucrtd:xtoa.obj
 0001:000881a0       __itoa_s                   100891a0 f   libucrtd:xtoa.obj
 0001:000881f0       __itow                     100891f0 f   libucrtd:xtoa.obj
 0001:00088240       __itow_s                   10089240 f   libucrtd:xtoa.obj
 0001:00088290       __ltoa                     10089290 f   libucrtd:xtoa.obj
 0001:000882e0       __ltoa_s                   100892e0 f   libucrtd:xtoa.obj
 0001:00088330       __ltow                     10089330 f   libucrtd:xtoa.obj
 0001:00088380       __ltow_s                   10089380 f   libucrtd:xtoa.obj
 0001:000883d0       __ui64toa                  100893d0 f   libucrtd:xtoa.obj
 0001:00088400       __ui64toa_s                10089400 f   libucrtd:xtoa.obj
 0001:00088430       __ui64tow                  10089430 f   libucrtd:xtoa.obj
 0001:00088460       __ui64tow_s                10089460 f   libucrtd:xtoa.obj
 0001:00088490       __ultoa                    10089490 f   libucrtd:xtoa.obj
 0001:000884c0       __ultoa_s                  100894c0 f   libucrtd:xtoa.obj
 0001:000884f0       __ultow                    100894f0 f   libucrtd:xtoa.obj
 0001:00088520       __ultow_s                  10089520 f   libucrtd:xtoa.obj
 0001:00088550       __set_error_mode           10089550 f   libucrtd:set_error_mode.obj
 0001:00088a30       _wcscat_s                  10089a30 f   libucrtd:wcscat_s.obj
 0001:00088f20       _wcsncat_s                 10089f20 f   libucrtd:wcsncat_s.obj
 0001:00089c40       ??1?$__crt_simd_cleanup_guard@$00@@QAE@XZ 1008ac40 f i libucrtd:strnlen.obj
 0001:00089c50       ??1?$__crt_simd_cleanup_guard@$0A@@@QAE@XZ 1008ac50 f i libucrtd:strnlen.obj
 0001:00089c60       ?compare_equals@?$__crt_simd_traits@$00E@@SA?AT__m256i@@T2@0@Z 1008ac60 f i libucrtd:strnlen.obj
 0001:00089ca0       ?compare_equals@?$__crt_simd_traits@$00G@@SA?AT__m256i@@T2@0@Z 1008aca0 f i libucrtd:strnlen.obj
 0001:00089ce0       ?compare_equals@?$__crt_simd_traits@$0A@E@@SA?AT__m128i@@T2@0@Z 1008ace0 f i libucrtd:strnlen.obj
 0001:00089d20       ?compare_equals@?$__crt_simd_traits@$0A@G@@SA?AT__m128i@@T2@0@Z 1008ad20 f i libucrtd:strnlen.obj
 0001:00089d60       ?compute_byte_mask@?$__crt_simd_pack_traits@$00@@SAHT__m256i@@@Z 1008ad60 f i libucrtd:strnlen.obj
 0001:00089d90       ?compute_byte_mask@?$__crt_simd_pack_traits@$0A@@@SAHT__m128i@@@Z 1008ad90 f i libucrtd:strnlen.obj
 0001:00089dc0       ?get_zero_pack@?$__crt_simd_pack_traits@$00@@SA?AT__m256i@@XZ 1008adc0 f i libucrtd:strnlen.obj
 0001:00089df0       ?get_zero_pack@?$__crt_simd_pack_traits@$0A@@@SA?AT__m128i@@XZ 1008adf0 f i libucrtd:strnlen.obj
 0001:00089e20       _strnlen                   1008ae20 f   libucrtd:strnlen.obj
 0001:00089e40       _wcslen                    1008ae40 f   libucrtd:strnlen.obj
 0001:00089e60       _wcsnlen                   1008ae60 f   libucrtd:strnlen.obj
 0001:0008a330       _strncat_s                 1008b330 f   libucrtd:strncat_s.obj
 0001:0008a480       ??$__acrt_wcs_to_mbs_cp@U__crt_win32_buffer_no_resizing@@@@YAHQB_WAAV?$__crt_win32_buffer@DU__crt_win32_buffer_no_resizing@@@@I@Z 1008b480 f i libucrtd:getmodulefilenamea.obj
 0001:0008a4b0       ??0?$__crt_win32_buffer@DU__crt_win32_buffer_no_resizing@@@@QAE@QADI@Z 1008b4b0 f i libucrtd:getmodulefilenamea.obj
 0001:0008a500       ??1?$__crt_win32_buffer@DU__crt_win32_buffer_no_resizing@@@@QAE@XZ 1008b500 f i libucrtd:getmodulefilenamea.obj
 0001:0008a570       ?__acrt_get_utf8_acp_compatibility_codepage@@YAIXZ 1008b570 f i libucrtd:getmodulefilenamea.obj
 0001:0008a600       ?_deallocate@?$__crt_win32_buffer@DU__crt_win32_buffer_no_resizing@@@@AAEXXZ 1008b600 f i libucrtd:getmodulefilenamea.obj
 0001:0008a640       ?allocate@?$__crt_win32_buffer@DU__crt_win32_buffer_no_resizing@@@@QAEHI@Z 1008b640 f i libucrtd:getmodulefilenamea.obj
 0001:0008a6b0       ?allocate@__crt_win32_buffer_no_resizing@@SAHQAPAXIABV__crt_win32_buffer_empty_debug_info@@@Z 1008b6b0 f i libucrtd:getmodulefilenamea.obj
 0001:0008a6d0       ?capacity@?$__crt_win32_buffer@DU__crt_win32_buffer_no_resizing@@@@QBEIXZ 1008b6d0 f i libucrtd:getmodulefilenamea.obj
 0001:0008a6f0       ?data@?$__crt_win32_buffer@DU__crt_win32_buffer_no_resizing@@@@QAEPADXZ 1008b6f0 f i libucrtd:getmodulefilenamea.obj
 0001:0008a710       ?deallocate@__crt_win32_buffer_no_resizing@@SAXQAXABV__crt_win32_buffer_empty_debug_info@@@Z 1008b710 f i libucrtd:getmodulefilenamea.obj
 0001:0008a720       ?debug_info@?$__crt_win32_buffer@DU__crt_win32_buffer_no_resizing@@@@QBEABV__crt_win32_buffer_empty_debug_info@@XZ 1008b720 f i libucrtd:getmodulefilenamea.obj
 0001:0008a730       ?set_to_nullptr@?$__crt_win32_buffer@DU__crt_win32_buffer_no_resizing@@@@QAEXXZ 1008b730 f i libucrtd:getmodulefilenamea.obj
 0001:0008a770       ?size@?$__crt_win32_buffer@DU__crt_win32_buffer_no_resizing@@@@QAEXI@Z 1008b770 f i libucrtd:getmodulefilenamea.obj
 0001:0008a790       ?size@?$__crt_win32_buffer@DU__crt_win32_buffer_no_resizing@@@@QBEIXZ 1008b790 f i libucrtd:getmodulefilenamea.obj
 0001:0008a7b0       ___acrt_GetModuleFileNameA 1008b7b0 f   libucrtd:getmodulefilenamea.obj
 0001:0008aa90       ??$message_box@$$TABQBDABQBDK@?$__crt_char_traits@D@@SAH$$QA$$TABQBD1$$QAK@Z 1008ba90 f i libucrtd:crtmbox.obj
 0001:0008aac0       ??$message_box@$$TABQB_WABQB_WK@?$__crt_char_traits@_W@@SAH$$QA$$TABQB_W1$$QAK@Z 1008bac0 f i libucrtd:crtmbox.obj
 0001:0008aaf0       ??$message_box@PAUHWND__@@ABQBDABQBDABI@?$__crt_char_traits@D@@SAH$$QAPAUHWND__@@ABQBD1ABI@Z 1008baf0 f i libucrtd:crtmbox.obj
 0001:0008ab20       ??$message_box@PAUHWND__@@ABQB_WABQB_WABI@?$__crt_char_traits@_W@@SAH$$QAPAUHWND__@@ABQB_W1ABI@Z 1008bb20 f i libucrtd:crtmbox.obj
 0001:0008ab50       ??$output_debug_string@ABQBD@?$__crt_char_traits@D@@SAXABQBD@Z 1008bb50 f i libucrtd:crtmbox.obj
 0001:0008ab70       ??$output_debug_string@ABQB_W@?$__crt_char_traits@_W@@SAXABQB_W@Z 1008bb70 f i libucrtd:crtmbox.obj
 0001:0008ab90       ___acrt_show_narrow_message_box 1008bb90 f   libucrtd:crtmbox.obj
 0001:0008abb0       ___acrt_show_wide_message_box 1008bbb0 f   libucrtd:crtmbox.obj
 0001:0008abd0       ??$?RPAU__crt_stdio_stream_data@@@__crt_internal_free_policy@@QBEXQBQAU__crt_stdio_stream_data@@@Z 1008bbd0 f i libucrtd:_file.obj
 0001:0008abf0       ??0?$__crt_unique_heap_ptr@PAU__crt_stdio_stream_data@@U__crt_internal_free_policy@@@@QAE@QAPAU__crt_stdio_stream_data@@@Z 1008bbf0 f i libucrtd:_file.obj
 0001:0008ac10       ??1?$__crt_unique_heap_ptr@PAU__crt_stdio_stream_data@@U__crt_internal_free_policy@@@@QAE@XZ 1008bc10 f i libucrtd:_file.obj
 0001:0008ac30       ?detach@?$__crt_unique_heap_ptr@PAU__crt_stdio_stream_data@@U__crt_internal_free_policy@@@@QAEPAPAU__crt_stdio_stream_data@@XZ 1008bc30 f i libucrtd:_file.obj
 0001:0008ac60       ?release@?$__crt_unique_heap_ptr@PAU__crt_stdio_stream_data@@U__crt_internal_free_policy@@@@QAEXXZ 1008bc60 f i libucrtd:_file.obj
 0001:0008ac90       ___acrt_initialize_stdio   1008bc90 f   libucrtd:_file.obj
 0001:0008ae00       ___acrt_iob_func           1008be00 f   libucrtd:_file.obj
 0001:0008ae10       ___acrt_uninitialize_stdio 1008be10 f   libucrtd:_file.obj
 0001:0008ae90       __get_stream_buffer_pointers 1008be90 f   libucrtd:_file.obj
 0001:0008af70       __lock_file                1008bf70 f   libucrtd:_file.obj
 0001:0008afa0       __unlock_file              1008bfa0 f   libucrtd:_file.obj
 0001:0008b370       ??0__crt_stdio_stream@@QAE@QAU__crt_stdio_stream_data@@@Z 1008c370 f i libucrtd:fflush.obj
 0001:0008b5a0       ?__acrt_stdio_reset_buffer@@YAXV__crt_stdio_stream@@@Z 1008c5a0 f i libucrtd:fflush.obj
 0001:0008b6a0       ?has_all_of@__crt_stdio_stream@@QBE_NJ@Z 1008c6a0 f i libucrtd:fflush.obj
 0001:0008b770       ?set_flags@__crt_stdio_stream@@QBE_NJ@Z 1008c770 f i libucrtd:fflush.obj
 0001:0008b7c0       ?unset_flags@__crt_stdio_stream@@QBE_NJ@Z 1008c7c0 f i libucrtd:fflush.obj
 0001:0008b810       ___acrt_stdio_flush_nolock 1008c810 f   libucrtd:fflush.obj
 0001:0008b8e0       __fflush_nolock            1008c8e0 f   libucrtd:fflush.obj
 0001:0008b960       __flushall                 1008c960 f   libucrtd:fflush.obj
 0001:0008b980       _fflush                    1008c980 f   libucrtd:fflush.obj
 0001:0008bd00       _setvbuf                   1008cd00 f   libucrtd:setvbuf.obj
 0001:0008bee0       ??$?B$$A6AXH@Z@__crt_fast_encoded_nullptr_t@@QBEP6AXH@ZXZ 1008cee0 f i libucrtd:signal.obj
 0001:0008bfd0       ??$__crt_fast_decode_pointer@P6AXH@Z@@YAP6AXH@ZQ6AXH@Z@Z 1008cfd0 f i libucrtd:signal.obj
 0001:0008c000       ??$__crt_fast_encode_pointer@P6AXH@Z@@YAP6AXH@ZQ6AXH@Z@Z 1008d000 f i libucrtd:signal.obj
 0001:0008c2b0       ?initialize@?$dual_state_global@P6AXH@Z@__crt_state_management@@QAEXQ6AXH@Z@Z 1008d2b0 f i libucrtd:signal.obj
 0001:0008c3f0       ?value@?$dual_state_global@P6AXH@Z@__crt_state_management@@QAEAAP6AXH@ZXZ 1008d3f0 f i libucrtd:signal.obj
 0001:0008c410       ___acrt_get_sigabrt_handler 1008d410 f   libucrtd:signal.obj
 0001:0008c430       ___acrt_initialize_signal_handlers 1008d430 f   libucrtd:signal.obj
 0001:0008c470       ___fpecode                 1008d470 f   libucrtd:signal.obj
 0001:0008c480       ___pxcptinfoptrs           1008d480 f   libucrtd:signal.obj
 0001:0008c490       _raise                     1008d490 f   libucrtd:signal.obj
 0001:0008c860       _signal                    1008d860 f   libucrtd:signal.obj
 0001:0008cae0       __CIpow                    1008dae0 f   libucrtd:pow_impl.obj
 0001:0008cb1b       __CIpow_default            1008db1b f   libucrtd:pow_impl.obj
 0001:0008cb34       __pow_default              1008db34     libucrtd:pow_impl.obj
 0001:0008cd30       __CIpow_pentium4           1008dd30 f   libucrtd:pow_pentium4.obj
 0001:0008cd49       __pow_pentium4             1008dd49     libucrtd:pow_pentium4.obj
 0001:0008d850       __CIcos                    1008e850 f   libucrtd:cos_impl.obj
 0001:0008d88b       __CIcos_default            1008e88b f   libucrtd:cos_impl.obj
 0001:0008d89f       __cos_default              1008e89f     libucrtd:cos_impl.obj
 0001:0008d940       __CIcos_pentium4           1008e940 f   libucrtd:cos_pentium4.obj
 0001:0008d958       __cos_pentium4             1008e958     libucrtd:cos_pentium4.obj
 0001:0008daf0       __CIsin                    1008eaf0 f   libucrtd:sin_impl.obj
 0001:0008db2b       __CIsin_default            1008eb2b f   libucrtd:sin_impl.obj
 0001:0008db3f       __sin_default              1008eb3f     libucrtd:sin_impl.obj
 0001:0008dbe0       __CIsin_pentium4           1008ebe0 f   libucrtd:sin_pentium4.obj
 0001:0008dbf8       __sin_pentium4             1008ebf8     libucrtd:sin_pentium4.obj
 0001:0008ddb0       __CrtGetReportHook         1008edb0 f   libucrtd:dbgrptt.obj
 0001:0008ddc0       __CrtSetReportFile         1008edc0 f   libucrtd:dbgrptt.obj
 0001:0008dec0       __CrtSetReportHook         1008eec0 f   libucrtd:dbgrptt.obj
 0001:0008def0       __CrtSetReportMode         1008eef0 f   libucrtd:dbgrptt.obj
 0001:0008e030       __VCrtDbgReportA           1008f030 f   libucrtd:dbgrptt.obj
 0001:0008e8b0       __VCrtDbgReportW           1008f8b0 f   libucrtd:dbgrptt.obj
 0001:0008f260       __snprintf_s               10090260 f i libucrtd:dbgrptt.obj
 0001:0008f2a0       __vsnprintf_s              100902a0 f i libucrtd:dbgrptt.obj
 0001:0008f2d0       __vsnprintf_s_l            100902d0 f i libucrtd:dbgrptt.obj
 0001:0008f330       ___acrt_initialize_locks   10090330 f   libucrtd:locks.obj
 0001:0008f390       ___acrt_lock               10090390 f   libucrtd:locks.obj
 0001:0008f3b0       ___acrt_uninitialize_locks 100903b0 f   libucrtd:locks.obj
 0001:0008f400       ___acrt_unlock             10090400 f   libucrtd:locks.obj
 0001:0008f420       __lock_locales             10090420 f   libucrtd:locks.obj
 0001:0008f440       __unlock_locales           10090440 f   libucrtd:locks.obj
 0001:0008f460       __chvalidator              10090460 f   libucrtd:isctype.obj
 0001:0008f4b0       __chvalidator_l            100904b0 f   libucrtd:isctype.obj
 0001:0008f530       __isctype                  10090530 f   libucrtd:isctype.obj
 0001:0008f570       __isctype_l                10090570 f   libucrtd:isctype.obj
 0001:0008f6f0       __isleadbyte_fast_internal 100906f0 f i libucrtd:isctype.obj
 0001:0008f710       ??$?B$$A6AHI@Z@__crt_fast_encoded_nullptr_t@@QBEP6AHI@ZXZ 10090710 f i libucrtd:new_handler.obj
 0001:0008f730       ??$__crt_fast_decode_pointer@P6AHI@Z@@YAP6AHI@ZQ6AHI@Z@Z 10090730 f i libucrtd:new_handler.obj
 0001:0008f760       ??$__crt_fast_encode_pointer@P6AHI@Z@@YAP6AHI@ZQ6AHI@Z@Z 10090760 f i libucrtd:new_handler.obj
 0001:0008f790       ?_set_new_handler@@YAP6AHI@ZH@Z 10090790 f   libucrtd:new_handler.obj
 0001:0008f7f0       ?initialize@?$dual_state_global@P6AHI@Z@__crt_state_management@@QAEXQ6AHI@Z@Z 100907f0 f i libucrtd:new_handler.obj
 0001:0008f830       ?value@?$dual_state_global@P6AHI@Z@__crt_state_management@@QAEAAP6AHI@ZXZ 10090830 f i libucrtd:new_handler.obj
 0001:0008f850       ___acrt_initialize_new_handler 10090850 f   libucrtd:new_handler.obj
 0001:0008f870       __callnewh                 10090870 f   libucrtd:new_handler.obj
 0001:0008f8b0       __query_new_handler        100908b0 f   libucrtd:new_handler.obj
 0001:0008f940       __set_new_handler          10090940 f   libucrtd:new_handler.obj
 0001:0008fa00       __free_base                10090a00 f   libucrtd:free_base.obj
 0001:0008fa50       __realloc_base             10090a50 f   libucrtd:realloc_base.obj
 0001:0008faf0       ??$?RU__acrt_ptd@@@__crt_internal_free_policy@@QBEXQBU__acrt_ptd@@@Z 10090af0 f i libucrtd:per_thread_data.obj
 0001:0008ffa0       ??0?$__crt_unique_heap_ptr@U__acrt_ptd@@U__crt_internal_free_policy@@@@QAE@QAU__acrt_ptd@@@Z 10090fa0 f i libucrtd:per_thread_data.obj
 0001:0008ffc0       ??0__crt_scoped_get_last_error_reset@@QAE@XZ 10090fc0 f i libucrtd:per_thread_data.obj
 0001:0008ffe0       ??1?$__crt_unique_heap_ptr@U__acrt_ptd@@U__crt_internal_free_policy@@@@QAE@XZ 10090fe0 f i libucrtd:per_thread_data.obj
 0001:00090000       ??1__crt_scoped_get_last_error_reset@@QAE@XZ 10091000 f i libucrtd:per_thread_data.obj
 0001:00090020       ??B?$__crt_unique_heap_ptr@U__acrt_ptd@@U__crt_internal_free_policy@@@@QBE_NXZ 10091020 f i libucrtd:per_thread_data.obj
 0001:00090300       ?dangerous_get_state_array@?$dual_state_global@PAU__crt_locale_data@@@__crt_state_management@@QAEPAPAU__crt_locale_data@@XZ 10091300 f i libucrtd:per_thread_data.obj
 0001:00090480       ?detach@?$__crt_unique_heap_ptr@U__acrt_ptd@@U__crt_internal_free_policy@@@@QAEPAU__acrt_ptd@@XZ 10091480 f i libucrtd:per_thread_data.obj
 0001:000904b0       ?get@?$__crt_unique_heap_ptr@U__acrt_ptd@@U__crt_internal_free_policy@@@@QBEPAU__acrt_ptd@@XZ 100914b0 f i libucrtd:per_thread_data.obj
 0001:000904d0       ?get_current_state_index@__crt_state_management@@YAIABV__crt_scoped_get_last_error_reset@@@Z 100914d0 f i libucrtd:per_thread_data.obj
 0001:00090640       ?is_valid@?$__crt_unique_heap_ptr@U__acrt_ptd@@U__crt_internal_free_policy@@@@QBE_NXZ 10091640 f i libucrtd:per_thread_data.obj
 0001:00090670       ?release@?$__crt_unique_heap_ptr@U__acrt_ptd@@U__crt_internal_free_policy@@@@QAEXXZ 10091670 f i libucrtd:per_thread_data.obj
 0001:00090760       ?value@?$dual_state_global@PAU__crt_locale_data@@@__crt_state_management@@QAEAAPAU__crt_locale_data@@XZ 10091760 f i libucrtd:per_thread_data.obj
 0001:00090780       ___acrt_freeptd            10091780 f   libucrtd:per_thread_data.obj
 0001:000907b0       ___acrt_getptd             100917b0 f   libucrtd:per_thread_data.obj
 0001:000907d0       ___acrt_getptd_head        100917d0 f   libucrtd:per_thread_data.obj
 0001:000907f0       ___acrt_getptd_noexit      100917f0 f   libucrtd:per_thread_data.obj
 0001:00090800       ___acrt_initialize_ptd     10091800 f   libucrtd:per_thread_data.obj
 0001:00090840       ___acrt_uninitialize_ptd   10091840 f   libucrtd:per_thread_data.obj
 0001:00090870       ___threadhandle            10091870 f   libucrtd:per_thread_data.obj
 0001:00090880       ___threadid                10091880 f   libucrtd:per_thread_data.obj
 0001:000908f0       __expand                   100918f0 f   libucrtd:expand.obj
 0001:00090910       __expand_base              10091910 f   libucrtd:expand.obj
 0001:00090a40       ?value@?$dual_state_global@PAU__crt_multibyte_data@@@__crt_state_management@@QAEAAPAU__crt_multibyte_data@@XZ 10091a40 f i libucrtd:locale_update.obj
 0001:00090a60       ___acrt_update_locale_info 10091a60 f   libucrtd:locale_update.obj
 0001:00090aa0       ___acrt_update_multibyte_info 10091aa0 f   libucrtd:locale_update.obj
 0001:00090ae0       ?value@?$dual_state_global@J@__crt_state_management@@QAEAAJXZ 10091ae0 f i libucrtd:new_mode.obj
 0001:00090b00       __query_new_mode           10091b00 f   libucrtd:new_mode.obj
 0001:00090b20       __set_new_mode             10091b20 f   libucrtd:new_mode.obj
 0001:00090bc0       __CrtDefaultAllocHook      10091bc0 f   libucrtd:debug_heap_hook.obj
 0001:00090be0       ??$?RU__crt_locale_data@@@__crt_internal_free_policy@@QBEXQBU__crt_locale_data@@@Z 10091be0 f i libucrtd:wsetlocale.obj
 0001:00090c00       ??$?RU__crt_locale_pointers@@@__crt_internal_free_policy@@QBEXQBU__crt_locale_pointers@@@Z 10091c00 f i libucrtd:wsetlocale.obj
 0001:00090c20       ??$?RU__crt_multibyte_data@@@__crt_internal_free_policy@@QBEXQBU__crt_multibyte_data@@@Z 10091c20 f i libucrtd:wsetlocale.obj
 0001:00091210       ??0?$__crt_unique_heap_ptr@U__crt_locale_data@@U__crt_internal_free_policy@@@@QAE@QAU__crt_locale_data@@@Z 10092210 f i libucrtd:wsetlocale.obj
 0001:00091230       ??0?$__crt_unique_heap_ptr@U__crt_locale_pointers@@U__crt_internal_free_policy@@@@QAE@QAU__crt_locale_pointers@@@Z 10092230 f i libucrtd:wsetlocale.obj
 0001:00091250       ??0?$__crt_unique_heap_ptr@U__crt_multibyte_data@@U__crt_internal_free_policy@@@@QAE@QAU__crt_multibyte_data@@@Z 10092250 f i libucrtd:wsetlocale.obj
 0001:00091270       ??0_expandlocale_locale_name_cache@@QAE@QA_WIQAU__crt_qualified_locale_data@@@Z 10092270 f i libucrtd:wsetlocale.obj
 0001:000912e0       ??1?$__crt_unique_heap_ptr@U__crt_locale_data@@U__crt_internal_free_policy@@@@QAE@XZ 100922e0 f i libucrtd:wsetlocale.obj
 0001:00091300       ??1?$__crt_unique_heap_ptr@U__crt_locale_pointers@@U__crt_internal_free_policy@@@@QAE@XZ 10092300 f i libucrtd:wsetlocale.obj
 0001:00091320       ??1?$__crt_unique_heap_ptr@U__crt_multibyte_data@@U__crt_internal_free_policy@@@@QAE@XZ 10092320 f i libucrtd:wsetlocale.obj
 0001:00091340       ??1_expandlocale_locale_name_cache@@QAE@XZ 10092340 f i libucrtd:wsetlocale.obj
 0001:000913a0       ??B?$__crt_unique_heap_ptr@U__crt_locale_data@@U__crt_internal_free_policy@@@@QBE_NXZ 100923a0 f i libucrtd:wsetlocale.obj
 0001:000913c0       ??B?$__crt_unique_heap_ptr@U__crt_locale_pointers@@U__crt_internal_free_policy@@@@QBE_NXZ 100923c0 f i libucrtd:wsetlocale.obj
 0001:000913e0       ??B?$__crt_unique_heap_ptr@U__crt_multibyte_data@@U__crt_internal_free_policy@@@@QBE_NXZ 100923e0 f i libucrtd:wsetlocale.obj
 0001:000917d0       ?commit_locale_name@_expandlocale_locale_name_cache@@QAEXQB_WI@Z 100927d0 f i libucrtd:wsetlocale.obj
 0001:00091830       ?commit_locale_name_cache_already_updated@_expandlocale_locale_name_cache@@QAEXQB_WI@Z 10092830 f i libucrtd:wsetlocale.obj
 0001:00091890       ?detach@?$__crt_unique_heap_ptr@U__crt_locale_data@@U__crt_internal_free_policy@@@@QAEPAU__crt_locale_data@@XZ 10092890 f i libucrtd:wsetlocale.obj
 0001:000918c0       ?detach@?$__crt_unique_heap_ptr@U__crt_locale_pointers@@U__crt_internal_free_policy@@@@QAEPAU__crt_locale_pointers@@XZ 100928c0 f i libucrtd:wsetlocale.obj
 0001:000918f0       ?detach@?$__crt_unique_heap_ptr@U__crt_multibyte_data@@U__crt_internal_free_policy@@@@QAEPAU__crt_multibyte_data@@XZ 100928f0 f i libucrtd:wsetlocale.obj
 0001:00091920       ?get@?$__crt_unique_heap_ptr@U__crt_locale_data@@U__crt_internal_free_policy@@@@QBEPAU__crt_locale_data@@XZ 10092920 f i libucrtd:wsetlocale.obj
 0001:00091940       ?get@?$__crt_unique_heap_ptr@U__crt_locale_pointers@@U__crt_internal_free_policy@@@@QBEPAU__crt_locale_pointers@@XZ 10092940 f i libucrtd:wsetlocale.obj
 0001:00091960       ?get@?$__crt_unique_heap_ptr@U__crt_multibyte_data@@U__crt_internal_free_policy@@@@QBEPAU__crt_multibyte_data@@XZ 10092960 f i libucrtd:wsetlocale.obj
 0001:00091980       ?is_valid@?$__crt_unique_heap_ptr@U__crt_locale_data@@U__crt_internal_free_policy@@@@QBE_NXZ 10092980 f i libucrtd:wsetlocale.obj
 0001:000919b0       ?is_valid@?$__crt_unique_heap_ptr@U__crt_locale_pointers@@U__crt_internal_free_policy@@@@QBE_NXZ 100929b0 f i libucrtd:wsetlocale.obj
 0001:000919e0       ?is_valid@?$__crt_unique_heap_ptr@U__crt_multibyte_data@@U__crt_internal_free_policy@@@@QBE_NXZ 100929e0 f i libucrtd:wsetlocale.obj
 0001:00091a10       ?release@?$__crt_unique_heap_ptr@U__crt_locale_data@@U__crt_internal_free_policy@@@@QAEXXZ 10092a10 f i libucrtd:wsetlocale.obj
 0001:00091a40       ?release@?$__crt_unique_heap_ptr@U__crt_locale_pointers@@U__crt_internal_free_policy@@@@QAEXXZ 10092a40 f i libucrtd:wsetlocale.obj
 0001:00091a70       ?release@?$__crt_unique_heap_ptr@U__crt_multibyte_data@@U__crt_internal_free_policy@@@@QAEXXZ 10092a70 f i libucrtd:wsetlocale.obj
 0001:00091aa0       ___acrt_copy_locale_name   10092aa0 f   libucrtd:wsetlocale.obj
 0001:00091b40       ___acrt_set_locale_changed 10092b40 f   libucrtd:wsetlocale.obj
 0001:00091b60       ___acrt_uninitialize_locale 10092b60 f   libucrtd:wsetlocale.obj
 0001:00091b80       ___ascii_tolower           10092b80 f i libucrtd:wsetlocale.obj
 0001:00091ba0       ___ascii_towlower          10092ba0 f i libucrtd:wsetlocale.obj
 0001:00091bc0       ___lc_lctowcs              10092bc0 f   libucrtd:wsetlocale.obj
 0001:00091c70       ___lc_wcstolc              10092c70 f   libucrtd:wsetlocale.obj
 0001:00091ea0       __configthreadlocale       10092ea0 f   libucrtd:wsetlocale.obj
 0001:00092020       __create_locale            10093020 f   libucrtd:wsetlocale.obj
 0001:00092660       __free_locale              10093660 f   libucrtd:wsetlocale.obj
 0001:00092790       __get_current_locale       10093790 f   libucrtd:wsetlocale.obj
 0001:00092860       __wcreate_locale           10093860 f   libucrtd:wsetlocale.obj
 0001:00092aa0       __wcscats                  10093aa0 f   libucrtd:wsetlocale.obj
 0001:00092b20       __wsetlocale               10093b20 f   libucrtd:wsetlocale.obj
 0001:00094220       ___p___mb_cur_max          10095220 f   libucrtd:nlsdata.obj
 0001:00094260       ___acrt_getheap            10095260 f   libucrtd:heap_handle.obj
 0001:000942a0       ___acrt_initialize_heap    100952a0 f   libucrtd:heap_handle.obj
 0001:000942d0       ___acrt_uninitialize_heap  100952d0 f   libucrtd:heap_handle.obj
 0001:000942f0       __get_heap_handle          100952f0 f   libucrtd:heap_handle.obj
 0001:00094330       ??$__crt_fast_decode_pointer@P6AHPAU_exception@@@Z@@YAP6AHPAU_exception@@@ZQ6AH0@Z@Z 10095330 f i libucrtd:matherr.obj
 0001:00094360       ??$__crt_fast_encode_pointer@P6AHPAU_exception@@@Z@@YAP6AHPAU_exception@@@ZQ6AH0@Z@Z 10095360 f i libucrtd:matherr.obj
 0001:00094390       ?initialize@?$dual_state_global@P6AHPAU_exception@@@Z@__crt_state_management@@QAEXQ6AHPAU_exception@@@Z@Z 10095390 f i libucrtd:matherr.obj
 0001:000943d0       ?value@?$dual_state_global@P6AHPAU_exception@@@Z@__crt_state_management@@QAEAAP6AHPAU_exception@@@ZXZ 100953d0 f i libucrtd:matherr.obj
 0001:000943f0       ___acrt_has_user_matherr   100953f0 f   libucrtd:matherr.obj
 0001:00094430       ___acrt_initialize_user_matherr 10095430 f   libucrtd:matherr.obj
 0001:00094450       ___acrt_invoke_user_matherr 10095450 f   libucrtd:matherr.obj
 0001:000944a0       ___setusermatherr          100954a0 f   libucrtd:matherr.obj
 0001:000947d0       ___acrt_get_begin_thread_init_policy 100957d0 f   libucrtd:win_policies.obj
 0001:000947f0       ___acrt_get_developer_information_policy 100957f0 f   libucrtd:win_policies.obj
 0001:00094810       ___acrt_get_process_end_policy 10095810 f   libucrtd:win_policies.obj
 0001:00094830       ___acrt_get_windowing_model_policy 10095830 f   libucrtd:win_policies.obj
 0001:00094b00       ??$__acrt_mbs_to_wcs_cp@U__crt_win32_buffer_internal_dynamic_resizing@@@@YAHQBDAAV?$__crt_win32_buffer@_WU__crt_win32_buffer_internal_dynamic_resizing@@@@I@Z 10095b00 f i libucrtd:argv_wildcards.obj
 0001:00094b30       ??$__acrt_wcs_to_mbs_cp@U__crt_win32_buffer_internal_dynamic_resizing@@@@YAHQB_WAAV?$__crt_win32_buffer@DU__crt_win32_buffer_internal_dynamic_resizing@@@@I@Z 10095b30 f i libucrtd:argv_wildcards.obj
 0001:00095a80       ??$tcsncpy_s@AAPADIAAPADABI@?$__crt_char_traits@D@@SAHAAPAD$$QAI0ABI@Z 10096a80 f i libucrtd:argv_wildcards.obj
 0001:00095ab0       ??$tcsncpy_s@AAPA_WIAAPA_WABI@?$__crt_char_traits@_W@@SAHAAPA_W$$QAI0ABI@Z 10096ab0 f i libucrtd:argv_wildcards.obj
 0001:00095ae0       ??$tcsncpy_s@PADABIABQBDABI@?$__crt_char_traits@D@@SAH$$QAPADABIABQBD1@Z 10096ae0 f i libucrtd:argv_wildcards.obj
 0001:00095b10       ??$tcsncpy_s@PADIABQBDABI@?$__crt_char_traits@D@@SAH$$QAPAD$$QAIABQBDABI@Z 10096b10 f i libucrtd:argv_wildcards.obj
 0001:00095b40       ??$tcsncpy_s@PA_WABIABQB_WABI@?$__crt_char_traits@_W@@SAH$$QAPA_WABIABQB_W1@Z 10096b40 f i libucrtd:argv_wildcards.obj
 0001:00095b70       ??$tcsncpy_s@PA_WIABQB_WABI@?$__crt_char_traits@_W@@SAH$$QAPA_W$$QAIABQB_WABI@Z 10096b70 f i libucrtd:argv_wildcards.obj
 0001:00095ba0       ??$tcspbrk@AAPADAAY02$$CBD@?$__crt_char_traits@D@@SAPADAAPADAAY02$$CBD@Z 10096ba0 f i libucrtd:argv_wildcards.obj
 0001:00095bc0       ??$tcspbrk@AAPA_WAAY02$$CB_W@?$__crt_char_traits@_W@@SAPA_WAAPA_WAAY02$$CB_W@Z 10096bc0 f i libucrtd:argv_wildcards.obj
 0001:00095be0       ??0?$__crt_unique_handle_t@U__crt_findfile_traits@@@@QAE@QAX@Z 10096be0 f i libucrtd:argv_wildcards.obj
 0001:00095c00       ??0?$__crt_win32_buffer@DU__crt_win32_buffer_internal_dynamic_resizing@@@@QAE@XZ 10096c00 f i libucrtd:argv_wildcards.obj
 0001:00095c50       ??0?$__crt_win32_buffer@_WU__crt_win32_buffer_internal_dynamic_resizing@@@@QAE@XZ 10096c50 f i libucrtd:argv_wildcards.obj
 0001:00095d00       ??1?$__crt_unique_handle_t@U__crt_findfile_traits@@@@QAE@XZ 10096d00 f i libucrtd:argv_wildcards.obj
 0001:00095d20       ??1?$__crt_win32_buffer@DU__crt_win32_buffer_internal_dynamic_resizing@@@@QAE@XZ 10096d20 f i libucrtd:argv_wildcards.obj
 0001:00095d60       ??1?$__crt_win32_buffer@_WU__crt_win32_buffer_internal_dynamic_resizing@@@@QAE@XZ 10096d60 f i libucrtd:argv_wildcards.obj
 0001:00095fc0       ?_deallocate@?$__crt_win32_buffer@DU__crt_win32_buffer_internal_dynamic_resizing@@@@AAEXXZ 10096fc0 f i libucrtd:argv_wildcards.obj
 0001:00096000       ?_deallocate@?$__crt_win32_buffer@_WU__crt_win32_buffer_internal_dynamic_resizing@@@@AAEXXZ 10097000 f i libucrtd:argv_wildcards.obj
 0001:00096040       ?allocate@?$__crt_win32_buffer@DU__crt_win32_buffer_internal_dynamic_resizing@@@@QAEHI@Z 10097040 f i libucrtd:argv_wildcards.obj
 0001:000960b0       ?allocate@?$__crt_win32_buffer@_WU__crt_win32_buffer_internal_dynamic_resizing@@@@QAEHI@Z 100970b0 f i libucrtd:argv_wildcards.obj
 0001:00096120       ?allocate@__crt_win32_buffer_internal_dynamic_resizing@@SAHQAPAXIABV__crt_win32_buffer_empty_debug_info@@@Z 10097120 f i libucrtd:argv_wildcards.obj
 0001:00096260       ?capacity@?$__crt_win32_buffer@DU__crt_win32_buffer_internal_dynamic_resizing@@@@QBEIXZ 10097260 f i libucrtd:argv_wildcards.obj
 0001:00096280       ?capacity@?$__crt_win32_buffer@_WU__crt_win32_buffer_internal_dynamic_resizing@@@@QBEIXZ 10097280 f i libucrtd:argv_wildcards.obj
 0001:000962a0       ?close@?$__crt_unique_handle_t@U__crt_findfile_traits@@@@QAEXXZ 100972a0 f i libucrtd:argv_wildcards.obj
 0001:000962e0       ?close@__crt_findfile_traits@@SA_NPAX@Z 100972e0 f i libucrtd:argv_wildcards.obj
 0001:00096310       ?data@?$__crt_win32_buffer@DU__crt_win32_buffer_internal_dynamic_resizing@@@@QAEPADXZ 10097310 f i libucrtd:argv_wildcards.obj
 0001:00096330       ?data@?$__crt_win32_buffer@_WU__crt_win32_buffer_internal_dynamic_resizing@@@@QAEPA_WXZ 10097330 f i libucrtd:argv_wildcards.obj
 0001:00096350       ?deallocate@__crt_win32_buffer_internal_dynamic_resizing@@SAXQAXABV__crt_win32_buffer_empty_debug_info@@@Z 10097350 f i libucrtd:argv_wildcards.obj
 0001:00096370       ?debug_info@?$__crt_win32_buffer@DU__crt_win32_buffer_internal_dynamic_resizing@@@@QBEABV__crt_win32_buffer_empty_debug_info@@XZ 10097370 f i libucrtd:argv_wildcards.obj
 0001:00096380       ?debug_info@?$__crt_win32_buffer@_WU__crt_win32_buffer_internal_dynamic_resizing@@@@QBEABV__crt_win32_buffer_empty_debug_info@@XZ 10097380 f i libucrtd:argv_wildcards.obj
 0001:00096690       ?get@?$__crt_unique_handle_t@U__crt_findfile_traits@@@@QBEPAXXZ 10097690 f i libucrtd:argv_wildcards.obj
 0001:00096700       ?get_invalid_value@__crt_findfile_traits@@SAPAXXZ 10097700 f i libucrtd:argv_wildcards.obj
 0001:00096790       ?set_to_nullptr@?$__crt_win32_buffer@DU__crt_win32_buffer_internal_dynamic_resizing@@@@QAEXXZ 10097790 f i libucrtd:argv_wildcards.obj
 0001:000967d0       ?set_to_nullptr@?$__crt_win32_buffer@_WU__crt_win32_buffer_internal_dynamic_resizing@@@@QAEXXZ 100977d0 f i libucrtd:argv_wildcards.obj
 0001:00096810       ?size@?$__crt_win32_buffer@DU__crt_win32_buffer_internal_dynamic_resizing@@@@QAEXI@Z 10097810 f i libucrtd:argv_wildcards.obj
 0001:00096830       ?size@?$__crt_win32_buffer@_WU__crt_win32_buffer_internal_dynamic_resizing@@@@QAEXI@Z 10097830 f i libucrtd:argv_wildcards.obj
 0001:00096890       ?strpbrk@@YAPADQADQBD@Z    10097890 f i libucrtd:argv_wildcards.obj
 0001:000968b0       ?wcspbrk@@YAPA_WPA_WPB_W@Z 100978b0 f i libucrtd:argv_wildcards.obj
 0001:000968d0       ___acrt_expand_narrow_argv_wildcards 100978d0 f   libucrtd:argv_wildcards.obj
 0001:000968f0       ___acrt_expand_wide_argv_wildcards 100978f0 f   libucrtd:argv_wildcards.obj
 0001:000969d0       ??$initialize_from_array@$$BY10BAA@E@?$dual_state_global@PAE@__crt_state_management@@QAAXAAY10BAA@E@Z 100979d0 f i libucrtd:mbctype.obj
 0001:00096a20       ??$initialize_from_array@$$BY10BAB@E@?$dual_state_global@PAE@__crt_state_management@@QAAXAAY10BAB@E@Z 10097a20 f i libucrtd:mbctype.obj
 0001:00096c90       ?dangerous_get_state_array@?$dual_state_global@PAE@__crt_state_management@@QAEPAPAEXZ 10097c90 f i libucrtd:mbctype.obj
 0001:00096ca0       ?dangerous_get_state_array@?$dual_state_global@PAU__crt_multibyte_data@@@__crt_state_management@@QAEPAPAU__crt_multibyte_data@@XZ 10097ca0 f i libucrtd:mbctype.obj
 0001:00096d70       ?initialize@?$dual_state_global@PAU__crt_multibyte_data@@@__crt_state_management@@QAEXQAU__crt_multibyte_data@@@Z 10097d70 f i libucrtd:mbctype.obj
 0001:000974d0       ?value@?$dual_state_global@PAE@__crt_state_management@@QAEAAPAEXZ 100984d0 f i libucrtd:mbctype.obj
 0001:000974f0       ___acrt_initialize_multibyte 100984f0 f   libucrtd:mbctype.obj
 0001:000975a0       ___acrt_update_thread_multibyte_data 100985a0 f   libucrtd:mbctype.obj
 0001:000975c0       ___p__mbcasemap            100985c0 f   libucrtd:mbctype.obj
 0001:000975e0       ___p__mbctype              100985e0 f   libucrtd:mbctype.obj
 0001:00097600       __getmbcp                  10098600 f   libucrtd:mbctype.obj
 0001:00097670       __setmbcp                  10098670 f   libucrtd:mbctype.obj
 0001:000976a0       __setmbcp_nolock           100986a0 f   libucrtd:mbctype.obj
 0001:00097c11       __ismbbalnum               10098c11 f   libucrtd:ismbbyte.obj
 0001:00097c2c       __ismbbalnum_l             10098c2c f   libucrtd:ismbbyte.obj
 0001:00097c48       __ismbbalpha               10098c48 f   libucrtd:ismbbyte.obj
 0001:00097c63       __ismbbalpha_l             10098c63 f   libucrtd:ismbbyte.obj
 0001:00097c7f       __ismbbblank               10098c7f f   libucrtd:ismbbyte.obj
 0001:00097ca2       __ismbbblank_l             10098ca2 f   libucrtd:ismbbyte.obj
 0001:00097cc6       __ismbbgraph               10098cc6 f   libucrtd:ismbbyte.obj
 0001:00097ce1       __ismbbgraph_l             10098ce1 f   libucrtd:ismbbyte.obj
 0001:00097cfd       __ismbbkalnum              10098cfd f   libucrtd:ismbbyte.obj
 0001:00097d15       __ismbbkalnum_l            10098d15 f   libucrtd:ismbbyte.obj
 0001:00097d2e       __ismbbkana                10098d2e f   libucrtd:ismbbyte.obj
 0001:00097d41       __ismbbkana_l              10098d41 f   libucrtd:ismbbyte.obj
 0001:00097d90       __ismbbkprint              10098d90 f   libucrtd:ismbbyte.obj
 0001:00097da8       __ismbbkprint_l            10098da8 f   libucrtd:ismbbyte.obj
 0001:00097dc1       __ismbbkpunct              10098dc1 f   libucrtd:ismbbyte.obj
 0001:00097dd9       __ismbbkpunct_l            10098dd9 f   libucrtd:ismbbyte.obj
 0001:00097df2       __ismbblead                10098df2 f   libucrtd:ismbbyte.obj
 0001:00097e0a       __ismbblead_l              10098e0a f   libucrtd:ismbbyte.obj
 0001:00097e23       __ismbbprint               10098e23 f   libucrtd:ismbbyte.obj
 0001:00097e3e       __ismbbprint_l             10098e3e f   libucrtd:ismbbyte.obj
 0001:00097e5a       __ismbbpunct               10098e5a f   libucrtd:ismbbyte.obj
 0001:00097e72       __ismbbpunct_l             10098e72 f   libucrtd:ismbbyte.obj
 0001:00097e8b       __ismbbtrail               10098e8b f   libucrtd:ismbbyte.obj
 0001:00097ea3       __ismbbtrail_l             10098ea3 f   libucrtd:ismbbyte.obj
 0001:00097ec0       ___acrt_initialize_command_line 10098ec0 f   libucrtd:argv_data.obj
 0001:00097ee0       ___acrt_uninitialize_command_line 10098ee0 f   libucrtd:argv_data.obj
 0001:00097ef0       ___p___argc                10098ef0 f   libucrtd:argv_data.obj
 0001:00097f00       ___p___argv                10098f00 f   libucrtd:argv_data.obj
 0001:00097f10       ___p___wargv               10098f10 f   libucrtd:argv_data.obj
 0001:00097f20       ___p__acmdln               10098f20 f   libucrtd:argv_data.obj
 0001:00097f30       ___p__pgmptr               10098f30 f   libucrtd:argv_data.obj
 0001:00097f40       ___p__wcmdln               10098f40 f   libucrtd:argv_data.obj
 0001:00097f50       ___p__wpgmptr              10098f50 f   libucrtd:argv_data.obj
 0001:00097f60       __get_pgmptr               10098f60 f   libucrtd:argv_data.obj
 0001:00098070       __get_wpgmptr              10099070 f   libucrtd:argv_data.obj
 0001:00098230       ___acrt_MultiByteToWideChar 10099230 f   libucrtd:multibytetowidechar.obj
 0001:00098330       ___acrt_WideCharToMultiByte 10099330 f   libucrtd:widechartomultibyte.obj
 0001:00098472       ___dcrt_get_narrow_environment_from_os 10099472 f   libucrtd:get_environment_from_os.obj
 0001:00098504       ___dcrt_get_wide_environment_from_os 10099504 f   libucrtd:get_environment_from_os.obj
 0001:00098e99       ??$get_or_create_environment_nolock@$$V@?$__crt_char_traits@D@@SAPAPADXZ 10099e99 f i libucrtd:setenv.obj
 0001:00098e9e       ??$get_or_create_environment_nolock@$$V@?$__crt_char_traits@_W@@SAPAPA_WXZ 10099e9e f i libucrtd:setenv.obj
 0001:00098ea3       ??$set_environment_variable@ABQADQAD@?$__crt_char_traits@D@@SAHABQAD$$QBQAD@Z 10099ea3 f i libucrtd:setenv.obj
 0001:00098ebb       ??$set_environment_variable@ABQA_WQA_W@?$__crt_char_traits@_W@@SAHABQA_W$$QBQA_W@Z 10099ebb f i libucrtd:setenv.obj
 0001:00098ed2       ??$tcschr@ABQADD@?$__crt_char_traits@D@@SAPADABQAD$$QAD@Z 10099ed2 f i libucrtd:setenv.obj
 0001:00098eec       ??$tcschr@ABQA_WD@?$__crt_char_traits@_W@@SAPA_WABQA_W$$QAD@Z 10099eec f i libucrtd:setenv.obj
 0001:00098f0a       ??$tcscpy_s@AAPADABIAAPAD@?$__crt_char_traits@D@@SAHAAPADABI0@Z 10099f0a f i libucrtd:setenv.obj
 0001:00098f28       ??$tcscpy_s@AAPA_WABIAAPA_W@?$__crt_char_traits@_W@@SAHAAPA_WABI0@Z 10099f28 f i libucrtd:setenv.obj
 0001:00098f46       ??$tcscpy_s@ABQADABIABQAD@?$__crt_char_traits@D@@SAHABQADABI0@Z 10099f46 f i libucrtd:setenv.obj
 0001:00098f64       ??$tcscpy_s@ABQA_WABIABQA_W@?$__crt_char_traits@_W@@SAHABQA_WABI0@Z 10099f64 f i libucrtd:setenv.obj
 0001:00098f82       ??$tcsnicoll@ABQBDAAPADABI@?$__crt_char_traits@D@@SAHABQBDAAPADABI@Z 10099f82 f i libucrtd:setenv.obj
 0001:00098fa0       ??$tcsnicoll@ABQB_WAAPA_WABI@?$__crt_char_traits@_W@@SAHABQB_WAAPA_WABI@Z 10099fa0 f i libucrtd:setenv.obj
 0001:00098fbe       ??$tcsnlen@PADH@?$__crt_char_traits@D@@SAI$$QAPAD$$QAH@Z 10099fbe f i libucrtd:setenv.obj
 0001:00098fd6       ??$tcsnlen@PA_WH@?$__crt_char_traits@_W@@SAI$$QAPA_W$$QAH@Z 10099fd6 f i libucrtd:setenv.obj
 0001:00099012       ?strchr@@YAPADQADH@Z       1009a012 f i libucrtd:setenv.obj
 0001:0009901d       ?wcschr@@YAPA_WPA_W_W@Z    1009a01d f i libucrtd:setenv.obj
 0001:00099028       ___dcrt_set_variable_in_narrow_environment_nolock 1009a028 f   libucrtd:setenv.obj
 0001:00099033       ___dcrt_set_variable_in_wide_environment_nolock 1009a033 f   libucrtd:setenv.obj
 0001:00099060       ??$?B$$A6GHPA_WKJ@Z@__crt_fast_encoded_nullptr_t@@QBEP6GHPA_WKJ@ZXZ 1009a060 f i libucrtd:winapi_thunks.obj
 0001:00099150       ??$__crt_fast_decode_pointer@P6GHPA_WKJ@Z@@YAP6GHPA_WKJ@ZQ6GH0KJ@Z@Z 1009a150 f i libucrtd:winapi_thunks.obj
 0001:00099180       ??$__crt_fast_decode_pointer@PAX@@YAPAXQAX@Z 1009a180 f i libucrtd:winapi_thunks.obj
 0001:000991b0       ??$__crt_fast_encode_pointer@P6GHPA_WKJ@Z@@YAP6GHPA_WKJ@ZQ6GH0KJ@Z@Z 1009a1b0 f i libucrtd:winapi_thunks.obj
 0001:00099b10       _GetCurrentThreadEffectiveToken 1009ab10 f i libucrtd:winapi_thunks.obj
 0001:00099b20       ___acrt_AppPolicyGetProcessTerminationMethodInternal@4 1009ab20 f   libucrtd:winapi_thunks.obj
 0001:00099b60       ___acrt_AppPolicyGetShowDeveloperDiagnosticInternal@4 1009ab60 f   libucrtd:winapi_thunks.obj
 0001:00099ba0       ___acrt_AppPolicyGetThreadInitializationTypeInternal@4 1009aba0 f   libucrtd:winapi_thunks.obj
 0001:00099be0       ___acrt_AppPolicyGetWindowingModelInternal@4 1009abe0 f   libucrtd:winapi_thunks.obj
 0001:00099c20       ___acrt_AreFileApisANSI@0  1009ac20 f   libucrtd:winapi_thunks.obj
 0001:00099c60       ___acrt_CompareStringEx@36 1009ac60 f   libucrtd:winapi_thunks.obj
 0001:00099ce0       ___acrt_EnumSystemLocalesEx@16 1009ace0 f   libucrtd:winapi_thunks.obj
 0001:00099d40       ___acrt_FlsAlloc@4         1009ad40 f   libucrtd:winapi_thunks.obj
 0001:00099d80       ___acrt_FlsFree@4          1009ad80 f   libucrtd:winapi_thunks.obj
 0001:00099dc0       ___acrt_FlsGetValue@4      1009adc0 f   libucrtd:winapi_thunks.obj
 0001:00099e00       ___acrt_FlsSetValue@8      1009ae00 f   libucrtd:winapi_thunks.obj
 0001:00099e50       ___acrt_GetDateFormatEx@28 1009ae50 f   libucrtd:winapi_thunks.obj
 0001:00099ed0       ___acrt_GetEnabledXStateFeatures@0 1009aed0 f   libucrtd:winapi_thunks.obj
 0001:00099f10       ___acrt_GetLocaleInfoEx@16 1009af10 f   libucrtd:winapi_thunks.obj
 0001:00099f70       ___acrt_GetSystemTimePreciseAsFileTime@4 1009af70 f   libucrtd:winapi_thunks.obj
 0001:00099fb0       ___acrt_GetTimeFormatEx@24 1009afb0 f   libucrtd:winapi_thunks.obj
 0001:0009a020       ___acrt_GetUserDefaultLocaleName@8 1009b020 f   libucrtd:winapi_thunks.obj
 0001:0009a070       ___acrt_GetXStateFeaturesMask@8 1009b070 f   libucrtd:winapi_thunks.obj
 0001:0009a0b0       ___acrt_InitializeCriticalSectionEx@12 1009b0b0 f   libucrtd:winapi_thunks.obj
 0001:0009a100       ___acrt_IsValidLocaleName@4 1009b100 f   libucrtd:winapi_thunks.obj
 0001:0009a150       ___acrt_LCIDToLocaleName@16 1009b150 f   libucrtd:winapi_thunks.obj
 0001:0009a1b0       ___acrt_LCMapStringEx@36   1009b1b0 f   libucrtd:winapi_thunks.obj
 0001:0009a230       ___acrt_LocaleNameToLCID@8 1009b230 f   libucrtd:winapi_thunks.obj
 0001:0009a280       ___acrt_LocateXStateFeature@12 1009b280 f   libucrtd:winapi_thunks.obj
 0001:0009a2d0       ___acrt_MessageBoxA@16     1009b2d0 f   libucrtd:winapi_thunks.obj
 0001:0009a320       ___acrt_MessageBoxW@16     1009b320 f   libucrtd:winapi_thunks.obj
 0001:0009a370       ___acrt_RoInitialize@4     1009b370 f   libucrtd:winapi_thunks.obj
 0001:0009a3b0       ___acrt_RoUninitialize@0   1009b3b0 f   libucrtd:winapi_thunks.obj
 0001:0009a3e0       ___acrt_RtlGenRandom@8     1009b3e0 f   libucrtd:winapi_thunks.obj
 0001:0009a420       ___acrt_SetThreadStackGuarantee@4 1009b420 f   libucrtd:winapi_thunks.obj
 0001:0009a460       ___acrt_can_show_message_box 1009b460 f   libucrtd:winapi_thunks.obj
 0001:0009a4a0       ___acrt_can_use_vista_locale_apis 1009b4a0 f   libucrtd:winapi_thunks.obj
 0001:0009a4d0       ___acrt_can_use_xstate_apis 1009b4d0 f   libucrtd:winapi_thunks.obj
 0001:0009a500       ___acrt_eagerly_load_locale_apis 1009b500 f   libucrtd:winapi_thunks.obj
 0001:0009a540       ___acrt_get_parent_window  1009b540 f   libucrtd:winapi_thunks.obj
 0001:0009a5b0       ___acrt_initialize_winapi_thunks 1009b5b0 f   libucrtd:winapi_thunks.obj
 0001:0009a620       ___acrt_is_interactive     1009b620 f   libucrtd:winapi_thunks.obj
 0001:0009a6d0       ___acrt_uninitialize_winapi_thunks 1009b6d0 f   libucrtd:winapi_thunks.obj
 0001:0009aa00       ___acrt_initialize_lowio   1009ba00 f   libucrtd:ioinit.obj
 0001:0009aaa0       ___acrt_uninitialize_lowio 1009baa0 f   libucrtd:ioinit.obj
 0001:0009ab00       ___acrt_execute_initializers 1009bb00 f   libucrtd:shared_initialization.obj
 0001:0009abb0       ___acrt_execute_uninitializers 1009bbb0 f   libucrtd:shared_initialization.obj
 0001:0009ac10       ?has_temporary_buffer@__crt_stdio_stream@@QBE_NXZ 1009bc10 f i libucrtd:_sftbuf.obj
 0001:0009ac30       ___acrt_stdio_begin_temporary_buffering_nolock 1009bc30 f   libucrtd:_sftbuf.obj
 0001:0009adf0       ___acrt_stdio_end_temporary_buffering_nolock 1009bdf0 f   libucrtd:_sftbuf.obj
 0001:0009ae70       __CrtGetDebugFillThreshold 1009be70 f   libucrtd:debug_fill_threshold.obj
 0001:0009ae80       __CrtSetDebugFillThreshold 1009be80 f   libucrtd:debug_fill_threshold.obj
 0001:0009aea0       ??$make_c_string_character_source@DPAPAD@__crt_strtox@@YA?AV?$c_string_character_source@D@0@QBDQAPAD@Z 1009bea0 f i libucrtd:strtox.obj
 0001:0009aec0       ??$make_c_string_character_source@_WPAPA_W@__crt_strtox@@YA?AV?$c_string_character_source@_W@0@QB_WQAPA_W@Z 1009bec0 f i libucrtd:strtox.obj
 0001:0009aee0       ??$parse_integer_from_string@JDPAPAD@__crt_strtox@@YAJQBDQAPADHQAU__crt_locale_pointers@@@Z 1009bee0 f i libucrtd:strtox.obj
 0001:0009af20       ??$parse_integer_from_string@J_WPAPA_W@__crt_strtox@@YAJQB_WQAPA_WHQAU__crt_locale_pointers@@@Z 1009bf20 f i libucrtd:strtox.obj
 0001:0009af60       ??$parse_integer_from_string@KDPAPAD@__crt_strtox@@YAKQBDQAPADHQAU__crt_locale_pointers@@@Z 1009bf60 f i libucrtd:strtox.obj
 0001:0009afa0       ??$parse_integer_from_string@K_WPAPA_W@__crt_strtox@@YAKQB_WQAPA_WHQAU__crt_locale_pointers@@@Z 1009bfa0 f i libucrtd:strtox.obj
 0001:0009afe0       ??$parse_integer_from_string@_JDPAPAD@__crt_strtox@@YA_JQBDQAPADHQAU__crt_locale_pointers@@@Z 1009bfe0 f i libucrtd:strtox.obj
 0001:0009b020       ??$parse_integer_from_string@_J_WPAPA_W@__crt_strtox@@YA_JQB_WQAPA_WHQAU__crt_locale_pointers@@@Z 1009c020 f i libucrtd:strtox.obj
 0001:0009b060       ??$parse_integer_from_string@_KDPAPAD@__crt_strtox@@YA_KQBDQAPADHQAU__crt_locale_pointers@@@Z 1009c060 f i libucrtd:strtox.obj
 0001:0009b0a0       ??$parse_integer_from_string@_K_WPAPA_W@__crt_strtox@@YA_KQB_WQAPA_WHQAU__crt_locale_pointers@@@Z 1009c0a0 f i libucrtd:strtox.obj
 0001:0009b0e0       __strtoi64                 1009c0e0 f   libucrtd:strtox.obj
 0001:0009b100       __strtoi64_l               1009c100 f   libucrtd:strtox.obj
 0001:0009b120       __strtoimax_l              1009c120 f   libucrtd:strtox.obj
 0001:0009b140       __strtol_l                 1009c140 f   libucrtd:strtox.obj
 0001:0009b160       __strtoll_l                1009c160 f   libucrtd:strtox.obj
 0001:0009b180       __strtoui64                1009c180 f   libucrtd:strtox.obj
 0001:0009b1a0       __strtoui64_l              1009c1a0 f   libucrtd:strtox.obj
 0001:0009b1c0       __strtoul_l                1009c1c0 f   libucrtd:strtox.obj
 0001:0009b1e0       __strtoull_l               1009c1e0 f   libucrtd:strtox.obj
 0001:0009b200       __strtoumax_l              1009c200 f   libucrtd:strtox.obj
 0001:0009b220       __wcstoi64                 1009c220 f   libucrtd:strtox.obj
 0001:0009b240       __wcstoi64_l               1009c240 f   libucrtd:strtox.obj
 0001:0009b260       __wcstoimax_l              1009c260 f   libucrtd:strtox.obj
 0001:0009b280       __wcstol_l                 1009c280 f   libucrtd:strtox.obj
 0001:0009b2a0       __wcstoll_l                1009c2a0 f   libucrtd:strtox.obj
 0001:0009b2c0       __wcstoui64                1009c2c0 f   libucrtd:strtox.obj
 0001:0009b2e0       __wcstoui64_l              1009c2e0 f   libucrtd:strtox.obj
 0001:0009b300       __wcstoul_l                1009c300 f   libucrtd:strtox.obj
 0001:0009b320       __wcstoull_l               1009c320 f   libucrtd:strtox.obj
 0001:0009b340       __wcstoumax_l              1009c340 f   libucrtd:strtox.obj
 0001:0009b360       _strtoimax                 1009c360 f   libucrtd:strtox.obj
 0001:0009b380       _strtol                    1009c380 f   libucrtd:strtox.obj
 0001:0009b3a0       _strtoll                   1009c3a0 f   libucrtd:strtox.obj
 0001:0009b3c0       _strtoul                   1009c3c0 f   libucrtd:strtox.obj
 0001:0009b3e0       _strtoull                  1009c3e0 f   libucrtd:strtox.obj
 0001:0009b400       _strtoumax                 1009c400 f   libucrtd:strtox.obj
 0001:0009b420       _wcstoimax                 1009c420 f   libucrtd:strtox.obj
 0001:0009b440       _wcstol                    1009c440 f   libucrtd:strtox.obj
 0001:0009b460       _wcstoll                   1009c460 f   libucrtd:strtox.obj
 0001:0009b480       _wcstoul                   1009c480 f   libucrtd:strtox.obj
 0001:0009b4a0       _wcstoull                  1009c4a0 f   libucrtd:strtox.obj
 0001:0009b4c0       _wcstoumax                 1009c4c0 f   libucrtd:strtox.obj
 0001:0009b4e0       __mbtowc_l                 1009c4e0 f   libucrtd:mbtowc.obj
 0001:0009b800       _mbtowc                    1009c800 f   libucrtd:mbtowc.obj
 0001:0009b820       __wctomb_l                 1009c820 f   libucrtd:wctomb.obj
 0001:0009b8a0       __wctomb_s_l               1009c8a0 f   libucrtd:wctomb.obj
 0001:0009bc60       _wctomb                    1009cc60 f   libucrtd:wctomb.obj
 0001:0009bcb0       _wctomb_s                  1009ccb0 f   libucrtd:wctomb.obj
 0001:0009bce0       ?__acrt_fp_classify@@YA?AW4__acrt_fp_class@@ABN@Z 1009cce0 f i libucrtd:cvt.obj
 0001:0009be00       ?__acrt_fp_is_negative@@YA_NABN@Z 1009ce00 f i libucrtd:cvt.obj
 0001:0009ce50       ?strrchr@@YAPADQADH@Z      1009de50 f i libucrtd:cvt.obj
 0001:0009ce70       ___acrt_fp_format          1009de70 f   libucrtd:cvt.obj
 0001:0009d300       __fputwc_nolock            1009e300 f   libucrtd:fputwc.obj
 0001:0009d4f0       __fputwchar                1009e4f0 f   libucrtd:fputwc.obj
 0001:0009d510       __putwc_nolock             1009e510 f   libucrtd:fputwc.obj
 0001:0009d530       _fputwc                    1009e530 f   libucrtd:fputwc.obj
 0001:0009d640       _putwc                     1009e640 f   libucrtd:fputwc.obj
 0001:0009d660       _putwchar                  1009e660 f   libucrtd:fputwc.obj
 0001:0009d680       ?lowio_handle@__crt_stdio_stream@@QBEHXZ 1009e680 f i libucrtd:fileno.obj
 0001:0009d6a0       __fileno                   1009e6a0 f   libucrtd:fileno.obj
 0001:0009d740       __fputc_nolock             1009e740 f   libucrtd:fputc.obj
 0001:0009d7d0       __fputchar                 1009e7d0 f   libucrtd:fputc.obj
 0001:0009d7f0       __putc_nolock              1009e7f0 f   libucrtd:fputc.obj
 0001:0009d810       _fputc                     1009e810 f   libucrtd:fputc.obj
 0001:0009da50       _putc                      1009ea50 f   libucrtd:fputc.obj
 0001:0009da70       _putchar                   1009ea70 f   libucrtd:fputc.obj
 0001:0009da90       __get_printf_count_output  1009ea90 f   libucrtd:printf_count_output.obj
 0001:0009dac0       __set_printf_count_output  1009eac0 f   libucrtd:printf_count_output.obj
 0001:0009db18       __mbsdec                   1009eb18 f   libucrtd:mbsdec.obj
 0001:0009db2f       __mbsdec_l                 1009eb2f f   libucrtd:mbsdec.obj
 0001:0009e040       _wcsncpy_s                 1009f040 f   libucrtd:wcsncpy_s.obj
 0001:0009e470       _strncpy_s                 1009f470 f   libucrtd:strncpy_s.obj
 0001:0009e490       __iswctype_l               1009f490 f   libucrtd:iswctype.obj
 0001:0009e4b0       _iswctype                  1009f4b0 f   libucrtd:iswctype.obj
 0001:0009e520       __trandisp1                1009f520 f   libucrtd:87disp.obj
 0001:0009e595       __trandisp2                1009f595 f   libucrtd:87disp.obj
 0001:0009e62f       __rttospopde               1009f62f     libucrtd:87disp.obj
 0001:0009e634       __rttospop                 1009f634     libucrtd:87disp.obj
 0001:0009e640       __rtnospop                 1009f640 f   libucrtd:87disp.obj
 0001:0009e650       __rttosnpop                1009f650 f   libucrtd:87disp.obj
 0001:0009e651       __rtnospopde               1009f651     libucrtd:87disp.obj
 0001:0009e658       __rtzeropop                1009f658     libucrtd:87disp.obj
 0001:0009e65a       __rtzeronpop               1009f65a     libucrtd:87disp.obj
 0001:0009e660       __rtzerospop               1009f660 f   libucrtd:87disp.obj
 0001:0009e66d       __rtonepop                 1009f66d     libucrtd:87disp.obj
 0001:0009e670       __rtonenpop                1009f670 f   libucrtd:87disp.obj
 0001:0009e680       __tosnan1                  1009f680 f   libucrtd:87disp.obj
 0001:0009e6b0       __nosnan2                  1009f6b0 f   libucrtd:87disp.obj
 0001:0009e6c0       __tosnan2                  1009f6c0 f   libucrtd:87disp.obj
 0001:0009e6f0       __nan2                     1009f6f0 f   libucrtd:87disp.obj
 0001:0009e730       __rtindfpop                1009f730 f   libucrtd:87disp.obj
 0001:0009e732       __rtindfnpop               1009f732     libucrtd:87disp.obj
 0001:0009e743       __rttosnpopde              1009f743     libucrtd:87disp.obj
 0001:0009e750       __rtatan2inf               1009f750 f   libucrtd:87disp.obj
 0001:0009e76d       __rtchsifneg               1009f76d     libucrtd:87disp.obj
 0001:0009e780       ___setfflag                1009f780 f   libucrtd:fp_flags.obj
 0001:0009e7a0       __87except                 1009f7a0 f   libucrtd:87except.obj
 0001:0009e990       __startTwoArgErrorHandling 1009f990 f   libucrtd:genexcep.obj
 0001:0009e9a7       __startOneArgErrorHandling 1009f9a7 f   libucrtd:genexcep.obj
 0001:0009e9f0       __frnd                     1009f9f0 f   libucrtd:frnd.obj
 0001:0009ea10       _nexttoward                1009fa10 f   libucrtd:nexttoward.obj
 0001:0009ed60       ___acrt_OutputDebugStringA@4 1009fd60 f   libucrtd:outputdebugstringa.obj
 0001:0009edf0       ?is_in_use@__crt_stdio_stream@@QBE_NXZ 1009fdf0 f i libucrtd:closeall.obj
 0001:0009ee30       __fcloseall                1009fe30 f   libucrtd:closeall.obj
 0001:0009ef60       ?has_crt_buffer@__crt_stdio_stream@@QBE_NXZ 1009ff60 f i libucrtd:_freebuf.obj
 0001:0009ef80       ___acrt_stdio_free_buffer_nolock 1009ff80 f   libucrtd:_freebuf.obj
 0001:0009f240       __commit                   100a0240 f   libucrtd:commit.obj
 0001:000a0900       __utf8_no_of_trailbytes    100a1900 f i libucrtd:write.obj
 0001:000a0920       __write                    100a1920 f   libucrtd:write.obj
 0001:000a0b70       __write_nolock             100a1b70 f   libucrtd:write.obj
 0001:000a0fe0       __fFEXP                    100a1fe0 f   libucrtd:87tran.obj
 0001:000a1037       __rtinfpopse               100a2037     libucrtd:87tran.obj
 0001:000a1039       __rtinfnpopse              100a2039     libucrtd:87tran.obj
 0001:000a1049       __fFLN                     100a2049     libucrtd:87tran.obj
 0001:000a10fe       __rtinfpop                 100a20fe     libucrtd:87tran.obj
 0001:000a1100       __rtinfnpop                100a2100     libucrtd:87tran.obj
 0001:000a1110       __rtforexpinf              100a2110 f   libucrtd:87tran.obj
 0001:000a111d       __ffexpm1                  100a211d     libucrtd:87tran.obj
 0001:000a11d0       __d_inttype                100a21d0 f   libucrtd:powhlp.obj
 0001:000a1260       __powhlp                   100a2260 f   libucrtd:powhlp.obj
 0001:000a17e0       __mbstowcs_l               100a27e0 f   libucrtd:mbstowcs.obj
 0001:000a1800       __mbstowcs_s_l             100a2800 f   libucrtd:mbstowcs.obj
 0001:000a1bc0       _mbstowcs                  100a2bc0 f   libucrtd:mbstowcs.obj
 0001:000a1c10       _mbstowcs_s                100a2c10 f   libucrtd:mbstowcs.obj
 0001:000a2300       __wcstombs_l               100a3300 f   libucrtd:wcstombs.obj
 0001:000a2320       __wcstombs_s_l             100a3320 f   libucrtd:wcstombs.obj
 0001:000a2690       _wcstombs                  100a3690 f   libucrtd:wcstombs.obj
 0001:000a26b0       _wcstombs_s                100a36b0 f   libucrtd:wcstombs.obj
 0001:000a26e0       ??0?$__crt_scoped_stack_ptr@_W@@QAE@U?$__crt_scoped_stack_ptr_tag@_W@@@Z 100a36e0 f i libucrtd:getstringtypea.obj
